Archive member included because of file (symbol)

..\..\..\..\..\..\..\..\microchip\harmony\v2_06\bin\framework\peripheral\PIC32MX130F064B_peripherals.a(peripheral.o)
                              build/default/production/_ext/340578644/sys_devcon_pic32mx.o (PLIB_BMX_ExistsDataRamWaitState)

Optional file libmchp_peripheral.a not found

Optional file libmchp_peripheral_32MX130F064B.a not found
c:/program files/microchip/xc32/v2.50/bin/bin/../../lib/gcc/pic32mx/4.8.3/../../../../pic32mx/lib\libpic32.a(default-bootstrap-exception-handler.o)
                              C:\Users\MIGSAN~1\AppData\Local\Temp\ccqKeKlV.o (_bootstrap_exception_handler)
c:/program files/microchip/xc32/v2.50/bin/bin/../../lib/gcc/pic32mx/4.8.3/../../../../pic32mx/lib\libpic32.a(default-on-reset.o)
                              C:\Users\MIGSAN~1\AppData\Local\Temp\ccqKeKlV.o (_on_reset)
c:/program files/microchip/xc32/v2.50/bin/bin/../../lib/gcc/pic32mx/4.8.3/../../../../pic32mx/lib\libpic32.a(default-on-bootstrap.o)
                              C:\Users\MIGSAN~1\AppData\Local\Temp\ccqKeKlV.o (_on_bootstrap)
c:/program files/microchip/xc32/v2.50/bin/bin/../../lib/gcc/pic32mx/4.8.3/../../../../pic32mx/lib\libpic32.a(default-nmi-handler.o)
                              C:\Users\MIGSAN~1\AppData\Local\Temp\ccqKeKlV.o (_nmi_handler)
c:/program files/microchip/xc32/v2.50/bin/bin/../../lib/gcc/pic32mx/4.8.3/../../../../pic32mx/lib\libpic32.a(pic32_data_init.o)
                              C:\Users\MIGSAN~1\AppData\Local\Temp\ccqKeKlV.o (__pic32_data_init)
c:/program files/microchip/xc32/v2.50/bin/bin/../../lib/gcc/pic32mx/4.8.3/../../../../pic32mx/lib\libpic32.a(general-exception.o)
                              C:\Users\MIGSAN~1\AppData\Local\Temp\ccqKeKlV.o (_general_exception_context)
c:/program files/microchip/xc32/v2.50/bin/bin/../../lib/gcc/pic32mx/4.8.3/../../../../pic32mx/lib\libpic32.a(vector0.o)
                              C:\Users\MIGSAN~1\AppData\Local\Temp\ccowi2wX.o (__vector_dispatch_0)
c:/program files/microchip/xc32/v2.50/bin/bin/../../lib/gcc/pic32mx/4.8.3/../../../../pic32mx/lib\libpic32.a(vector1.o)
                              C:\Users\MIGSAN~1\AppData\Local\Temp\ccowi2wX.o (__vector_dispatch_1)
c:/program files/microchip/xc32/v2.50/bin/bin/../../lib/gcc/pic32mx/4.8.3/../../../../pic32mx/lib\libpic32.a(vector2.o)
                              C:\Users\MIGSAN~1\AppData\Local\Temp\ccowi2wX.o (__vector_dispatch_2)
c:/program files/microchip/xc32/v2.50/bin/bin/../../lib/gcc/pic32mx/4.8.3/../../../../pic32mx/lib\libpic32.a(vector3.o)
                              C:\Users\MIGSAN~1\AppData\Local\Temp\ccowi2wX.o (__vector_dispatch_3)
c:/program files/microchip/xc32/v2.50/bin/bin/../../lib/gcc/pic32mx/4.8.3/../../../../pic32mx/lib\libpic32.a(vector4.o)
                              C:\Users\MIGSAN~1\AppData\Local\Temp\ccowi2wX.o (__vector_dispatch_4)
c:/program files/microchip/xc32/v2.50/bin/bin/../../lib/gcc/pic32mx/4.8.3/../../../../pic32mx/lib\libpic32.a(vector5.o)
                              C:\Users\MIGSAN~1\AppData\Local\Temp\ccowi2wX.o (__vector_dispatch_5)
c:/program files/microchip/xc32/v2.50/bin/bin/../../lib/gcc/pic32mx/4.8.3/../../../../pic32mx/lib\libpic32.a(vector6.o)
                              C:\Users\MIGSAN~1\AppData\Local\Temp\ccowi2wX.o (__vector_dispatch_6)
c:/program files/microchip/xc32/v2.50/bin/bin/../../lib/gcc/pic32mx/4.8.3/../../../../pic32mx/lib\libpic32.a(vector7.o)
                              C:\Users\MIGSAN~1\AppData\Local\Temp\ccowi2wX.o (__vector_dispatch_7)
c:/program files/microchip/xc32/v2.50/bin/bin/../../lib/gcc/pic32mx/4.8.3/../../../../pic32mx/lib\libpic32.a(vector8.o)
                              C:\Users\MIGSAN~1\AppData\Local\Temp\ccowi2wX.o (__vector_dispatch_8)
c:/program files/microchip/xc32/v2.50/bin/bin/../../lib/gcc/pic32mx/4.8.3/../../../../pic32mx/lib\libpic32.a(vector9.o)
                              C:\Users\MIGSAN~1\AppData\Local\Temp\ccowi2wX.o (__vector_dispatch_9)
c:/program files/microchip/xc32/v2.50/bin/bin/../../lib/gcc/pic32mx/4.8.3/../../../../pic32mx/lib\libpic32.a(vector10.o)
                              C:\Users\MIGSAN~1\AppData\Local\Temp\ccowi2wX.o (__vector_dispatch_10)
c:/program files/microchip/xc32/v2.50/bin/bin/../../lib/gcc/pic32mx/4.8.3/../../../../pic32mx/lib\libpic32.a(vector11.o)
                              C:\Users\MIGSAN~1\AppData\Local\Temp\ccowi2wX.o (__vector_dispatch_11)
c:/program files/microchip/xc32/v2.50/bin/bin/../../lib/gcc/pic32mx/4.8.3/../../../../pic32mx/lib\libpic32.a(vector12.o)
                              C:\Users\MIGSAN~1\AppData\Local\Temp\ccowi2wX.o (__vector_dispatch_12)
c:/program files/microchip/xc32/v2.50/bin/bin/../../lib/gcc/pic32mx/4.8.3/../../../../pic32mx/lib\libpic32.a(vector13.o)
                              C:\Users\MIGSAN~1\AppData\Local\Temp\ccowi2wX.o (__vector_dispatch_13)
c:/program files/microchip/xc32/v2.50/bin/bin/../../lib/gcc/pic32mx/4.8.3/../../../../pic32mx/lib\libpic32.a(vector14.o)
                              C:\Users\MIGSAN~1\AppData\Local\Temp\ccowi2wX.o (__vector_dispatch_14)
c:/program files/microchip/xc32/v2.50/bin/bin/../../lib/gcc/pic32mx/4.8.3/../../../../pic32mx/lib\libpic32.a(vector15.o)
                              C:\Users\MIGSAN~1\AppData\Local\Temp\ccowi2wX.o (__vector_dispatch_15)
c:/program files/microchip/xc32/v2.50/bin/bin/../../lib/gcc/pic32mx/4.8.3/../../../../pic32mx/lib\libpic32.a(vector16.o)
                              C:\Users\MIGSAN~1\AppData\Local\Temp\ccowi2wX.o (__vector_dispatch_16)
c:/program files/microchip/xc32/v2.50/bin/bin/../../lib/gcc/pic32mx/4.8.3/../../../../pic32mx/lib\libpic32.a(vector17.o)
                              C:\Users\MIGSAN~1\AppData\Local\Temp\ccowi2wX.o (__vector_dispatch_17)
c:/program files/microchip/xc32/v2.50/bin/bin/../../lib/gcc/pic32mx/4.8.3/../../../../pic32mx/lib\libpic32.a(vector18.o)
                              C:\Users\MIGSAN~1\AppData\Local\Temp\ccowi2wX.o (__vector_dispatch_18)
c:/program files/microchip/xc32/v2.50/bin/bin/../../lib/gcc/pic32mx/4.8.3/../../../../pic32mx/lib\libpic32.a(vector19.o)
                              C:\Users\MIGSAN~1\AppData\Local\Temp\ccowi2wX.o (__vector_dispatch_19)
c:/program files/microchip/xc32/v2.50/bin/bin/../../lib/gcc/pic32mx/4.8.3/../../../../pic32mx/lib\libpic32.a(vector20.o)
                              C:\Users\MIGSAN~1\AppData\Local\Temp\ccowi2wX.o (__vector_dispatch_20)
c:/program files/microchip/xc32/v2.50/bin/bin/../../lib/gcc/pic32mx/4.8.3/../../../../pic32mx/lib\libpic32.a(vector21.o)
                              C:\Users\MIGSAN~1\AppData\Local\Temp\ccowi2wX.o (__vector_dispatch_21)
c:/program files/microchip/xc32/v2.50/bin/bin/../../lib/gcc/pic32mx/4.8.3/../../../../pic32mx/lib\libpic32.a(vector22.o)
                              C:\Users\MIGSAN~1\AppData\Local\Temp\ccowi2wX.o (__vector_dispatch_22)
c:/program files/microchip/xc32/v2.50/bin/bin/../../lib/gcc/pic32mx/4.8.3/../../../../pic32mx/lib\libpic32.a(vector23.o)
                              C:\Users\MIGSAN~1\AppData\Local\Temp\ccowi2wX.o (__vector_dispatch_23)
c:/program files/microchip/xc32/v2.50/bin/bin/../../lib/gcc/pic32mx/4.8.3/../../../../pic32mx/lib\libpic32.a(vector24.o)
                              C:\Users\MIGSAN~1\AppData\Local\Temp\ccowi2wX.o (__vector_dispatch_24)
c:/program files/microchip/xc32/v2.50/bin/bin/../../lib/gcc/pic32mx/4.8.3/../../../../pic32mx/lib\libpic32.a(vector25.o)
                              C:\Users\MIGSAN~1\AppData\Local\Temp\ccowi2wX.o (__vector_dispatch_25)
c:/program files/microchip/xc32/v2.50/bin/bin/../../lib/gcc/pic32mx/4.8.3/../../../../pic32mx/lib\libpic32.a(vector26.o)
                              C:\Users\MIGSAN~1\AppData\Local\Temp\ccowi2wX.o (__vector_dispatch_26)
c:/program files/microchip/xc32/v2.50/bin/bin/../../lib/gcc/pic32mx/4.8.3/../../../../pic32mx/lib\libpic32.a(vector27.o)
                              C:\Users\MIGSAN~1\AppData\Local\Temp\ccowi2wX.o (__vector_dispatch_27)
c:/program files/microchip/xc32/v2.50/bin/bin/../../lib/gcc/pic32mx/4.8.3/../../../../pic32mx/lib\libpic32.a(vector28.o)
                              C:\Users\MIGSAN~1\AppData\Local\Temp\ccowi2wX.o (__vector_dispatch_28)
c:/program files/microchip/xc32/v2.50/bin/bin/../../lib/gcc/pic32mx/4.8.3/../../../../pic32mx/lib\libpic32.a(vector29.o)
                              C:\Users\MIGSAN~1\AppData\Local\Temp\ccowi2wX.o (__vector_dispatch_29)
c:/program files/microchip/xc32/v2.50/bin/bin/../../lib/gcc/pic32mx/4.8.3/../../../../pic32mx/lib\libpic32.a(vector30.o)
                              C:\Users\MIGSAN~1\AppData\Local\Temp\ccowi2wX.o (__vector_dispatch_30)
c:/program files/microchip/xc32/v2.50/bin/bin/../../lib/gcc/pic32mx/4.8.3/../../../../pic32mx/lib\libpic32.a(vector31.o)
                              C:\Users\MIGSAN~1\AppData\Local\Temp\ccowi2wX.o (__vector_dispatch_31)
c:/program files/microchip/xc32/v2.50/bin/bin/../../lib/gcc/pic32mx/4.8.3/../../../../pic32mx/lib\libpic32.a(vector32.o)
                              C:\Users\MIGSAN~1\AppData\Local\Temp\ccowi2wX.o (__vector_dispatch_32)
c:/program files/microchip/xc32/v2.50/bin/bin/../../lib/gcc/pic32mx/4.8.3/../../../../pic32mx/lib\libpic32.a(vector33.o)
                              C:\Users\MIGSAN~1\AppData\Local\Temp\ccowi2wX.o (__vector_dispatch_33)
c:/program files/microchip/xc32/v2.50/bin/bin/../../lib/gcc/pic32mx/4.8.3/../../../../pic32mx/lib\libpic32.a(vector34.o)
                              C:\Users\MIGSAN~1\AppData\Local\Temp\ccowi2wX.o (__vector_dispatch_34)
c:/program files/microchip/xc32/v2.50/bin/bin/../../lib/gcc/pic32mx/4.8.3/../../../../pic32mx/lib\libpic32.a(vector35.o)
                              C:\Users\MIGSAN~1\AppData\Local\Temp\ccowi2wX.o (__vector_dispatch_35)
c:/program files/microchip/xc32/v2.50/bin/bin/../../lib/gcc/pic32mx/4.8.3/../../../../pic32mx/lib\libpic32.a(vector36.o)
                              C:\Users\MIGSAN~1\AppData\Local\Temp\ccowi2wX.o (__vector_dispatch_36)
c:/program files/microchip/xc32/v2.50/bin/bin/../../lib/gcc/pic32mx/4.8.3/../../../../pic32mx/lib\libpic32.a(vector37.o)
                              C:\Users\MIGSAN~1\AppData\Local\Temp\ccowi2wX.o (__vector_dispatch_37)
c:/program files/microchip/xc32/v2.50/bin/bin/../../lib/gcc/pic32mx/4.8.3/../../../../pic32mx/lib\libpic32.a(vector38.o)
                              C:\Users\MIGSAN~1\AppData\Local\Temp\ccowi2wX.o (__vector_dispatch_38)
c:/program files/microchip/xc32/v2.50/bin/bin/../../lib/gcc/pic32mx/4.8.3/../../../../pic32mx/lib\libpic32.a(vector39.o)
                              C:\Users\MIGSAN~1\AppData\Local\Temp\ccowi2wX.o (__vector_dispatch_39)
c:/program files/microchip/xc32/v2.50/bin/bin/../../lib/gcc/pic32mx/4.8.3/../../../../pic32mx/lib\libpic32.a(vector40.o)
                              C:\Users\MIGSAN~1\AppData\Local\Temp\ccowi2wX.o (__vector_dispatch_40)
c:/program files/microchip/xc32/v2.50/bin/bin/../../lib/gcc/pic32mx/4.8.3/../../../../pic32mx/lib\libpic32.a(vector41.o)
                              C:\Users\MIGSAN~1\AppData\Local\Temp\ccowi2wX.o (__vector_dispatch_41)
c:/program files/microchip/xc32/v2.50/bin/bin/../../lib/gcc/pic32mx/4.8.3/../../../../pic32mx/lib\libpic32.a(vector42.o)
                              C:\Users\MIGSAN~1\AppData\Local\Temp\ccowi2wX.o (__vector_dispatch_42)
c:/program files/microchip/xc32/v2.50/bin/bin/../../lib/gcc/pic32mx/4.8.3/../../../../pic32mx/lib\libpic32.a(vector43.o)
                              C:\Users\MIGSAN~1\AppData\Local\Temp\ccowi2wX.o (__vector_dispatch_43)
c:/program files/microchip/xc32/v2.50/bin/bin/../../lib/gcc/pic32mx/4.8.3/../../../../pic32mx/lib\libpic32.a(defaultinterrupt.o)
                              c:/program files/microchip/xc32/v2.50/bin/bin/../../lib/gcc/pic32mx/4.8.3/../../../../pic32mx/lib\libpic32.a(vector0.o) (_DefaultInterrupt)

Allocating common symbols
Common symbol       size              file

appData             0x4               build/default/production/_ext/1360937237/app.o
sysObj              0x0               build/default/production/_ext/1688732426/system_init.o
sysDevconObj        0x8               build/default/production/_ext/340578644/sys_devcon.o

Microchip PIC32 Memory-Usage Report

kseg0 Program-Memory Usage
section                    address  length [bytes]      (dec)  Description
-------                 ----------  -------------------------  -----------
.text.SYS_PORTS_Initial 0x9d000000          0x208         520   
.rodata                 0x9d000208           0xdc         220  Read-only const 
.text.general_exception 0x9d0002e4           0xdc         220   
.text.SYS_DEVCON_Perfor 0x9d0003c0           0x98         152   
.text.SYS_Initialize    0x9d000458           0x84         132   
.text                   0x9d0004dc           0x84         132  App's exec code 
.text.SYS_CLK_Initializ 0x9d000560           0x80         128   
.text.APP_Tasks         0x9d0005e0           0x70         112   
.dinit                  0x9d000650           0x70         112   
.text.SYS_DEVCON_System 0x9d0006c0           0x68         104   
.text.SYS_DEVCON_System 0x9d000728           0x68         104   
.text.PLIB_OSC_PBClockD 0x9d000790           0x60          96   
.text.main_entry        0x9d0007f0           0x54          84   
.text._general_exceptio 0x9d000844           0x4c          76   
.text._bootstrap_except 0x9d000890           0x48          72   
.vector_default         0x9d0008d8           0x48          72   
.text                   0x9d000920           0x44          68  App's exec code 
.text.PLIB_PORTS_Channe 0x9d000964           0x40          64   
.text.SYS_DEVCON_Initia 0x9d0009a4           0x3c          60   
.text.SYS_INT_Initializ 0x9d0009e0           0x34          52   
.text.SYS_Tasks         0x9d000a14           0x30          48   
.text.main              0x9d000a44           0x2c          44   
.text.PLIB_PORTS_RemapI 0x9d000a70           0x2c          44   
.text.PLIB_PORTS_RemapO 0x9d000a9c           0x2c          44   
.text.SYS_CLK_SystemFre 0x9d000ac8           0x28          40   
.text.PLIB_DEVCON_Syste 0x9d000af0           0x28          40   
.text.APP_Initialize    0x9d000b18           0x24          36   
.text.PLIB_INT_Enable   0x9d000b3c           0x24          36   
.text.PLIB_PORTS_Change 0x9d000b60           0x24          36   
.text.PLIB_PORTS_Write  0x9d000b84           0x20          32   
.text.PLIB_PORTS_Direct 0x9d000ba4           0x20          32   
.text.PLIB_PORTS_OpenDr 0x9d000bc4           0x20          32   
.text.PLIB_PORTS_Channe 0x9d000be4           0x20          32   
.text.PLIB_PORTS_Channe 0x9d000c04           0x20          32   
.text.PLIB_PORTS_Channe 0x9d000c24           0x20          32   
.text.PLIB_INT_GetState 0x9d000c44           0x1c          28   
.text.PLIB_DEVCON_Syste 0x9d000c60           0x18          24   
.text.PLIB_OSC_FRCDivis 0x9d000c78           0x18          24   
.text                   0x9d000c90           0x18          24  App's exec code 
.text.PLIB_BMX_DataRamW 0x9d000ca8           0x14          20   
.text.PLIB_INT_MultiVec 0x9d000cbc           0x14          20   
.text.PLIB_OSC_Referenc 0x9d000cd0           0x14          20   
.text.PLIB_OSC_Referenc 0x9d000ce4           0x14          20   
.text.PLIB_BMX_ExistsDa 0x9d000cf8            0x8           8   
.text._on_reset         0x9d000d00            0x8           8   
.text._on_bootstrap     0x9d000d08            0x8           8   
      Total kseg0_program_mem used  :       0xd10        3344  5.4% of 0xf000

kseg0 Boot-Memory Usage
section                    address  length [bytes]      (dec)  Description
-------                 ----------  -------------------------  -----------
         Total kseg0_boot_mem used  :           0           0  

Exception-Memory Usage 
section                    address  length [bytes]      (dec)  Description
-------                 ----------  -------------------------  -----------
.app_excpt              0x9d00f180           0x10          16  General-Exception 
.vector_0               0x9d00f200            0x8           8  Interrupt Vector 0 
.vector_1               0x9d00f220            0x8           8  Interrupt Vector 1 
.vector_2               0x9d00f240            0x8           8  Interrupt Vector 2 
.vector_3               0x9d00f260            0x8           8  Interrupt Vector 3 
.vector_4               0x9d00f280            0x8           8  Interrupt Vector 4 
.vector_5               0x9d00f2a0            0x8           8  Interrupt Vector 5 
.vector_6               0x9d00f2c0            0x8           8  Interrupt Vector 6 
.vector_7               0x9d00f2e0            0x8           8  Interrupt Vector 7 
.vector_8               0x9d00f300            0x8           8  Interrupt Vector 8 
.vector_9               0x9d00f320            0x8           8  Interrupt Vector 9 
.vector_10              0x9d00f340            0x8           8  Interrupt Vector 10 
.vector_11              0x9d00f360            0x8           8  Interrupt Vector 11 
.vector_12              0x9d00f380            0x8           8  Interrupt Vector 12 
.vector_13              0x9d00f3a0            0x8           8  Interrupt Vector 13 
.vector_14              0x9d00f3c0            0x8           8  Interrupt Vector 14 
.vector_15              0x9d00f3e0            0x8           8  Interrupt Vector 15 
.vector_16              0x9d00f400            0x8           8  Interrupt Vector 16 
.vector_17              0x9d00f420            0x8           8  Interrupt Vector 17 
.vector_18              0x9d00f440            0x8           8  Interrupt Vector 18 
.vector_19              0x9d00f460            0x8           8  Interrupt Vector 19 
.vector_20              0x9d00f480            0x8           8  Interrupt Vector 20 
.vector_21              0x9d00f4a0            0x8           8  Interrupt Vector 21 
.vector_22              0x9d00f4c0            0x8           8  Interrupt Vector 22 
.vector_23              0x9d00f4e0            0x8           8  Interrupt Vector 23 
.vector_24              0x9d00f500            0x8           8  Interrupt Vector 24 
.vector_25              0x9d00f520            0x8           8  Interrupt Vector 25 
.vector_26              0x9d00f540            0x8           8  Interrupt Vector 26 
.vector_27              0x9d00f560            0x8           8  Interrupt Vector 27 
.vector_28              0x9d00f580            0x8           8  Interrupt Vector 28 
.vector_29              0x9d00f5a0            0x8           8  Interrupt Vector 29 
.vector_30              0x9d00f5c0            0x8           8  Interrupt Vector 30 
.vector_31              0x9d00f5e0            0x8           8  Interrupt Vector 31 
.vector_32              0x9d00f600            0x8           8  Interrupt Vector 32 
.vector_33              0x9d00f620            0x8           8  Interrupt Vector 33 
.vector_34              0x9d00f640            0x8           8  Interrupt Vector 34 
.vector_35              0x9d00f660            0x8           8  Interrupt Vector 35 
.vector_36              0x9d00f680            0x8           8  Interrupt Vector 36 
.vector_37              0x9d00f6a0            0x8           8  Interrupt Vector 37 
.vector_38              0x9d00f6c0            0x8           8  Interrupt Vector 38 
.vector_39              0x9d00f6e0            0x8           8  Interrupt Vector 39 
.vector_40              0x9d00f700            0x8           8  Interrupt Vector 40 
.vector_41              0x9d00f720            0x8           8  Interrupt Vector 41 
.vector_42              0x9d00f740            0x8           8  Interrupt Vector 42 
.vector_43              0x9d00f760            0x8           8  Interrupt Vector 43 
          Total exception_mem used  :       0x170         368  9.0% of 0x1000

kseg1 Boot-Memory Usage
section                    address  length [bytes]      (dec)  Description
-------                 ----------  -------------------------  -----------
.reset                  0xbfc00000          0x178         376  Reset handler 
.bev_excpt              0xbfc00380           0x10          16  BEV-Exception 
         Total kseg1_boot_mem used  :       0x188         392  33.6% of 0x490
        --------------------------------------------------------------------------
         Total Program Memory used  :      0x1008        4104  6.2% of 0x10490
        --------------------------------------------------------------------------


kseg1 Data-Memory Usage
section                    address  length [bytes]      (dec)  Description
-------                 ----------  -------------------------  -----------
.sbss                   0xa0000000           0x18          24  Small uninit data 
.data                   0xa0000018           0x4c          76  Initialized data 
         Total kseg1_data_mem used  :        0x64         100  0.6% of 0x4000
        --------------------------------------------------------------------------
            Total Data Memory used  :        0x64         100  0.6% of 0x4000
        --------------------------------------------------------------------------


Dynamic Data-Memory Reservation
section                    address  length [bytes]      (dec)  Description
-------                 ----------  -------------------------  -----------
heap                    0xa0000068              0           0  Reserved for heap 
stack                   0xa0000080         0x3f70       16240  Reserved for stack 

        --------------------------------------------------------------------------

Discarded input sections

 .text          0x00000000        0x0 c:/program files/microchip/xc32/v2.50/bin/bin/../../lib/gcc/pic32mx/4.8.3/../../../../pic32mx/lib\debug-exception-return.o
 .data          0x00000000        0x0 c:/program files/microchip/xc32/v2.50/bin/bin/../../lib/gcc/pic32mx/4.8.3/../../../../pic32mx/lib\debug-exception-return.o
 .bss           0x00000000        0x0 c:/program files/microchip/xc32/v2.50/bin/bin/../../lib/gcc/pic32mx/4.8.3/../../../../pic32mx/lib\debug-exception-return.o
 .text          0x00000000        0x0 build/default/production/_ext/1360937237/app.o
 .data          0x00000000        0x0 build/default/production/_ext/1360937237/app.o
 .bss           0x00000000        0x0 build/default/production/_ext/1360937237/app.o
 .reginfo       0x00000000       0x18 build/default/production/_ext/1360937237/app.o
 .text          0x00000000        0x0 build/default/production/_ext/1360937237/main.o
 .data          0x00000000        0x0 build/default/production/_ext/1360937237/main.o
 .bss           0x00000000        0x0 build/default/production/_ext/1360937237/main.o
 .reginfo       0x00000000       0x18 build/default/production/_ext/1360937237/main.o
 .text          0x00000000        0x0 build/default/production/_ext/1872847683/sys_int_pic32.o
 .data          0x00000000        0x0 build/default/production/_ext/1872847683/sys_int_pic32.o
 .bss           0x00000000        0x0 build/default/production/_ext/1872847683/sys_int_pic32.o
 .reginfo       0x00000000       0x18 build/default/production/_ext/1872847683/sys_int_pic32.o
 .text.SYS_INT_StatusGetAndDisable
                0x00000000       0x3c build/default/production/_ext/1872847683/sys_int_pic32.o
 .text.SYS_INT_StatusRestore
                0x00000000       0x38 build/default/production/_ext/1872847683/sys_int_pic32.o
 .text.SYS_INT_Disable
                0x00000000       0x48 build/default/production/_ext/1872847683/sys_int_pic32.o
 .text.SYS_INT_SourceDisable
                0x00000000       0x70 build/default/production/_ext/1872847683/sys_int_pic32.o
 .text.SYS_INT_ExternalInterruptTriggerSet
                0x00000000       0x68 build/default/production/_ext/1872847683/sys_int_pic32.o
 .text          0x00000000        0x0 build/default/production/_ext/639803181/sys_clk_pic32mx.o
 .data          0x00000000        0x0 build/default/production/_ext/639803181/sys_clk_pic32mx.o
 .bss           0x00000000        0x0 build/default/production/_ext/639803181/sys_clk_pic32mx.o
 .reginfo       0x00000000       0x18 build/default/production/_ext/639803181/sys_clk_pic32mx.o
 .text.SYS_CLK_PeripheralFrequencyGet
                0x00000000       0x2c build/default/production/_ext/639803181/sys_clk_pic32mx.o
 .text.SYS_CLK_ReferenceFrequencyGet
                0x00000000       0x28 build/default/production/_ext/639803181/sys_clk_pic32mx.o
 .text.SYS_CLK_SecondaryOscillatorEnable
                0x00000000       0x60 build/default/production/_ext/639803181/sys_clk_pic32mx.o
 .text.SYS_CLK_SecondaryOscillatorDisable
                0x00000000       0x58 build/default/production/_ext/639803181/sys_clk_pic32mx.o
 .text.SYS_CLK_SecondaryOscillatorIsEnabled
                0x00000000       0x34 build/default/production/_ext/639803181/sys_clk_pic32mx.o
 .text          0x00000000        0x0 build/default/production/_ext/340578644/sys_devcon.o
 .data          0x00000000        0x0 build/default/production/_ext/340578644/sys_devcon.o
 .bss           0x00000000        0x0 build/default/production/_ext/340578644/sys_devcon.o
 .reginfo       0x00000000       0x18 build/default/production/_ext/340578644/sys_devcon.o
 .text.SYS_DEVCON_Reinitialize
                0x00000000       0x34 build/default/production/_ext/340578644/sys_devcon.o
 .text.SYS_DEVCON_Deinitialize
                0x00000000       0x28 build/default/production/_ext/340578644/sys_devcon.o
 .text.SYS_DEVCON_Status
                0x00000000       0x28 build/default/production/_ext/340578644/sys_devcon.o
 .text.SYS_DEVCON_Tasks
                0x00000000       0x28 build/default/production/_ext/340578644/sys_devcon.o
 .text.SYS_DEVCON_JTAGEnable
                0x00000000       0x34 build/default/production/_ext/340578644/sys_devcon.o
 .text.SYS_DEVCON_JTAGDisable
                0x00000000       0x34 build/default/production/_ext/340578644/sys_devcon.o
 .text.SYS_DEVCON_TraceEnable
                0x00000000       0x20 build/default/production/_ext/340578644/sys_devcon.o
 .text.SYS_DEVCON_TraceDisable
                0x00000000       0x20 build/default/production/_ext/340578644/sys_devcon.o
 .text.SYS_DEVCON_PowerModeEnter
                0x00000000       0x98 build/default/production/_ext/340578644/sys_devcon.o
 .text          0x00000000        0x0 build/default/production/_ext/340578644/sys_devcon_pic32mx.o
 .data          0x00000000        0x0 build/default/production/_ext/340578644/sys_devcon_pic32mx.o
 .bss           0x00000000        0x0 build/default/production/_ext/340578644/sys_devcon_pic32mx.o
 .reginfo       0x00000000       0x18 build/default/production/_ext/340578644/sys_devcon_pic32mx.o
 .text          0x00000000        0x0 build/default/production/_ext/822048611/sys_ports_static.o
 .data          0x00000000        0x0 build/default/production/_ext/822048611/sys_ports_static.o
 .bss           0x00000000        0x0 build/default/production/_ext/822048611/sys_ports_static.o
 .reginfo       0x00000000       0x18 build/default/production/_ext/822048611/sys_ports_static.o
 .text.SYS_PORTS_Read
                0x00000000       0x40 build/default/production/_ext/822048611/sys_ports_static.o
 .text.SYS_PORTS_Write
                0x00000000       0x48 build/default/production/_ext/822048611/sys_ports_static.o
 .text.SYS_PORTS_LatchedGet
                0x00000000       0x2c build/default/production/_ext/822048611/sys_ports_static.o
 .text.SYS_PORTS_Set
                0x00000000       0x58 build/default/production/_ext/822048611/sys_ports_static.o
 .text.SYS_PORTS_Clear
                0x00000000       0x50 build/default/production/_ext/822048611/sys_ports_static.o
 .text.SYS_PORTS_DirectionSelect
                0x00000000       0x84 build/default/production/_ext/822048611/sys_ports_static.o
 .text.SYS_PORTS_DirectionGet
                0x00000000       0x40 build/default/production/_ext/822048611/sys_ports_static.o
 .text.SYS_PORTS_Toggle
                0x00000000       0x50 build/default/production/_ext/822048611/sys_ports_static.o
 .text.SYS_PORTS_OpenDrainEnable
                0x00000000       0x64 build/default/production/_ext/822048611/sys_ports_static.o
 .text.SYS_PORTS_OpenDrainDisable
                0x00000000       0x64 build/default/production/_ext/822048611/sys_ports_static.o
 .text.SYS_PORTS_InterruptStatusGet
                0x00000000       0x2c build/default/production/_ext/822048611/sys_ports_static.o
 .text.SYS_PORTS_ChangeNotificationGlobalEnable
                0x00000000       0x24 build/default/production/_ext/822048611/sys_ports_static.o
 .text.SYS_PORTS_ChangeNotificationGlobalDisable
                0x00000000       0x24 build/default/production/_ext/822048611/sys_ports_static.o
 .text.SYS_PORTS_GlobalChangeNotificationDisable
                0x00000000       0x24 build/default/production/_ext/822048611/sys_ports_static.o
 .text.SYS_PORTS_ChangeNotificationEnable
                0x00000000       0x2c build/default/production/_ext/822048611/sys_ports_static.o
 .text.SYS_PORTS_ChangeNotificationDisable
                0x00000000       0x28 build/default/production/_ext/822048611/sys_ports_static.o
 .text.SYS_PORTS_ChangeNotificationInIdleModeEnable
                0x00000000       0x24 build/default/production/_ext/822048611/sys_ports_static.o
 .text.SYS_PORTS_ChangeNotificationInIdleModeDisable
                0x00000000       0x24 build/default/production/_ext/822048611/sys_ports_static.o
 .text.SYS_PORTS_ChangeNotificationPullUpEnable
                0x00000000       0x28 build/default/production/_ext/822048611/sys_ports_static.o
 .text.SYS_PORTS_ChangeNotificationPullUpDisable
                0x00000000       0x28 build/default/production/_ext/822048611/sys_ports_static.o
 .text.SYS_PORTS_PinModeSelect
                0x00000000       0x5c build/default/production/_ext/822048611/sys_ports_static.o
 .text.SYS_PORTS_PinWrite
                0x00000000       0x58 build/default/production/_ext/822048611/sys_ports_static.o
 .text.SYS_PORTS_PinLatchedGet
                0x00000000       0x30 build/default/production/_ext/822048611/sys_ports_static.o
 .text.SYS_PORTS_PinRead
                0x00000000       0x48 build/default/production/_ext/822048611/sys_ports_static.o
 .text.SYS_PORTS_PinToggle
                0x00000000       0x48 build/default/production/_ext/822048611/sys_ports_static.o
 .text.SYS_PORTS_PinSet
                0x00000000       0x48 build/default/production/_ext/822048611/sys_ports_static.o
 .text.SYS_PORTS_PinClear
                0x00000000       0x48 build/default/production/_ext/822048611/sys_ports_static.o
 .text.SYS_PORTS_PinDirectionSelect
                0x00000000       0x74 build/default/production/_ext/822048611/sys_ports_static.o
 .text.SYS_PORTS_PinOpenDrainEnable
                0x00000000       0x5c build/default/production/_ext/822048611/sys_ports_static.o
 .text.SYS_PORTS_PinOpenDrainDisable
                0x00000000       0x5c build/default/production/_ext/822048611/sys_ports_static.o
 .text.SYS_PORTS_PinPullUpEnable
                0x00000000       0x30 build/default/production/_ext/822048611/sys_ports_static.o
 .text.SYS_PORTS_PinPullUpDisable
                0x00000000       0x30 build/default/production/_ext/822048611/sys_ports_static.o
 .text.SYS_PORTS_PinPullDownEnable
                0x00000000       0x30 build/default/production/_ext/822048611/sys_ports_static.o
 .text.SYS_PORTS_PinPullDownDisable
                0x00000000       0x30 build/default/production/_ext/822048611/sys_ports_static.o
 .text.SYS_PORTS_InterruptEnable
                0x00000000       0x34 build/default/production/_ext/822048611/sys_ports_static.o
 .text.SYS_PORTS_RemapInput
                0x00000000       0x78 build/default/production/_ext/822048611/sys_ports_static.o
 .text.SYS_PORTS_RemapOutput
                0x00000000       0x78 build/default/production/_ext/822048611/sys_ports_static.o
 .text          0x00000000        0x0 build/default/production/_ext/1688732426/system_init.o
 .data          0x00000000        0x0 build/default/production/_ext/1688732426/system_init.o
 .bss           0x00000000        0x0 build/default/production/_ext/1688732426/system_init.o
 .reginfo       0x00000000       0x18 build/default/production/_ext/1688732426/system_init.o
 .text          0x00000000        0x0 build/default/production/_ext/1688732426/system_interrupt.o
 .data          0x00000000        0x0 build/default/production/_ext/1688732426/system_interrupt.o
 .bss           0x00000000        0x0 build/default/production/_ext/1688732426/system_interrupt.o
 .reginfo       0x00000000       0x18 build/default/production/_ext/1688732426/system_interrupt.o
 .text          0x00000000        0x0 build/default/production/_ext/1688732426/system_exceptions.o
 .bss           0x00000000        0x0 build/default/production/_ext/1688732426/system_exceptions.o
 .reginfo       0x00000000       0x18 build/default/production/_ext/1688732426/system_exceptions.o
 .text          0x00000000        0x0 build/default/production/_ext/1688732426/system_tasks.o
 .data          0x00000000        0x0 build/default/production/_ext/1688732426/system_tasks.o
 .bss           0x00000000        0x0 build/default/production/_ext/1688732426/system_tasks.o
 .reginfo       0x00000000       0x18 build/default/production/_ext/1688732426/system_tasks.o
 .text          0x00000000        0x0 ..\..\..\..\..\..\..\..\microchip\harmony\v2_06\bin\framework\peripheral\PIC32MX130F064B_peripherals.a(peripheral.o)
 .data          0x00000000        0x0 ..\..\..\..\..\..\..\..\microchip\harmony\v2_06\bin\framework\peripheral\PIC32MX130F064B_peripherals.a(peripheral.o)
 .bss           0x00000000        0x0 ..\..\..\..\..\..\..\..\microchip\harmony\v2_06\bin\framework\peripheral\PIC32MX130F064B_peripherals.a(peripheral.o)
 .reginfo       0x00000000       0x18 ..\..\..\..\..\..\..\..\microchip\harmony\v2_06\bin\framework\peripheral\PIC32MX130F064B_peripherals.a(peripheral.o)
 .text.PLIB_ADC_Enable
                0x00000000       0x18 ..\..\..\..\..\..\..\..\microchip\harmony\v2_06\bin\framework\peripheral\PIC32MX130F064B_peripherals.a(peripheral.o)
 .text.PLIB_ADC_Disable
                0x00000000       0x14 ..\..\..\..\..\..\..\..\microchip\harmony\v2_06\bin\framework\peripheral\PIC32MX130F064B_peripherals.a(peripheral.o)
 .text.PLIB_ADC_ExistsEnableControl
                0x00000000        0x8 ..\..\..\..\..\..\..\..\microchip\harmony\v2_06\bin\framework\peripheral\PIC32MX130F064B_peripherals.a(peripheral.o)
 .text.PLIB_ADC_StopInIdleEnable
                0x00000000       0x10 ..\..\..\..\..\..\..\..\microchip\harmony\v2_06\bin\framework\peripheral\PIC32MX130F064B_peripherals.a(peripheral.o)
 .text.PLIB_ADC_StopInIdleDisable
                0x00000000       0x10 ..\..\..\..\..\..\..\..\microchip\harmony\v2_06\bin\framework\peripheral\PIC32MX130F064B_peripherals.a(peripheral.o)
 .text.PLIB_ADC_ExistsStopInIdleControl
                0x00000000        0x8 ..\..\..\..\..\..\..\..\microchip\harmony\v2_06\bin\framework\peripheral\PIC32MX130F064B_peripherals.a(peripheral.o)
 .text.PLIB_ADC_CalibrationEnable
                0x00000000       0x10 ..\..\..\..\..\..\..\..\microchip\harmony\v2_06\bin\framework\peripheral\PIC32MX130F064B_peripherals.a(peripheral.o)
 .text.PLIB_ADC_CalibrationDisable
                0x00000000       0x10 ..\..\..\..\..\..\..\..\microchip\harmony\v2_06\bin\framework\peripheral\PIC32MX130F064B_peripherals.a(peripheral.o)
 .text.PLIB_ADC_ExistsCalibrationControl
                0x00000000        0x8 ..\..\..\..\..\..\..\..\microchip\harmony\v2_06\bin\framework\peripheral\PIC32MX130F064B_peripherals.a(peripheral.o)
 .text.PLIB_ADC_InputScanMaskAdd
                0x00000000       0x14 ..\..\..\..\..\..\..\..\microchip\harmony\v2_06\bin\framework\peripheral\PIC32MX130F064B_peripherals.a(peripheral.o)
 .text.PLIB_ADC_InputScanMaskRemove
                0x00000000        0xc ..\..\..\..\..\..\..\..\microchip\harmony\v2_06\bin\framework\peripheral\PIC32MX130F064B_peripherals.a(peripheral.o)
 .text.PLIB_ADC_ExistsMuxInputScanSelect
                0x00000000        0x8 ..\..\..\..\..\..\..\..\microchip\harmony\v2_06\bin\framework\peripheral\PIC32MX130F064B_peripherals.a(peripheral.o)
 .text.PLIB_ADC_InputScanMaskAddExtended
                0x00000000        0x8 ..\..\..\..\..\..\..\..\microchip\harmony\v2_06\bin\framework\peripheral\PIC32MX130F064B_peripherals.a(peripheral.o)
 .text.PLIB_ADC_InputScanMaskRemoveExtended
                0x00000000        0x8 ..\..\..\..\..\..\..\..\microchip\harmony\v2_06\bin\framework\peripheral\PIC32MX130F064B_peripherals.a(peripheral.o)
 .text.PLIB_ADC_ExistsMuxInputScanSelectExtended
                0x00000000        0x8 ..\..\..\..\..\..\..\..\microchip\harmony\v2_06\bin\framework\peripheral\PIC32MX130F064B_peripherals.a(peripheral.o)
 .text.PLIB_ADC_VoltageReferenceSelect
                0x00000000       0x14 ..\..\..\..\..\..\..\..\microchip\harmony\v2_06\bin\framework\peripheral\PIC32MX130F064B_peripherals.a(peripheral.o)
 .text.PLIB_ADC_ExistsVoltageReference
                0x00000000        0x8 ..\..\..\..\..\..\..\..\microchip\harmony\v2_06\bin\framework\peripheral\PIC32MX130F064B_peripherals.a(peripheral.o)
 .text.PLIB_ADC_MuxChannel0InputPositiveSelect
                0x00000000       0x34 ..\..\..\..\..\..\..\..\microchip\harmony\v2_06\bin\framework\peripheral\PIC32MX130F064B_peripherals.a(peripheral.o)
 .text.PLIB_ADC_ExistsMuxChannel0PositiveInput
                0x00000000        0x8 ..\..\..\..\..\..\..\..\microchip\harmony\v2_06\bin\framework\peripheral\PIC32MX130F064B_peripherals.a(peripheral.o)
 .text.PLIB_ADC_MuxChannel0InputNegativeSelect
                0x00000000       0x34 ..\..\..\..\..\..\..\..\microchip\harmony\v2_06\bin\framework\peripheral\PIC32MX130F064B_peripherals.a(peripheral.o)
 .text.PLIB_ADC_ExistsMuxChannel0NegativeInput
                0x00000000        0x8 ..\..\..\..\..\..\..\..\microchip\harmony\v2_06\bin\framework\peripheral\PIC32MX130F064B_peripherals.a(peripheral.o)
 .text.PLIB_ADC_MuxAInputScanEnable
                0x00000000       0x10 ..\..\..\..\..\..\..\..\microchip\harmony\v2_06\bin\framework\peripheral\PIC32MX130F064B_peripherals.a(peripheral.o)
 .text.PLIB_ADC_MuxAInputScanDisable
                0x00000000       0x10 ..\..\..\..\..\..\..\..\microchip\harmony\v2_06\bin\framework\peripheral\PIC32MX130F064B_peripherals.a(peripheral.o)
 .text.PLIB_ADC_ExistsMuxInputScanControl
                0x00000000        0x8 ..\..\..\..\..\..\..\..\microchip\harmony\v2_06\bin\framework\peripheral\PIC32MX130F064B_peripherals.a(peripheral.o)
 .text.PLIB_ADC_SamplingModeSelect
                0x00000000       0x14 ..\..\..\..\..\..\..\..\microchip\harmony\v2_06\bin\framework\peripheral\PIC32MX130F064B_peripherals.a(peripheral.o)
 .text.PLIB_ADC_ExistsSamplingModeControl
                0x00000000        0x8 ..\..\..\..\..\..\..\..\microchip\harmony\v2_06\bin\framework\peripheral\PIC32MX130F064B_peripherals.a(peripheral.o)
 .text.PLIB_ADC_SamplesPerInterruptSelect
                0x00000000       0x14 ..\..\..\..\..\..\..\..\microchip\harmony\v2_06\bin\framework\peripheral\PIC32MX130F064B_peripherals.a(peripheral.o)
 .text.PLIB_ADC_ExistsSamplesPerInterruptSelect
                0x00000000        0x8 ..\..\..\..\..\..\..\..\microchip\harmony\v2_06\bin\framework\peripheral\PIC32MX130F064B_peripherals.a(peripheral.o)
 .text.PLIB_ADC_SampleAutoStartEnable
                0x00000000       0x10 ..\..\..\..\..\..\..\..\microchip\harmony\v2_06\bin\framework\peripheral\PIC32MX130F064B_peripherals.a(peripheral.o)
 .text.PLIB_ADC_SampleAutoStartDisable
                0x00000000       0x10 ..\..\..\..\..\..\..\..\microchip\harmony\v2_06\bin\framework\peripheral\PIC32MX130F064B_peripherals.a(peripheral.o)
 .text.PLIB_ADC_ExistsSamplingAutoStart
                0x00000000        0x8 ..\..\..\..\..\..\..\..\microchip\harmony\v2_06\bin\framework\peripheral\PIC32MX130F064B_peripherals.a(peripheral.o)
 .text.PLIB_ADC_SamplingStart
                0x00000000       0x10 ..\..\..\..\..\..\..\..\microchip\harmony\v2_06\bin\framework\peripheral\PIC32MX130F064B_peripherals.a(peripheral.o)
 .text.PLIB_ADC_SamplingStop
                0x00000000       0x10 ..\..\..\..\..\..\..\..\microchip\harmony\v2_06\bin\framework\peripheral\PIC32MX130F064B_peripherals.a(peripheral.o)
 .text.PLIB_ADC_ExistsSamplingControl
                0x00000000        0x8 ..\..\..\..\..\..\..\..\microchip\harmony\v2_06\bin\framework\peripheral\PIC32MX130F064B_peripherals.a(peripheral.o)
 .text.PLIB_ADC_SampleAcquisitionTimeSet
                0x00000000       0x14 ..\..\..\..\..\..\..\..\microchip\harmony\v2_06\bin\framework\peripheral\PIC32MX130F064B_peripherals.a(peripheral.o)
 .text.PLIB_ADC_ExistsSamplingAcquisitionTime
                0x00000000        0x8 ..\..\..\..\..\..\..\..\microchip\harmony\v2_06\bin\framework\peripheral\PIC32MX130F064B_peripherals.a(peripheral.o)
 .text.PLIB_ADC_SamplingIsActive
                0x00000000        0xc ..\..\..\..\..\..\..\..\microchip\harmony\v2_06\bin\framework\peripheral\PIC32MX130F064B_peripherals.a(peripheral.o)
 .text.PLIB_ADC_ExistsSamplingStatus
                0x00000000        0x8 ..\..\..\..\..\..\..\..\microchip\harmony\v2_06\bin\framework\peripheral\PIC32MX130F064B_peripherals.a(peripheral.o)
 .text.PLIB_ADC_ConversionStart
                0x00000000       0x10 ..\..\..\..\..\..\..\..\microchip\harmony\v2_06\bin\framework\peripheral\PIC32MX130F064B_peripherals.a(peripheral.o)
 .text.PLIB_ADC_ExistsConversionControl
                0x00000000        0x8 ..\..\..\..\..\..\..\..\microchip\harmony\v2_06\bin\framework\peripheral\PIC32MX130F064B_peripherals.a(peripheral.o)
 .text.PLIB_ADC_ConversionClockSet
                0x00000000       0x24 ..\..\..\..\..\..\..\..\microchip\harmony\v2_06\bin\framework\peripheral\PIC32MX130F064B_peripherals.a(peripheral.o)
 .text.PLIB_ADC_ConversionClockGet
                0x00000000       0x20 ..\..\..\..\..\..\..\..\microchip\harmony\v2_06\bin\framework\peripheral\PIC32MX130F064B_peripherals.a(peripheral.o)
 .text.PLIB_ADC_ExistsConversionClock
                0x00000000        0x8 ..\..\..\..\..\..\..\..\microchip\harmony\v2_06\bin\framework\peripheral\PIC32MX130F064B_peripherals.a(peripheral.o)
 .text.PLIB_ADC_ConversionClockSourceSelect
                0x00000000       0x14 ..\..\..\..\..\..\..\..\microchip\harmony\v2_06\bin\framework\peripheral\PIC32MX130F064B_peripherals.a(peripheral.o)
 .text.PLIB_ADC_ExistsConversionClockSource
                0x00000000        0x8 ..\..\..\..\..\..\..\..\microchip\harmony\v2_06\bin\framework\peripheral\PIC32MX130F064B_peripherals.a(peripheral.o)
 .text.PLIB_ADC_ConversionTriggerSourceSelect
                0x00000000       0x14 ..\..\..\..\..\..\..\..\microchip\harmony\v2_06\bin\framework\peripheral\PIC32MX130F064B_peripherals.a(peripheral.o)
 .text.PLIB_ADC_ExistsConversionTriggerSource
                0x00000000        0x8 ..\..\..\..\..\..\..\..\microchip\harmony\v2_06\bin\framework\peripheral\PIC32MX130F064B_peripherals.a(peripheral.o)
 .text.PLIB_ADC_ConversionStopSequenceEnable
                0x00000000       0x10 ..\..\..\..\..\..\..\..\microchip\harmony\v2_06\bin\framework\peripheral\PIC32MX130F064B_peripherals.a(peripheral.o)
 .text.PLIB_ADC_ConversionStopSequenceDisable
                0x00000000       0x10 ..\..\..\..\..\..\..\..\microchip\harmony\v2_06\bin\framework\peripheral\PIC32MX130F064B_peripherals.a(peripheral.o)
 .text.PLIB_ADC_ExistsConversionStopSequenceControl
                0x00000000        0x8 ..\..\..\..\..\..\..\..\microchip\harmony\v2_06\bin\framework\peripheral\PIC32MX130F064B_peripherals.a(peripheral.o)
 .text.PLIB_ADC_ConversionHasCompleted
                0x00000000        0xc ..\..\..\..\..\..\..\..\microchip\harmony\v2_06\bin\framework\peripheral\PIC32MX130F064B_peripherals.a(peripheral.o)
 .text.PLIB_ADC_ExistsConversionStatus
                0x00000000        0x8 ..\..\..\..\..\..\..\..\microchip\harmony\v2_06\bin\framework\peripheral\PIC32MX130F064B_peripherals.a(peripheral.o)
 .text.PLIB_ADC_ResultFormatSelect
                0x00000000       0x14 ..\..\..\..\..\..\..\..\microchip\harmony\v2_06\bin\framework\peripheral\PIC32MX130F064B_peripherals.a(peripheral.o)
 .text.PLIB_ADC_ExistsResultFormat
                0x00000000        0x8 ..\..\..\..\..\..\..\..\microchip\harmony\v2_06\bin\framework\peripheral\PIC32MX130F064B_peripherals.a(peripheral.o)
 .text.PLIB_ADC_ResultBufferModeSelect
                0x00000000       0x14 ..\..\..\..\..\..\..\..\microchip\harmony\v2_06\bin\framework\peripheral\PIC32MX130F064B_peripherals.a(peripheral.o)
 .text.PLIB_ADC_ExistsResultBufferMode
                0x00000000        0x8 ..\..\..\..\..\..\..\..\microchip\harmony\v2_06\bin\framework\peripheral\PIC32MX130F064B_peripherals.a(peripheral.o)
 .text.PLIB_ADC_ResultBufferStatusGet
                0x00000000        0xc ..\..\..\..\..\..\..\..\microchip\harmony\v2_06\bin\framework\peripheral\PIC32MX130F064B_peripherals.a(peripheral.o)
 .text.PLIB_ADC_ExistsResultBufferFillStatus
                0x00000000        0x8 ..\..\..\..\..\..\..\..\microchip\harmony\v2_06\bin\framework\peripheral\PIC32MX130F064B_peripherals.a(peripheral.o)
 .text.PLIB_ADC_ResultGetByIndex
                0x00000000       0x18 ..\..\..\..\..\..\..\..\microchip\harmony\v2_06\bin\framework\peripheral\PIC32MX130F064B_peripherals.a(peripheral.o)
 .text.PLIB_ADC_ExistsResultGetByIndex
                0x00000000        0x8 ..\..\..\..\..\..\..\..\microchip\harmony\v2_06\bin\framework\peripheral\PIC32MX130F064B_peripherals.a(peripheral.o)
 .text.PLIB_ADCP_Enable
                0x00000000        0x8 ..\..\..\..\..\..\..\..\microchip\harmony\v2_06\bin\framework\peripheral\PIC32MX130F064B_peripherals.a(peripheral.o)
 .text.PLIB_ADCP_Disable
                0x00000000        0x8 ..\..\..\..\..\..\..\..\microchip\harmony\v2_06\bin\framework\peripheral\PIC32MX130F064B_peripherals.a(peripheral.o)
 .text.PLIB_ADCP_ExistsEnableControl
                0x00000000        0x8 ..\..\..\..\..\..\..\..\microchip\harmony\v2_06\bin\framework\peripheral\PIC32MX130F064B_peripherals.a(peripheral.o)
 .text.PLIB_ADCP_CalibrationStart
                0x00000000        0x8 ..\..\..\..\..\..\..\..\microchip\harmony\v2_06\bin\framework\peripheral\PIC32MX130F064B_peripherals.a(peripheral.o)
 .text.PLIB_ADCP_ExistsCalibration
                0x00000000        0x8 ..\..\..\..\..\..\..\..\microchip\harmony\v2_06\bin\framework\peripheral\PIC32MX130F064B_peripherals.a(peripheral.o)
 .text.PLIB_ADCP_Configure
                0x00000000        0x8 ..\..\..\..\..\..\..\..\microchip\harmony\v2_06\bin\framework\peripheral\PIC32MX130F064B_peripherals.a(peripheral.o)
 .text.PLIB_ADCP_ExistsConfiguration
                0x00000000        0x8 ..\..\..\..\..\..\..\..\microchip\harmony\v2_06\bin\framework\peripheral\PIC32MX130F064B_peripherals.a(peripheral.o)
 .text.PLIB_ADCP_LowPowerStateEnter
                0x00000000        0x8 ..\..\..\..\..\..\..\..\microchip\harmony\v2_06\bin\framework\peripheral\PIC32MX130F064B_peripherals.a(peripheral.o)
 .text.PLIB_ADCP_LowPowerStateExit
                0x00000000        0x8 ..\..\..\..\..\..\..\..\microchip\harmony\v2_06\bin\framework\peripheral\PIC32MX130F064B_peripherals.a(peripheral.o)
 .text.PLIB_ADCP_LowPowerStateGet
                0x00000000        0x8 ..\..\..\..\..\..\..\..\microchip\harmony\v2_06\bin\framework\peripheral\PIC32MX130F064B_peripherals.a(peripheral.o)
 .text.PLIB_ADCP_ExistsLowPowerControl
                0x00000000        0x8 ..\..\..\..\..\..\..\..\microchip\harmony\v2_06\bin\framework\peripheral\PIC32MX130F064B_peripherals.a(peripheral.o)
 .text.PLIB_ADCP_ModuleIsReady
                0x00000000        0x8 ..\..\..\..\..\..\..\..\microchip\harmony\v2_06\bin\framework\peripheral\PIC32MX130F064B_peripherals.a(peripheral.o)
 .text.PLIB_ADCP_ExistsReadyStatus
                0x00000000        0x8 ..\..\..\..\..\..\..\..\microchip\harmony\v2_06\bin\framework\peripheral\PIC32MX130F064B_peripherals.a(peripheral.o)
 .text.PLIB_ADCP_AlternateInputSelect
                0x00000000        0x8 ..\..\..\..\..\..\..\..\microchip\harmony\v2_06\bin\framework\peripheral\PIC32MX130F064B_peripherals.a(peripheral.o)
 .text.PLIB_ADCP_DefaultInputSelect
                0x00000000        0x8 ..\..\..\..\..\..\..\..\microchip\harmony\v2_06\bin\framework\peripheral\PIC32MX130F064B_peripherals.a(peripheral.o)
 .text.PLIB_ADCP_ExistsInputSelect
                0x00000000        0x8 ..\..\..\..\..\..\..\..\microchip\harmony\v2_06\bin\framework\peripheral\PIC32MX130F064B_peripherals.a(peripheral.o)
 .text.PLIB_ADCP_SHModeSelect
                0x00000000        0x8 ..\..\..\..\..\..\..\..\microchip\harmony\v2_06\bin\framework\peripheral\PIC32MX130F064B_peripherals.a(peripheral.o)
 .text.PLIB_ADCP_ExistsModeSelect
                0x00000000        0x8 ..\..\..\..\..\..\..\..\microchip\harmony\v2_06\bin\framework\peripheral\PIC32MX130F064B_peripherals.a(peripheral.o)
 .text.PLIB_ADCP_ChannelScanConfigure
                0x00000000        0x8 ..\..\..\..\..\..\..\..\microchip\harmony\v2_06\bin\framework\peripheral\PIC32MX130F064B_peripherals.a(peripheral.o)
 .text.PLIB_ADCP_ExistsChannelScan
                0x00000000        0x8 ..\..\..\..\..\..\..\..\microchip\harmony\v2_06\bin\framework\peripheral\PIC32MX130F064B_peripherals.a(peripheral.o)
 .text.PLIB_ADCP_Class12TriggerConfigure
                0x00000000        0x8 ..\..\..\..\..\..\..\..\microchip\harmony\v2_06\bin\framework\peripheral\PIC32MX130F064B_peripherals.a(peripheral.o)
 .text.PLIB_ADCP_GlobalSoftwareTrigger
                0x00000000        0x8 ..\..\..\..\..\..\..\..\microchip\harmony\v2_06\bin\framework\peripheral\PIC32MX130F064B_peripherals.a(peripheral.o)
 .text.PLIB_ADCP_IndividualTrigger
                0x00000000        0x8 ..\..\..\..\..\..\..\..\microchip\harmony\v2_06\bin\framework\peripheral\PIC32MX130F064B_peripherals.a(peripheral.o)
 .text.PLIB_ADCP_ExistsTriggering
                0x00000000        0x8 ..\..\..\..\..\..\..\..\microchip\harmony\v2_06\bin\framework\peripheral\PIC32MX130F064B_peripherals.a(peripheral.o)
 .text.PLIB_ADCP_ResultReady
                0x00000000       0x10 ..\..\..\..\..\..\..\..\microchip\harmony\v2_06\bin\framework\peripheral\PIC32MX130F064B_peripherals.a(peripheral.o)
 .text.PLIB_ADCP_ResultGet
                0x00000000        0x8 ..\..\..\..\..\..\..\..\microchip\harmony\v2_06\bin\framework\peripheral\PIC32MX130F064B_peripherals.a(peripheral.o)
 .text.PLIB_ADCP_ResultReadyGrpIntConfigure
                0x00000000        0x8 ..\..\..\..\..\..\..\..\microchip\harmony\v2_06\bin\framework\peripheral\PIC32MX130F064B_peripherals.a(peripheral.o)
 .text.PLIB_ADCP_ExistsConversionResults
                0x00000000        0x8 ..\..\..\..\..\..\..\..\microchip\harmony\v2_06\bin\framework\peripheral\PIC32MX130F064B_peripherals.a(peripheral.o)
 .text.PLIB_ADCP_DigCmpConfig
                0x00000000        0x8 ..\..\..\..\..\..\..\..\microchip\harmony\v2_06\bin\framework\peripheral\PIC32MX130F064B_peripherals.a(peripheral.o)
 .text.PLIB_ADCP_DigCmpEnable
                0x00000000        0x8 ..\..\..\..\..\..\..\..\microchip\harmony\v2_06\bin\framework\peripheral\PIC32MX130F064B_peripherals.a(peripheral.o)
 .text.PLIB_ADCP_DigCmpDisable
                0x00000000        0x8 ..\..\..\..\..\..\..\..\microchip\harmony\v2_06\bin\framework\peripheral\PIC32MX130F064B_peripherals.a(peripheral.o)
 .text.PLIB_ADCP_DigCmpAIdGet
                0x00000000        0x8 ..\..\..\..\..\..\..\..\microchip\harmony\v2_06\bin\framework\peripheral\PIC32MX130F064B_peripherals.a(peripheral.o)
 .text.PLIB_ADCP_ExistsDigCmp
                0x00000000        0x8 ..\..\..\..\..\..\..\..\microchip\harmony\v2_06\bin\framework\peripheral\PIC32MX130F064B_peripherals.a(peripheral.o)
 .text.PLIB_ADCP_OsampDigFilterConfig
                0x00000000        0x8 ..\..\..\..\..\..\..\..\microchip\harmony\v2_06\bin\framework\peripheral\PIC32MX130F064B_peripherals.a(peripheral.o)
 .text.PLIB_ADCP_OsampDigFilterEnable
                0x00000000        0x8 ..\..\..\..\..\..\..\..\microchip\harmony\v2_06\bin\framework\peripheral\PIC32MX130F064B_peripherals.a(peripheral.o)
 .text.PLIB_ADCP_OsampDigFilterDisable
                0x00000000        0x8 ..\..\..\..\..\..\..\..\microchip\harmony\v2_06\bin\framework\peripheral\PIC32MX130F064B_peripherals.a(peripheral.o)
 .text.PLIB_ADCP_OsampDigFilterDataRdy
                0x00000000        0x8 ..\..\..\..\..\..\..\..\microchip\harmony\v2_06\bin\framework\peripheral\PIC32MX130F064B_peripherals.a(peripheral.o)
 .text.PLIB_ADCP_OsampDigFilterDataGet
                0x00000000        0x8 ..\..\..\..\..\..\..\..\microchip\harmony\v2_06\bin\framework\peripheral\PIC32MX130F064B_peripherals.a(peripheral.o)
 .text.PLIB_ADCP_ExistsOsampDigFilter
                0x00000000        0x8 ..\..\..\..\..\..\..\..\microchip\harmony\v2_06\bin\framework\peripheral\PIC32MX130F064B_peripherals.a(peripheral.o)
 .text.PLIB_ADCHS_ExistsRegisters
                0x00000000        0x8 ..\..\..\..\..\..\..\..\microchip\harmony\v2_06\bin\framework\peripheral\PIC32MX130F064B_peripherals.a(peripheral.o)
 .text.PLIB_ADCHS_Enable
                0x00000000        0x8 ..\..\..\..\..\..\..\..\microchip\harmony\v2_06\bin\framework\peripheral\PIC32MX130F064B_peripherals.a(peripheral.o)
 .text.PLIB_ADCHS_Disable
                0x00000000        0x8 ..\..\..\..\..\..\..\..\microchip\harmony\v2_06\bin\framework\peripheral\PIC32MX130F064B_peripherals.a(peripheral.o)
 .text.PLIB_ADCHS_ExistsEnableControl
                0x00000000        0x8 ..\..\..\..\..\..\..\..\microchip\harmony\v2_06\bin\framework\peripheral\PIC32MX130F064B_peripherals.a(peripheral.o)
 .text.PLIB_ADCHS_TurboModeEnable
                0x00000000        0x8 ..\..\..\..\..\..\..\..\microchip\harmony\v2_06\bin\framework\peripheral\PIC32MX130F064B_peripherals.a(peripheral.o)
 .text.PLIB_ADCHS_TurboModeDisable
                0x00000000        0x8 ..\..\..\..\..\..\..\..\microchip\harmony\v2_06\bin\framework\peripheral\PIC32MX130F064B_peripherals.a(peripheral.o)
 .text.PLIB_ADCHS_TurboModeErrorHasOccurred
                0x00000000        0x8 ..\..\..\..\..\..\..\..\microchip\harmony\v2_06\bin\framework\peripheral\PIC32MX130F064B_peripherals.a(peripheral.o)
 .text.PLIB_ADCHS_TurboModeChannelSelect
                0x00000000        0x8 ..\..\..\..\..\..\..\..\microchip\harmony\v2_06\bin\framework\peripheral\PIC32MX130F064B_peripherals.a(peripheral.o)
 .text.PLIB_ADCHS_ExistsTurboMode
                0x00000000        0x8 ..\..\..\..\..\..\..\..\microchip\harmony\v2_06\bin\framework\peripheral\PIC32MX130F064B_peripherals.a(peripheral.o)
 .text.PLIB_ADCHS_DigitalComparatorAnalogInputSelect
                0x00000000        0x8 ..\..\..\..\..\..\..\..\microchip\harmony\v2_06\bin\framework\peripheral\PIC32MX130F064B_peripherals.a(peripheral.o)
 .text.PLIB_ADCHS_DigitalComparatorAnalogInputGet
                0x00000000        0x8 ..\..\..\..\..\..\..\..\microchip\harmony\v2_06\bin\framework\peripheral\PIC32MX130F064B_peripherals.a(peripheral.o)
 .text.PLIB_ADCHS_DigitalComparatorEnable
                0x00000000        0x8 ..\..\..\..\..\..\..\..\microchip\harmony\v2_06\bin\framework\peripheral\PIC32MX130F064B_peripherals.a(peripheral.o)
 .text.PLIB_ADCHS_DigitalComparatorDisable
                0x00000000        0x8 ..\..\..\..\..\..\..\..\microchip\harmony\v2_06\bin\framework\peripheral\PIC32MX130F064B_peripherals.a(peripheral.o)
 .text.PLIB_ADCHS_DigitalComparatorInterruptEnable
                0x00000000        0x8 ..\..\..\..\..\..\..\..\microchip\harmony\v2_06\bin\framework\peripheral\PIC32MX130F064B_peripherals.a(peripheral.o)
 .text.PLIB_ADCHS_DigitalComparatorInterruptDisable
                0x00000000        0x8 ..\..\..\..\..\..\..\..\microchip\harmony\v2_06\bin\framework\peripheral\PIC32MX130F064B_peripherals.a(peripheral.o)
 .text.PLIB_ADCHS_DigitalComparatorSetup
                0x00000000        0x8 ..\..\..\..\..\..\..\..\microchip\harmony\v2_06\bin\framework\peripheral\PIC32MX130F064B_peripherals.a(peripheral.o)
 .text.PLIB_ADCHS_DigitalComparatorEventHasOccurred
                0x00000000        0x8 ..\..\..\..\..\..\..\..\microchip\harmony\v2_06\bin\framework\peripheral\PIC32MX130F064B_peripherals.a(peripheral.o)
 .text.PLIB_ADCHS_DigitalComparatorLimitSet
                0x00000000        0x8 ..\..\..\..\..\..\..\..\microchip\harmony\v2_06\bin\framework\peripheral\PIC32MX130F064B_peripherals.a(peripheral.o)
 .text.PLIB_ADCHS_ExistsDigitalComparator
                0x00000000        0x8 ..\..\..\..\..\..\..\..\microchip\harmony\v2_06\bin\framework\peripheral\PIC32MX130F064B_peripherals.a(peripheral.o)
 .text.PLIB_ADCHS_DigitalFilterEnable
                0x00000000        0x8 ..\..\..\..\..\..\..\..\microchip\harmony\v2_06\bin\framework\peripheral\PIC32MX130F064B_peripherals.a(peripheral.o)
 .text.PLIB_ADCHS_DigitalFilterDisable
                0x00000000        0x8 ..\..\..\..\..\..\..\..\microchip\harmony\v2_06\bin\framework\peripheral\PIC32MX130F064B_peripherals.a(peripheral.o)
 .text.PLIB_ADCHS_DigitalFilterOversamplingModeSetup
                0x00000000        0x8 ..\..\..\..\..\..\..\..\microchip\harmony\v2_06\bin\framework\peripheral\PIC32MX130F064B_peripherals.a(peripheral.o)
 .text.PLIB_ADCHS_DigitalFilterAveragingModeSetup
                0x00000000        0x8 ..\..\..\..\..\..\..\..\microchip\harmony\v2_06\bin\framework\peripheral\PIC32MX130F064B_peripherals.a(peripheral.o)
 .text.PLIB_ADCHS_DigitalFilterOversamplingModeRatioSelect
                0x00000000        0x8 ..\..\..\..\..\..\..\..\microchip\harmony\v2_06\bin\framework\peripheral\PIC32MX130F064B_peripherals.a(peripheral.o)
 .text.PLIB_ADCHS_DigitalFilterAveragingModeSampleCountSelect
                0x00000000        0x8 ..\..\..\..\..\..\..\..\microchip\harmony\v2_06\bin\framework\peripheral\PIC32MX130F064B_peripherals.a(peripheral.o)
 .text.PLIB_ADCHS_DigitalFilterDataIsReady
                0x00000000        0x8 ..\..\..\..\..\..\..\..\microchip\harmony\v2_06\bin\framework\peripheral\PIC32MX130F064B_peripherals.a(peripheral.o)
 .text.PLIB_ADCHS_DigitalFilterDataGet
                0x00000000        0x8 ..\..\..\..\..\..\..\..\microchip\harmony\v2_06\bin\framework\peripheral\PIC32MX130F064B_peripherals.a(peripheral.o)
 .text.PLIB_ADCHS_DigitalFilterDataReadyInterruptEnable
                0x00000000        0x8 ..\..\..\..\..\..\..\..\microchip\harmony\v2_06\bin\framework\peripheral\PIC32MX130F064B_peripherals.a(peripheral.o)
 .text.PLIB_ADCHS_DigitalFilterDataReadyInterruptDisable
                0x00000000        0x8 ..\..\..\..\..\..\..\..\microchip\harmony\v2_06\bin\framework\peripheral\PIC32MX130F064B_peripherals.a(peripheral.o)
 .text.PLIB_ADCHS_ExistsDigitalFilter
                0x00000000        0x8 ..\..\..\..\..\..\..\..\microchip\harmony\v2_06\bin\framework\peripheral\PIC32MX130F064B_peripherals.a(peripheral.o)
 .text.PLIB_ADCHS_FIFORead
                0x00000000        0x8 ..\..\..\..\..\..\..\..\microchip\harmony\v2_06\bin\framework\peripheral\PIC32MX130F064B_peripherals.a(peripheral.o)
 .text.PLIB_ADCHS_FIFODataIsAvailable
                0x00000000        0x8 ..\..\..\..\..\..\..\..\microchip\harmony\v2_06\bin\framework\peripheral\PIC32MX130F064B_peripherals.a(peripheral.o)
 .text.PLIB_ADCHS_FIFODataReadyInterruptEnable
                0x00000000        0x8 ..\..\..\..\..\..\..\..\microchip\harmony\v2_06\bin\framework\peripheral\PIC32MX130F064B_peripherals.a(peripheral.o)
 .text.PLIB_ADCHS_FIFODataReadyInterruptDisable
                0x00000000        0x8 ..\..\..\..\..\..\..\..\microchip\harmony\v2_06\bin\framework\peripheral\PIC32MX130F064B_peripherals.a(peripheral.o)
 .text.PLIB_ADCHS_FIFOEnable
                0x00000000        0x8 ..\..\..\..\..\..\..\..\microchip\harmony\v2_06\bin\framework\peripheral\PIC32MX130F064B_peripherals.a(peripheral.o)
 .text.PLIB_ADCHS_FIFODisable
                0x00000000        0x8 ..\..\..\..\..\..\..\..\microchip\harmony\v2_06\bin\framework\peripheral\PIC32MX130F064B_peripherals.a(peripheral.o)
 .text.PLIB_ADCHS_FIFOSourceSelect
                0x00000000        0x8 ..\..\..\..\..\..\..\..\microchip\harmony\v2_06\bin\framework\peripheral\PIC32MX130F064B_peripherals.a(peripheral.o)
 .text.PLIB_ADCHS_FIFODataCountGet
                0x00000000        0x8 ..\..\..\..\..\..\..\..\microchip\harmony\v2_06\bin\framework\peripheral\PIC32MX130F064B_peripherals.a(peripheral.o)
 .text.PLIB_ADCHS_FIFOSourceGet
                0x00000000        0x8 ..\..\..\..\..\..\..\..\microchip\harmony\v2_06\bin\framework\peripheral\PIC32MX130F064B_peripherals.a(peripheral.o)
 .text.PLIB_ADCHS_FIFOErrorHasOccurred
                0x00000000        0x8 ..\..\..\..\..\..\..\..\microchip\harmony\v2_06\bin\framework\peripheral\PIC32MX130F064B_peripherals.a(peripheral.o)
 .text.PLIB_ADCHS_FIFODataIsNegative
                0x00000000        0x8 ..\..\..\..\..\..\..\..\microchip\harmony\v2_06\bin\framework\peripheral\PIC32MX130F064B_peripherals.a(peripheral.o)
 .text.PLIB_ADCHS_ExistsFIFO
                0x00000000        0x8 ..\..\..\..\..\..\..\..\microchip\harmony\v2_06\bin\framework\peripheral\PIC32MX130F064B_peripherals.a(peripheral.o)
 .text.PLIB_ADCHS_DMAEnable
                0x00000000        0x8 ..\..\..\..\..\..\..\..\microchip\harmony\v2_06\bin\framework\peripheral\PIC32MX130F064B_peripherals.a(peripheral.o)
 .text.PLIB_ADCHS_DMADisable
                0x00000000        0x8 ..\..\..\..\..\..\..\..\microchip\harmony\v2_06\bin\framework\peripheral\PIC32MX130F064B_peripherals.a(peripheral.o)
 .text.PLIB_ADCHS_DMASetup
                0x00000000        0x8 ..\..\..\..\..\..\..\..\microchip\harmony\v2_06\bin\framework\peripheral\PIC32MX130F064B_peripherals.a(peripheral.o)
 .text.PLIB_ADCHS_DMASourceEnable
                0x00000000        0x8 ..\..\..\..\..\..\..\..\microchip\harmony\v2_06\bin\framework\peripheral\PIC32MX130F064B_peripherals.a(peripheral.o)
 .text.PLIB_ADCHS_DMASourceDisable
                0x00000000        0x8 ..\..\..\..\..\..\..\..\microchip\harmony\v2_06\bin\framework\peripheral\PIC32MX130F064B_peripherals.a(peripheral.o)
 .text.PLIB_ADCHS_DMABuffer_A_InterruptEnable
                0x00000000        0x8 ..\..\..\..\..\..\..\..\microchip\harmony\v2_06\bin\framework\peripheral\PIC32MX130F064B_peripherals.a(peripheral.o)
 .text.PLIB_ADCHS_DMABuffer_A_InterruptDisable
                0x00000000        0x8 ..\..\..\..\..\..\..\..\microchip\harmony\v2_06\bin\framework\peripheral\PIC32MX130F064B_peripherals.a(peripheral.o)
 .text.PLIB_ADCHS_DMABuffer_B_InterruptEnable
                0x00000000        0x8 ..\..\..\..\..\..\..\..\microchip\harmony\v2_06\bin\framework\peripheral\PIC32MX130F064B_peripherals.a(peripheral.o)
 .text.PLIB_ADCHS_DMABuffer_B_InterruptDisable
                0x00000000        0x8 ..\..\..\..\..\..\..\..\microchip\harmony\v2_06\bin\framework\peripheral\PIC32MX130F064B_peripherals.a(peripheral.o)
 .text.PLIB_ADCHS_DMABuffer_A_IsFull
                0x00000000        0x8 ..\..\..\..\..\..\..\..\microchip\harmony\v2_06\bin\framework\peripheral\PIC32MX130F064B_peripherals.a(peripheral.o)
 .text.PLIB_ADCHS_DMABuffer_B_IsFull
                0x00000000        0x8 ..\..\..\..\..\..\..\..\microchip\harmony\v2_06\bin\framework\peripheral\PIC32MX130F064B_peripherals.a(peripheral.o)
 .text.PLIB_ADCHS_DMAOverflowErrorHasOccurred
                0x00000000        0x8 ..\..\..\..\..\..\..\..\microchip\harmony\v2_06\bin\framework\peripheral\PIC32MX130F064B_peripherals.a(peripheral.o)
 .text.PLIB_ADCHS_ExistsDMA
                0x00000000        0x8 ..\..\..\..\..\..\..\..\microchip\harmony\v2_06\bin\framework\peripheral\PIC32MX130F064B_peripherals.a(peripheral.o)
 .text.PLIB_ADCHS_CVDEnable
                0x00000000        0x8 ..\..\..\..\..\..\..\..\microchip\harmony\v2_06\bin\framework\peripheral\PIC32MX130F064B_peripherals.a(peripheral.o)
 .text.PLIB_ADCHS_CVDDisable
                0x00000000        0x8 ..\..\..\..\..\..\..\..\microchip\harmony\v2_06\bin\framework\peripheral\PIC32MX130F064B_peripherals.a(peripheral.o)
 .text.PLIB_ADCHS_CVDSetup
                0x00000000        0x8 ..\..\..\..\..\..\..\..\microchip\harmony\v2_06\bin\framework\peripheral\PIC32MX130F064B_peripherals.a(peripheral.o)
 .text.PLIB_ADCHS_CVDResultGet
                0x00000000        0x8 ..\..\..\..\..\..\..\..\microchip\harmony\v2_06\bin\framework\peripheral\PIC32MX130F064B_peripherals.a(peripheral.o)
 .text.PLIB_ADCHS_ExistsCVD
                0x00000000        0x8 ..\..\..\..\..\..\..\..\microchip\harmony\v2_06\bin\framework\peripheral\PIC32MX130F064B_peripherals.a(peripheral.o)
 .text.PLIB_ADCHS_VREFIsReady
                0x00000000        0x8 ..\..\..\..\..\..\..\..\microchip\harmony\v2_06\bin\framework\peripheral\PIC32MX130F064B_peripherals.a(peripheral.o)
 .text.PLIB_ADCHS_VREFFaultHasOccurred
                0x00000000        0x8 ..\..\..\..\..\..\..\..\microchip\harmony\v2_06\bin\framework\peripheral\PIC32MX130F064B_peripherals.a(peripheral.o)
 .text.PLIB_ADCHS_VREFReadyInterruptEnable
                0x00000000        0x8 ..\..\..\..\..\..\..\..\microchip\harmony\v2_06\bin\framework\peripheral\PIC32MX130F064B_peripherals.a(peripheral.o)
 .text.PLIB_ADCHS_VREFReadyInterruptDisable
                0x00000000        0x8 ..\..\..\..\..\..\..\..\microchip\harmony\v2_06\bin\framework\peripheral\PIC32MX130F064B_peripherals.a(peripheral.o)
 .text.PLIB_ADCHS_VREFFaultInterruptEnable
                0x00000000        0x8 ..\..\..\..\..\..\..\..\microchip\harmony\v2_06\bin\framework\peripheral\PIC32MX130F064B_peripherals.a(peripheral.o)
 .text.PLIB_ADCHS_VREFFaultInterruptDisable
                0x00000000        0x8 ..\..\..\..\..\..\..\..\microchip\harmony\v2_06\bin\framework\peripheral\PIC32MX130F064B_peripherals.a(peripheral.o)
 .text.PLIB_ADCHS_ExistsVREFControl
                0x00000000        0x8 ..\..\..\..\..\..\..\..\microchip\harmony\v2_06\bin\framework\peripheral\PIC32MX130F064B_peripherals.a(peripheral.o)
 .text.PLIB_ADCHS_AnalogInputScanIsComplete
                0x00000000        0x8 ..\..\..\..\..\..\..\..\microchip\harmony\v2_06\bin\framework\peripheral\PIC32MX130F064B_peripherals.a(peripheral.o)
 .text.PLIB_ADCHS_AnalogInputScanSelect
                0x00000000        0x8 ..\..\..\..\..\..\..\..\microchip\harmony\v2_06\bin\framework\peripheral\PIC32MX130F064B_peripherals.a(peripheral.o)
 .text.PLIB_ADCHS_AnalogInputScanRemove
                0x00000000        0x8 ..\..\..\..\..\..\..\..\microchip\harmony\v2_06\bin\framework\peripheral\PIC32MX130F064B_peripherals.a(peripheral.o)
 .text.PLIB_ADCHS_AnalogInputScanIsSelected
                0x00000000        0x8 ..\..\..\..\..\..\..\..\microchip\harmony\v2_06\bin\framework\peripheral\PIC32MX130F064B_peripherals.a(peripheral.o)
 .text.PLIB_ADCHS_AnalogInputScanSetup
                0x00000000        0x8 ..\..\..\..\..\..\..\..\microchip\harmony\v2_06\bin\framework\peripheral\PIC32MX130F064B_peripherals.a(peripheral.o)
 .text.PLIB_ADCHS_ScanCompleteInterruptEnable
                0x00000000        0x8 ..\..\..\..\..\..\..\..\microchip\harmony\v2_06\bin\framework\peripheral\PIC32MX130F064B_peripherals.a(peripheral.o)
 .text.PLIB_ADCHS_ScanCompleteInterruptDisable
                0x00000000        0x8 ..\..\..\..\..\..\..\..\microchip\harmony\v2_06\bin\framework\peripheral\PIC32MX130F064B_peripherals.a(peripheral.o)
 .text.PLIB_ADCHS_ExistsAnalogInputScan
                0x00000000        0x8 ..\..\..\..\..\..\..\..\microchip\harmony\v2_06\bin\framework\peripheral\PIC32MX130F064B_peripherals.a(peripheral.o)
 .text.PLIB_ADCHS_ChannelAnalogFeatureEnable
                0x00000000        0x8 ..\..\..\..\..\..\..\..\microchip\harmony\v2_06\bin\framework\peripheral\PIC32MX130F064B_peripherals.a(peripheral.o)
 .text.PLIB_ADCHS_ChannelAnalogFeatureDisable
                0x00000000        0x8 ..\..\..\..\..\..\..\..\microchip\harmony\v2_06\bin\framework\peripheral\PIC32MX130F064B_peripherals.a(peripheral.o)
 .text.PLIB_ADCHS_ChannelIsReady
                0x00000000        0x8 ..\..\..\..\..\..\..\..\microchip\harmony\v2_06\bin\framework\peripheral\PIC32MX130F064B_peripherals.a(peripheral.o)
 .text.PLIB_ADCHS_ChannelIsReadyInterruptEnable
                0x00000000        0x8 ..\..\..\..\..\..\..\..\microchip\harmony\v2_06\bin\framework\peripheral\PIC32MX130F064B_peripherals.a(peripheral.o)
 .text.PLIB_ADCHS_ChannelIsReadyInterruptDisable
                0x00000000        0x8 ..\..\..\..\..\..\..\..\microchip\harmony\v2_06\bin\framework\peripheral\PIC32MX130F064B_peripherals.a(peripheral.o)
 .text.PLIB_ADCHS_ExistsChannelAnalogControl
                0x00000000        0x8 ..\..\..\..\..\..\..\..\microchip\harmony\v2_06\bin\framework\peripheral\PIC32MX130F064B_peripherals.a(peripheral.o)
 .text.PLIB_ADCHS_ChannelDigitalFeatureEnable
                0x00000000        0x8 ..\..\..\..\..\..\..\..\microchip\harmony\v2_06\bin\framework\peripheral\PIC32MX130F064B_peripherals.a(peripheral.o)
 .text.PLIB_ADCHS_ChannelDigitalFeatureDisable
                0x00000000        0x8 ..\..\..\..\..\..\..\..\microchip\harmony\v2_06\bin\framework\peripheral\PIC32MX130F064B_peripherals.a(peripheral.o)
 .text.PLIB_ADCHS_ExistsChannelDigitalControl
                0x00000000        0x8 ..\..\..\..\..\..\..\..\microchip\harmony\v2_06\bin\framework\peripheral\PIC32MX130F064B_peripherals.a(peripheral.o)
 .text.PLIB_ADCHS_AnalogInputModeSelect
                0x00000000        0x8 ..\..\..\..\..\..\..\..\microchip\harmony\v2_06\bin\framework\peripheral\PIC32MX130F064B_peripherals.a(peripheral.o)
 .text.PLIB_ADCHS_AnalogInputModeGet
                0x00000000        0x8 ..\..\..\..\..\..\..\..\microchip\harmony\v2_06\bin\framework\peripheral\PIC32MX130F064B_peripherals.a(peripheral.o)
 .text.PLIB_ADCHS_ExistsAnalogInputModeControl
                0x00000000        0x8 ..\..\..\..\..\..\..\..\microchip\harmony\v2_06\bin\framework\peripheral\PIC32MX130F064B_peripherals.a(peripheral.o)
 .text.PLIB_ADCHS_AnalogInputLevelTriggerSet
                0x00000000        0x8 ..\..\..\..\..\..\..\..\microchip\harmony\v2_06\bin\framework\peripheral\PIC32MX130F064B_peripherals.a(peripheral.o)
 .text.PLIB_ADCHS_AnalogInputEdgeTriggerSet
                0x00000000        0x8 ..\..\..\..\..\..\..\..\microchip\harmony\v2_06\bin\framework\peripheral\PIC32MX130F064B_peripherals.a(peripheral.o)
 .text.PLIB_ADCHS_AnalogInputTriggerSourceSelect
                0x00000000        0x8 ..\..\..\..\..\..\..\..\microchip\harmony\v2_06\bin\framework\peripheral\PIC32MX130F064B_peripherals.a(peripheral.o)
 .text.PLIB_ADCHS_GlobalSoftwareTriggerEnable
                0x00000000        0x8 ..\..\..\..\..\..\..\..\microchip\harmony\v2_06\bin\framework\peripheral\PIC32MX130F064B_peripherals.a(peripheral.o)
 .text.PLIB_ADCHS_GlobalLevelSoftwareTriggerEnable
                0x00000000        0x8 ..\..\..\..\..\..\..\..\microchip\harmony\v2_06\bin\framework\peripheral\PIC32MX130F064B_peripherals.a(peripheral.o)
 .text.PLIB_ADCHS_GlobalLevelSoftwareTriggerDisable
                0x00000000        0x8 ..\..\..\..\..\..\..\..\microchip\harmony\v2_06\bin\framework\peripheral\PIC32MX130F064B_peripherals.a(peripheral.o)
 .text.PLIB_ADCHS_TriggerSuspendEnable
                0x00000000        0x8 ..\..\..\..\..\..\..\..\microchip\harmony\v2_06\bin\framework\peripheral\PIC32MX130F064B_peripherals.a(peripheral.o)
 .text.PLIB_ADCHS_TriggerSuspendDisable
                0x00000000        0x8 ..\..\..\..\..\..\..\..\microchip\harmony\v2_06\bin\framework\peripheral\PIC32MX130F064B_peripherals.a(peripheral.o)
 .text.PLIB_ADCHS_ExistsTriggerControl
                0x00000000        0x8 ..\..\..\..\..\..\..\..\microchip\harmony\v2_06\bin\framework\peripheral\PIC32MX130F064B_peripherals.a(peripheral.o)
 .text.PLIB_ADCHS_ChannelTriggerSampleSelect
                0x00000000        0x8 ..\..\..\..\..\..\..\..\microchip\harmony\v2_06\bin\framework\peripheral\PIC32MX130F064B_peripherals.a(peripheral.o)
 .text.PLIB_ADCHS_ExistsTriggerSampleControl
                0x00000000        0x8 ..\..\..\..\..\..\..\..\microchip\harmony\v2_06\bin\framework\peripheral\PIC32MX130F064B_peripherals.a(peripheral.o)
 .text.PLIB_ADCHS_EarlyInterruptEnable
                0x00000000        0x8 ..\..\..\..\..\..\..\..\microchip\harmony\v2_06\bin\framework\peripheral\PIC32MX130F064B_peripherals.a(peripheral.o)
 .text.PLIB_ADCHS_EarlyInterruptDisable
                0x00000000        0x8 ..\..\..\..\..\..\..\..\microchip\harmony\v2_06\bin\framework\peripheral\PIC32MX130F064B_peripherals.a(peripheral.o)
 .text.PLIB_ADCHS_AnalogInputEarlyInterruptEnable
                0x00000000        0x8 ..\..\..\..\..\..\..\..\microchip\harmony\v2_06\bin\framework\peripheral\PIC32MX130F064B_peripherals.a(peripheral.o)
 .text.PLIB_ADCHS_AnalogInputEarlyInterruptDisable
                0x00000000        0x8 ..\..\..\..\..\..\..\..\microchip\harmony\v2_06\bin\framework\peripheral\PIC32MX130F064B_peripherals.a(peripheral.o)
 .text.PLIB_ADCHS_AnalogInputEarlyInterruptIsReady
                0x00000000        0x8 ..\..\..\..\..\..\..\..\microchip\harmony\v2_06\bin\framework\peripheral\PIC32MX130F064B_peripherals.a(peripheral.o)
 .text.PLIB_ADCHS_ExistsEarlyInterruptControl
                0x00000000        0x8 ..\..\..\..\..\..\..\..\microchip\harmony\v2_06\bin\framework\peripheral\PIC32MX130F064B_peripherals.a(peripheral.o)
 .text.PLIB_ADCHS_SoftwareSamplingStart
                0x00000000        0x8 ..\..\..\..\..\..\..\..\microchip\harmony\v2_06\bin\framework\peripheral\PIC32MX130F064B_peripherals.a(peripheral.o)
 .text.PLIB_ADCHS_SoftwareSamplingStop
                0x00000000        0x8 ..\..\..\..\..\..\..\..\microchip\harmony\v2_06\bin\framework\peripheral\PIC32MX130F064B_peripherals.a(peripheral.o)
 .text.PLIB_ADCHS_SoftwareConversionStart
                0x00000000        0x8 ..\..\..\..\..\..\..\..\microchip\harmony\v2_06\bin\framework\peripheral\PIC32MX130F064B_peripherals.a(peripheral.o)
 .text.PLIB_ADCHS_SoftwareConversionInputSelect
                0x00000000        0x8 ..\..\..\..\..\..\..\..\microchip\harmony\v2_06\bin\framework\peripheral\PIC32MX130F064B_peripherals.a(peripheral.o)
 .text.PLIB_ADCHS_ExistsManualControl
                0x00000000        0x8 ..\..\..\..\..\..\..\..\microchip\harmony\v2_06\bin\framework\peripheral\PIC32MX130F064B_peripherals.a(peripheral.o)
 .text.PLIB_ADCHS_ControlRegistersCanBeUpdatedInterruptEnable
                0x00000000        0x8 ..\..\..\..\..\..\..\..\microchip\harmony\v2_06\bin\framework\peripheral\PIC32MX130F064B_peripherals.a(peripheral.o)
 .text.PLIB_ADCHS_ControlRegistersCanBeUpdatedInterruptDisable
                0x00000000        0x8 ..\..\..\..\..\..\..\..\microchip\harmony\v2_06\bin\framework\peripheral\PIC32MX130F064B_peripherals.a(peripheral.o)
 .text.PLIB_ADCHS_ControlRegistersCanBeUpdated
                0x00000000        0x8 ..\..\..\..\..\..\..\..\microchip\harmony\v2_06\bin\framework\peripheral\PIC32MX130F064B_peripherals.a(peripheral.o)
 .text.PLIB_ADCHS_ExistsUpdateReadyControl
                0x00000000        0x8 ..\..\..\..\..\..\..\..\microchip\harmony\v2_06\bin\framework\peripheral\PIC32MX130F064B_peripherals.a(peripheral.o)
 .text.PLIB_ADCHS_ChannelInputSelect
                0x00000000        0x8 ..\..\..\..\..\..\..\..\microchip\harmony\v2_06\bin\framework\peripheral\PIC32MX130F064B_peripherals.a(peripheral.o)
 .text.PLIB_ADCHS_ExistsChannelInputSelectControl
                0x00000000        0x8 ..\..\..\..\..\..\..\..\microchip\harmony\v2_06\bin\framework\peripheral\PIC32MX130F064B_peripherals.a(peripheral.o)
 .text.PLIB_ADCHS_ExternalConversionRequestEnable
                0x00000000        0x8 ..\..\..\..\..\..\..\..\microchip\harmony\v2_06\bin\framework\peripheral\PIC32MX130F064B_peripherals.a(peripheral.o)
 .text.PLIB_ADCHS_ExternalConversionRequestDisable
                0x00000000        0x8 ..\..\..\..\..\..\..\..\microchip\harmony\v2_06\bin\framework\peripheral\PIC32MX130F064B_peripherals.a(peripheral.o)
 .text.PLIB_ADCHS_ExistsExternalConversionRequestControl
                0x00000000        0x8 ..\..\..\..\..\..\..\..\microchip\harmony\v2_06\bin\framework\peripheral\PIC32MX130F064B_peripherals.a(peripheral.o)
 .text.PLIB_ADCHS_Setup
                0x00000000        0x8 ..\..\..\..\..\..\..\..\microchip\harmony\v2_06\bin\framework\peripheral\PIC32MX130F064B_peripherals.a(peripheral.o)
 .text.PLIB_ADCHS_ChannelSetup
                0x00000000        0x8 ..\..\..\..\..\..\..\..\microchip\harmony\v2_06\bin\framework\peripheral\PIC32MX130F064B_peripherals.a(peripheral.o)
 .text.PLIB_ADCHS_ExistsConfiguration
                0x00000000        0x8 ..\..\..\..\..\..\..\..\microchip\harmony\v2_06\bin\framework\peripheral\PIC32MX130F064B_peripherals.a(peripheral.o)
 .text.PLIB_ADCHS_AnalogInputIsAvailable
                0x00000000        0x8 ..\..\..\..\..\..\..\..\microchip\harmony\v2_06\bin\framework\peripheral\PIC32MX130F064B_peripherals.a(peripheral.o)
 .text.PLIB_ADCHS_ExistsAnalogInputCheck
                0x00000000        0x8 ..\..\..\..\..\..\..\..\microchip\harmony\v2_06\bin\framework\peripheral\PIC32MX130F064B_peripherals.a(peripheral.o)
 .text.PLIB_ADCHS_ChannelConfigurationGet
                0x00000000        0x8 ..\..\..\..\..\..\..\..\microchip\harmony\v2_06\bin\framework\peripheral\PIC32MX130F064B_peripherals.a(peripheral.o)
 .text.PLIB_ADCHS_ChannelConfigurationSet
                0x00000000        0x8 ..\..\..\..\..\..\..\..\microchip\harmony\v2_06\bin\framework\peripheral\PIC32MX130F064B_peripherals.a(peripheral.o)
 .text.PLIB_ADCHS_ExistsChannelConfiguration
                0x00000000        0x8 ..\..\..\..\..\..\..\..\microchip\harmony\v2_06\bin\framework\peripheral\PIC32MX130F064B_peripherals.a(peripheral.o)
 .text.PLIB_ADCHS_AnalogInputDataReadyInterruptEnable
                0x00000000        0x8 ..\..\..\..\..\..\..\..\microchip\harmony\v2_06\bin\framework\peripheral\PIC32MX130F064B_peripherals.a(peripheral.o)
 .text.PLIB_ADCHS_AnalogInputDataReadyInterruptDisable
                0x00000000        0x8 ..\..\..\..\..\..\..\..\microchip\harmony\v2_06\bin\framework\peripheral\PIC32MX130F064B_peripherals.a(peripheral.o)
 .text.PLIB_ADCHS_AnalogInputDataIsReady
                0x00000000        0x8 ..\..\..\..\..\..\..\..\microchip\harmony\v2_06\bin\framework\peripheral\PIC32MX130F064B_peripherals.a(peripheral.o)
 .text.PLIB_ADCHS_AnalogInputResultGet
                0x00000000        0x8 ..\..\..\..\..\..\..\..\microchip\harmony\v2_06\bin\framework\peripheral\PIC32MX130F064B_peripherals.a(peripheral.o)
 .text.PLIB_ADCHS_ExistsConversionResults
                0x00000000        0x8 ..\..\..\..\..\..\..\..\microchip\harmony\v2_06\bin\framework\peripheral\PIC32MX130F064B_peripherals.a(peripheral.o)
 .text.PLIB_ADCHS_ChannelScanEnable
                0x00000000        0x8 ..\..\..\..\..\..\..\..\microchip\harmony\v2_06\bin\framework\peripheral\PIC32MX130F064B_peripherals.a(peripheral.o)
 .text.PLIB_ADCHS_ChannelScanAbort
                0x00000000        0x8 ..\..\..\..\..\..\..\..\microchip\harmony\v2_06\bin\framework\peripheral\PIC32MX130F064B_peripherals.a(peripheral.o)
 .text.PLIB_ADCHS_ExistsScanEnable
                0x00000000        0x8 ..\..\..\..\..\..\..\..\microchip\harmony\v2_06\bin\framework\peripheral\PIC32MX130F064B_peripherals.a(peripheral.o)
 .text.PLIB_BMX_ExistsArbitrationMode
                0x00000000        0x8 ..\..\..\..\..\..\..\..\microchip\harmony\v2_06\bin\framework\peripheral\PIC32MX130F064B_peripherals.a(peripheral.o)
 .text.PLIB_BMX_ArbitrationModeSet
                0x00000000       0x14 ..\..\..\..\..\..\..\..\microchip\harmony\v2_06\bin\framework\peripheral\PIC32MX130F064B_peripherals.a(peripheral.o)
 .text.PLIB_BMX_ArbitrationModeGet
                0x00000000        0xc ..\..\..\..\..\..\..\..\microchip\harmony\v2_06\bin\framework\peripheral\PIC32MX130F064B_peripherals.a(peripheral.o)
 .text.PLIB_BMX_DataRamWaitStateGet
                0x00000000        0xc ..\..\..\..\..\..\..\..\microchip\harmony\v2_06\bin\framework\peripheral\PIC32MX130F064B_peripherals.a(peripheral.o)
 .text.PLIB_BMX_ExistsProgramFlashMemoryCacheDma
                0x00000000        0x8 ..\..\..\..\..\..\..\..\microchip\harmony\v2_06\bin\framework\peripheral\PIC32MX130F064B_peripherals.a(peripheral.o)
 .text.PLIB_BMX_ProgramFlashMemoryCacheDmaEnable
                0x00000000       0x10 ..\..\..\..\..\..\..\..\microchip\harmony\v2_06\bin\framework\peripheral\PIC32MX130F064B_peripherals.a(peripheral.o)
 .text.PLIB_BMX_ProgramFlashMemoryCacheDmaDisable
                0x00000000       0x10 ..\..\..\..\..\..\..\..\microchip\harmony\v2_06\bin\framework\peripheral\PIC32MX130F064B_peripherals.a(peripheral.o)
 .text.PLIB_BMX_ExistsBusExceptionIXI
                0x00000000        0x8 ..\..\..\..\..\..\..\..\microchip\harmony\v2_06\bin\framework\peripheral\PIC32MX130F064B_peripherals.a(peripheral.o)
 .text.PLIB_BMX_BusExceptionIXIEnable
                0x00000000       0x10 ..\..\..\..\..\..\..\..\microchip\harmony\v2_06\bin\framework\peripheral\PIC32MX130F064B_peripherals.a(peripheral.o)
 .text.PLIB_BMX_BusExceptionIXIDisable
                0x00000000       0x10 ..\..\..\..\..\..\..\..\microchip\harmony\v2_06\bin\framework\peripheral\PIC32MX130F064B_peripherals.a(peripheral.o)
 .text.PLIB_BMX_ExistsBusExceptionICD
                0x00000000        0x8 ..\..\..\..\..\..\..\..\microchip\harmony\v2_06\bin\framework\peripheral\PIC32MX130F064B_peripherals.a(peripheral.o)
 .text.PLIB_BMX_BusExceptionICDEnable
                0x00000000       0x10 ..\..\..\..\..\..\..\..\microchip\harmony\v2_06\bin\framework\peripheral\PIC32MX130F064B_peripherals.a(peripheral.o)
 .text.PLIB_BMX_BusExceptionICDDisable
                0x00000000       0x10 ..\..\..\..\..\..\..\..\microchip\harmony\v2_06\bin\framework\peripheral\PIC32MX130F064B_peripherals.a(peripheral.o)
 .text.PLIB_BMX_ExistsBusExceptionDMA
                0x00000000        0x8 ..\..\..\..\..\..\..\..\microchip\harmony\v2_06\bin\framework\peripheral\PIC32MX130F064B_peripherals.a(peripheral.o)
 .text.PLIB_BMX_BusExceptionDMAEnable
                0x00000000       0x10 ..\..\..\..\..\..\..\..\microchip\harmony\v2_06\bin\framework\peripheral\PIC32MX130F064B_peripherals.a(peripheral.o)
 .text.PLIB_BMX_BusExceptionDMADisable
                0x00000000       0x10 ..\..\..\..\..\..\..\..\microchip\harmony\v2_06\bin\framework\peripheral\PIC32MX130F064B_peripherals.a(peripheral.o)
 .text.PLIB_BMX_ExistsBusExceptionData
                0x00000000        0x8 ..\..\..\..\..\..\..\..\microchip\harmony\v2_06\bin\framework\peripheral\PIC32MX130F064B_peripherals.a(peripheral.o)
 .text.PLIB_BMX_BusExceptionDataEnable
                0x00000000       0x10 ..\..\..\..\..\..\..\..\microchip\harmony\v2_06\bin\framework\peripheral\PIC32MX130F064B_peripherals.a(peripheral.o)
 .text.PLIB_BMX_BusExceptionDataDisable
                0x00000000       0x10 ..\..\..\..\..\..\..\..\microchip\harmony\v2_06\bin\framework\peripheral\PIC32MX130F064B_peripherals.a(peripheral.o)
 .text.PLIB_BMX_ExistsBusExceptionInstruction
                0x00000000        0x8 ..\..\..\..\..\..\..\..\microchip\harmony\v2_06\bin\framework\peripheral\PIC32MX130F064B_peripherals.a(peripheral.o)
 .text.PLIB_BMX_BusExceptionInstructionEnable
                0x00000000       0x10 ..\..\..\..\..\..\..\..\microchip\harmony\v2_06\bin\framework\peripheral\PIC32MX130F064B_peripherals.a(peripheral.o)
 .text.PLIB_BMX_BusExceptionInstructionDisable
                0x00000000       0x10 ..\..\..\..\..\..\..\..\microchip\harmony\v2_06\bin\framework\peripheral\PIC32MX130F064B_peripherals.a(peripheral.o)
 .text.PLIB_BMX_ExistsProgramFlashPartition
                0x00000000        0x8 ..\..\..\..\..\..\..\..\microchip\harmony\v2_06\bin\framework\peripheral\PIC32MX130F064B_peripherals.a(peripheral.o)
 .text.PLIB_BMX_ProgramFlashPartitionGet
                0x00000000        0xc ..\..\..\..\..\..\..\..\microchip\harmony\v2_06\bin\framework\peripheral\PIC32MX130F064B_peripherals.a(peripheral.o)
 .text.PLIB_BMX_ProgramFlashPartitionSet
                0x00000000        0xc ..\..\..\..\..\..\..\..\microchip\harmony\v2_06\bin\framework\peripheral\PIC32MX130F064B_peripherals.a(peripheral.o)
 .text.PLIB_BMX_ExistsDataRAMPartition
                0x00000000        0x8 ..\..\..\..\..\..\..\..\microchip\harmony\v2_06\bin\framework\peripheral\PIC32MX130F064B_peripherals.a(peripheral.o)
 .text.PLIB_BMX_DataRAMPartitionSet
                0x00000000       0x14 ..\..\..\..\..\..\..\..\microchip\harmony\v2_06\bin\framework\peripheral\PIC32MX130F064B_peripherals.a(peripheral.o)
 .text.PLIB_BMX_DataRAMKernelProgramOffsetGet
                0x00000000        0xc ..\..\..\..\..\..\..\..\microchip\harmony\v2_06\bin\framework\peripheral\PIC32MX130F064B_peripherals.a(peripheral.o)
 .text.PLIB_BMX_DataRAMUserDataOffsetGet
                0x00000000        0xc ..\..\..\..\..\..\..\..\microchip\harmony\v2_06\bin\framework\peripheral\PIC32MX130F064B_peripherals.a(peripheral.o)
 .text.PLIB_BMX_DataRAMUserProgramOffsetGet
                0x00000000        0xc ..\..\..\..\..\..\..\..\microchip\harmony\v2_06\bin\framework\peripheral\PIC32MX130F064B_peripherals.a(peripheral.o)
 .text.PLIB_BMX_ExistsProgramFlashMemorySize
                0x00000000        0x8 ..\..\..\..\..\..\..\..\microchip\harmony\v2_06\bin\framework\peripheral\PIC32MX130F064B_peripherals.a(peripheral.o)
 .text.PLIB_BMX_ProgramFlashMemorySizeGet
                0x00000000        0xc ..\..\..\..\..\..\..\..\microchip\harmony\v2_06\bin\framework\peripheral\PIC32MX130F064B_peripherals.a(peripheral.o)
 .text.PLIB_BMX_ExistsDataRAMSize
                0x00000000        0x8 ..\..\..\..\..\..\..\..\microchip\harmony\v2_06\bin\framework\peripheral\PIC32MX130F064B_peripherals.a(peripheral.o)
 .text.PLIB_BMX_DataRAMSizeGet
                0x00000000        0xc ..\..\..\..\..\..\..\..\microchip\harmony\v2_06\bin\framework\peripheral\PIC32MX130F064B_peripherals.a(peripheral.o)
 .text.PLIB_BMX_ExistsProgramFlashBootSize
                0x00000000        0x8 ..\..\..\..\..\..\..\..\microchip\harmony\v2_06\bin\framework\peripheral\PIC32MX130F064B_peripherals.a(peripheral.o)
 .text.PLIB_BMX_ProgramFlashBootSizeGet
                0x00000000        0xc ..\..\..\..\..\..\..\..\microchip\harmony\v2_06\bin\framework\peripheral\PIC32MX130F064B_peripherals.a(peripheral.o)
 .text.PLIB_CAN_DeviceNetConfigure
                0x00000000        0x8 ..\..\..\..\..\..\..\..\microchip\harmony\v2_06\bin\framework\peripheral\PIC32MX130F064B_peripherals.a(peripheral.o)
 .text.PLIB_CAN_ExistsDeviceNet
                0x00000000        0x8 ..\..\..\..\..\..\..\..\microchip\harmony\v2_06\bin\framework\peripheral\PIC32MX130F064B_peripherals.a(peripheral.o)
 .text.PLIB_CAN_IsActive
                0x00000000        0x8 ..\..\..\..\..\..\..\..\microchip\harmony\v2_06\bin\framework\peripheral\PIC32MX130F064B_peripherals.a(peripheral.o)
 .text.PLIB_CAN_ExistsActiveStatus
                0x00000000        0x8 ..\..\..\..\..\..\..\..\microchip\harmony\v2_06\bin\framework\peripheral\PIC32MX130F064B_peripherals.a(peripheral.o)
 .text.PLIB_CAN_StopInIdleEnable
                0x00000000        0x8 ..\..\..\..\..\..\..\..\microchip\harmony\v2_06\bin\framework\peripheral\PIC32MX130F064B_peripherals.a(peripheral.o)
 .text.PLIB_CAN_StopInIdleDisable
                0x00000000        0x8 ..\..\..\..\..\..\..\..\microchip\harmony\v2_06\bin\framework\peripheral\PIC32MX130F064B_peripherals.a(peripheral.o)
 .text.PLIB_CAN_ExistsStopInIdle
                0x00000000        0x8 ..\..\..\..\..\..\..\..\microchip\harmony\v2_06\bin\framework\peripheral\PIC32MX130F064B_peripherals.a(peripheral.o)
 .text.PLIB_CAN_Enable
                0x00000000        0x8 ..\..\..\..\..\..\..\..\microchip\harmony\v2_06\bin\framework\peripheral\PIC32MX130F064B_peripherals.a(peripheral.o)
 .text.PLIB_CAN_Disable
                0x00000000        0x8 ..\..\..\..\..\..\..\..\microchip\harmony\v2_06\bin\framework\peripheral\PIC32MX130F064B_peripherals.a(peripheral.o)
 .text.PLIB_CAN_ExistsEnableControl
                0x00000000        0x8 ..\..\..\..\..\..\..\..\microchip\harmony\v2_06\bin\framework\peripheral\PIC32MX130F064B_peripherals.a(peripheral.o)
 .text.PLIB_CAN_TimeStampEnable
                0x00000000        0x8 ..\..\..\..\..\..\..\..\microchip\harmony\v2_06\bin\framework\peripheral\PIC32MX130F064B_peripherals.a(peripheral.o)
 .text.PLIB_CAN_TimeStampDisable
                0x00000000        0x8 ..\..\..\..\..\..\..\..\microchip\harmony\v2_06\bin\framework\peripheral\PIC32MX130F064B_peripherals.a(peripheral.o)
 .text.PLIB_CAN_ExistsTimeStampEnable
                0x00000000        0x8 ..\..\..\..\..\..\..\..\microchip\harmony\v2_06\bin\framework\peripheral\PIC32MX130F064B_peripherals.a(peripheral.o)
 .text.PLIB_CAN_TimeStampValueSet
                0x00000000        0x8 ..\..\..\..\..\..\..\..\microchip\harmony\v2_06\bin\framework\peripheral\PIC32MX130F064B_peripherals.a(peripheral.o)
 .text.PLIB_CAN_TimeStampValueGet
                0x00000000        0x8 ..\..\..\..\..\..\..\..\microchip\harmony\v2_06\bin\framework\peripheral\PIC32MX130F064B_peripherals.a(peripheral.o)
 .text.PLIB_CAN_ExistsTimeStampValue
                0x00000000        0x8 ..\..\..\..\..\..\..\..\microchip\harmony\v2_06\bin\framework\peripheral\PIC32MX130F064B_peripherals.a(peripheral.o)
 .text.PLIB_CAN_BusActivityWakeupEnable
                0x00000000        0x8 ..\..\..\..\..\..\..\..\microchip\harmony\v2_06\bin\framework\peripheral\PIC32MX130F064B_peripherals.a(peripheral.o)
 .text.PLIB_CAN_BusActivityWakeupDisable
                0x00000000        0x8 ..\..\..\..\..\..\..\..\microchip\harmony\v2_06\bin\framework\peripheral\PIC32MX130F064B_peripherals.a(peripheral.o)
 .text.PLIB_CAN_ExistsBusActivityWakeup
                0x00000000        0x8 ..\..\..\..\..\..\..\..\microchip\harmony\v2_06\bin\framework\peripheral\PIC32MX130F064B_peripherals.a(peripheral.o)
 .text.PLIB_CAN_MemoryBufferAssign
                0x00000000        0x8 ..\..\..\..\..\..\..\..\microchip\harmony\v2_06\bin\framework\peripheral\PIC32MX130F064B_peripherals.a(peripheral.o)
 .text.PLIB_CAN_ExistsMemoryBufferAssign
                0x00000000        0x8 ..\..\..\..\..\..\..\..\microchip\harmony\v2_06\bin\framework\peripheral\PIC32MX130F064B_peripherals.a(peripheral.o)
 .text.PLIB_CAN_OperationModeGet
                0x00000000        0x8 ..\..\..\..\..\..\..\..\microchip\harmony\v2_06\bin\framework\peripheral\PIC32MX130F064B_peripherals.a(peripheral.o)
 .text.PLIB_CAN_ExistsOperationModeRead
                0x00000000        0x8 ..\..\..\..\..\..\..\..\microchip\harmony\v2_06\bin\framework\peripheral\PIC32MX130F064B_peripherals.a(peripheral.o)
 .text.PLIB_CAN_OperationModeSelect
                0x00000000        0x8 ..\..\..\..\..\..\..\..\microchip\harmony\v2_06\bin\framework\peripheral\PIC32MX130F064B_peripherals.a(peripheral.o)
 .text.PLIB_CAN_ExistsOperationModeWrite
                0x00000000        0x8 ..\..\..\..\..\..\..\..\microchip\harmony\v2_06\bin\framework\peripheral\PIC32MX130F064B_peripherals.a(peripheral.o)
 .text.PLIB_CAN_TimeStampPrescalerSet
                0x00000000        0x8 ..\..\..\..\..\..\..\..\microchip\harmony\v2_06\bin\framework\peripheral\PIC32MX130F064B_peripherals.a(peripheral.o)
 .text.PLIB_CAN_ExistsTimeStampPrescaler
                0x00000000        0x8 ..\..\..\..\..\..\..\..\microchip\harmony\v2_06\bin\framework\peripheral\PIC32MX130F064B_peripherals.a(peripheral.o)
 .text.PLIB_CAN_PhaseSegment2LengthSet
                0x00000000        0x8 ..\..\..\..\..\..\..\..\microchip\harmony\v2_06\bin\framework\peripheral\PIC32MX130F064B_peripherals.a(peripheral.o)
 .text.PLIB_CAN_ExistsPhaseSegment2Length
                0x00000000        0x8 ..\..\..\..\..\..\..\..\microchip\harmony\v2_06\bin\framework\peripheral\PIC32MX130F064B_peripherals.a(peripheral.o)
 .text.PLIB_CAN_PhaseSegment1LengthSet
                0x00000000        0x8 ..\..\..\..\..\..\..\..\microchip\harmony\v2_06\bin\framework\peripheral\PIC32MX130F064B_peripherals.a(peripheral.o)
 .text.PLIB_CAN_ExistsPhaseSegment1Length
                0x00000000        0x8 ..\..\..\..\..\..\..\..\microchip\harmony\v2_06\bin\framework\peripheral\PIC32MX130F064B_peripherals.a(peripheral.o)
 .text.PLIB_CAN_PhaseSegment2LengthFreelyProgrammableEnable
                0x00000000        0x8 ..\..\..\..\..\..\..\..\microchip\harmony\v2_06\bin\framework\peripheral\PIC32MX130F064B_peripherals.a(peripheral.o)
 .text.PLIB_CAN_PhaseSegment2LengthFreelyProgrammableDisable
                0x00000000        0x8 ..\..\..\..\..\..\..\..\microchip\harmony\v2_06\bin\framework\peripheral\PIC32MX130F064B_peripherals.a(peripheral.o)
 .text.PLIB_CAN_ExistsPhaseSegment2LengthFreelyProgrammable
                0x00000000        0x8 ..\..\..\..\..\..\..\..\microchip\harmony\v2_06\bin\framework\peripheral\PIC32MX130F064B_peripherals.a(peripheral.o)
 .text.PLIB_CAN_BusLine3TimesSamplingEnable
                0x00000000        0x8 ..\..\..\..\..\..\..\..\microchip\harmony\v2_06\bin\framework\peripheral\PIC32MX130F064B_peripherals.a(peripheral.o)
 .text.PLIB_CAN_BusLine3TimesSamplingDisable
                0x00000000        0x8 ..\..\..\..\..\..\..\..\microchip\harmony\v2_06\bin\framework\peripheral\PIC32MX130F064B_peripherals.a(peripheral.o)
 .text.PLIB_CAN_ExistsBusLine3TimesSampling
                0x00000000        0x8 ..\..\..\..\..\..\..\..\microchip\harmony\v2_06\bin\framework\peripheral\PIC32MX130F064B_peripherals.a(peripheral.o)
 .text.PLIB_CAN_PropagationTimeSegmentSet
                0x00000000        0x8 ..\..\..\..\..\..\..\..\microchip\harmony\v2_06\bin\framework\peripheral\PIC32MX130F064B_peripherals.a(peripheral.o)
 .text.PLIB_CAN_ExistsPropagationTimeSegment
                0x00000000        0x8 ..\..\..\..\..\..\..\..\microchip\harmony\v2_06\bin\framework\peripheral\PIC32MX130F064B_peripherals.a(peripheral.o)
 .text.PLIB_CAN_SyncJumpWidthSet
                0x00000000        0x8 ..\..\..\..\..\..\..\..\microchip\harmony\v2_06\bin\framework\peripheral\PIC32MX130F064B_peripherals.a(peripheral.o)
 .text.PLIB_CAN_ExistsSyncJumpWidthSet
                0x00000000        0x8 ..\..\..\..\..\..\..\..\microchip\harmony\v2_06\bin\framework\peripheral\PIC32MX130F064B_peripherals.a(peripheral.o)
 .text.PLIB_CAN_BaudRatePrescaleSet
                0x00000000        0x8 ..\..\..\..\..\..\..\..\microchip\harmony\v2_06\bin\framework\peripheral\PIC32MX130F064B_peripherals.a(peripheral.o)
 .text.PLIB_CAN_ExistsBaudRatePrescale
                0x00000000        0x8 ..\..\..\..\..\..\..\..\microchip\harmony\v2_06\bin\framework\peripheral\PIC32MX130F064B_peripherals.a(peripheral.o)
 .text.PLIB_CAN_PrecalculatedBitRateSetup
                0x00000000        0x8 ..\..\..\..\..\..\..\..\microchip\harmony\v2_06\bin\framework\peripheral\PIC32MX130F064B_peripherals.a(peripheral.o)
 .text.PLIB_CAN_ExistsPrecalculatedBitRateSetup
                0x00000000        0x8 ..\..\..\..\..\..\..\..\microchip\harmony\v2_06\bin\framework\peripheral\PIC32MX130F064B_peripherals.a(peripheral.o)
 .text.PLIB_CAN_BitSamplePhaseSet
                0x00000000        0x8 ..\..\..\..\..\..\..\..\microchip\harmony\v2_06\bin\framework\peripheral\PIC32MX130F064B_peripherals.a(peripheral.o)
 .text.PLIB_CAN_ExistsBitSamplePhaseSet
                0x00000000        0x8 ..\..\..\..\..\..\..\..\microchip\harmony\v2_06\bin\framework\peripheral\PIC32MX130F064B_peripherals.a(peripheral.o)
 .text.PLIB_CAN_BaudRatePrescaleSetup
                0x00000000        0x8 ..\..\..\..\..\..\..\..\microchip\harmony\v2_06\bin\framework\peripheral\PIC32MX130F064B_peripherals.a(peripheral.o)
 .text.PLIB_CAN_ExistsBaudRatePrescaleSetup
                0x00000000        0x8 ..\..\..\..\..\..\..\..\microchip\harmony\v2_06\bin\framework\peripheral\PIC32MX130F064B_peripherals.a(peripheral.o)
 .text.PLIB_CAN_BaudRateGet
                0x00000000        0x8 ..\..\..\..\..\..\..\..\microchip\harmony\v2_06\bin\framework\peripheral\PIC32MX130F064B_peripherals.a(peripheral.o)
 .text.PLIB_CAN_ExistsBaudRateGet
                0x00000000        0x8 ..\..\..\..\..\..\..\..\microchip\harmony\v2_06\bin\framework\peripheral\PIC32MX130F064B_peripherals.a(peripheral.o)
 .text.PLIB_CAN_ChannelReset
                0x00000000        0x8 ..\..\..\..\..\..\..\..\microchip\harmony\v2_06\bin\framework\peripheral\PIC32MX130F064B_peripherals.a(peripheral.o)
 .text.PLIB_CAN_ChannelResetIsComplete
                0x00000000        0x8 ..\..\..\..\..\..\..\..\microchip\harmony\v2_06\bin\framework\peripheral\PIC32MX130F064B_peripherals.a(peripheral.o)
 .text.PLIB_CAN_ExistsChannelReset
                0x00000000        0x8 ..\..\..\..\..\..\..\..\microchip\harmony\v2_06\bin\framework\peripheral\PIC32MX130F064B_peripherals.a(peripheral.o)
 .text.PLIB_CAN_ChannelUpdate
                0x00000000        0x8 ..\..\..\..\..\..\..\..\microchip\harmony\v2_06\bin\framework\peripheral\PIC32MX130F064B_peripherals.a(peripheral.o)
 .text.PLIB_CAN_ExistsChannelUpdate
                0x00000000        0x8 ..\..\..\..\..\..\..\..\microchip\harmony\v2_06\bin\framework\peripheral\PIC32MX130F064B_peripherals.a(peripheral.o)
 .text.PLIB_CAN_ModuleEventEnable
                0x00000000        0x8 ..\..\..\..\..\..\..\..\microchip\harmony\v2_06\bin\framework\peripheral\PIC32MX130F064B_peripherals.a(peripheral.o)
 .text.PLIB_CAN_ModuleEventDisable
                0x00000000        0x8 ..\..\..\..\..\..\..\..\microchip\harmony\v2_06\bin\framework\peripheral\PIC32MX130F064B_peripherals.a(peripheral.o)
 .text.PLIB_CAN_ExistsModuleEventEnable
                0x00000000        0x8 ..\..\..\..\..\..\..\..\microchip\harmony\v2_06\bin\framework\peripheral\PIC32MX130F064B_peripherals.a(peripheral.o)
 .text.PLIB_CAN_ModuleEventClear
                0x00000000        0x8 ..\..\..\..\..\..\..\..\microchip\harmony\v2_06\bin\framework\peripheral\PIC32MX130F064B_peripherals.a(peripheral.o)
 .text.PLIB_CAN_ModuleEventGet
                0x00000000        0x8 ..\..\..\..\..\..\..\..\microchip\harmony\v2_06\bin\framework\peripheral\PIC32MX130F064B_peripherals.a(peripheral.o)
 .text.PLIB_CAN_ExistsModuleEventClear
                0x00000000        0x8 ..\..\..\..\..\..\..\..\microchip\harmony\v2_06\bin\framework\peripheral\PIC32MX130F064B_peripherals.a(peripheral.o)
 .text.PLIB_CAN_ChannelEventEnable
                0x00000000        0x8 ..\..\..\..\..\..\..\..\microchip\harmony\v2_06\bin\framework\peripheral\PIC32MX130F064B_peripherals.a(peripheral.o)
 .text.PLIB_CAN_ChannelEventDisable
                0x00000000        0x8 ..\..\..\..\..\..\..\..\microchip\harmony\v2_06\bin\framework\peripheral\PIC32MX130F064B_peripherals.a(peripheral.o)
 .text.PLIB_CAN_ExistsChannelEventEnable
                0x00000000        0x8 ..\..\..\..\..\..\..\..\microchip\harmony\v2_06\bin\framework\peripheral\PIC32MX130F064B_peripherals.a(peripheral.o)
 .text.PLIB_CAN_PendingEventsGet
                0x00000000        0x8 ..\..\..\..\..\..\..\..\microchip\harmony\v2_06\bin\framework\peripheral\PIC32MX130F064B_peripherals.a(peripheral.o)
 .text.PLIB_CAN_ExistsPendingEventsGet
                0x00000000        0x8 ..\..\..\..\..\..\..\..\microchip\harmony\v2_06\bin\framework\peripheral\PIC32MX130F064B_peripherals.a(peripheral.o)
 .text.PLIB_CAN_AllChannelEventsGet
                0x00000000        0x8 ..\..\..\..\..\..\..\..\microchip\harmony\v2_06\bin\framework\peripheral\PIC32MX130F064B_peripherals.a(peripheral.o)
 .text.PLIB_CAN_ExistsAllChannelEvents
                0x00000000        0x8 ..\..\..\..\..\..\..\..\microchip\harmony\v2_06\bin\framework\peripheral\PIC32MX130F064B_peripherals.a(peripheral.o)
 .text.PLIB_CAN_AllChannelOverflowStatusGet
                0x00000000        0x8 ..\..\..\..\..\..\..\..\microchip\harmony\v2_06\bin\framework\peripheral\PIC32MX130F064B_peripherals.a(peripheral.o)
 .text.PLIB_CAN_ExistsAllChannelOverflow
                0x00000000        0x8 ..\..\..\..\..\..\..\..\microchip\harmony\v2_06\bin\framework\peripheral\PIC32MX130F064B_peripherals.a(peripheral.o)
 .text.PLIB_CAN_ChannelEventGet
                0x00000000        0x8 ..\..\..\..\..\..\..\..\microchip\harmony\v2_06\bin\framework\peripheral\PIC32MX130F064B_peripherals.a(peripheral.o)
 .text.PLIB_CAN_ChannelEventClear
                0x00000000        0x8 ..\..\..\..\..\..\..\..\microchip\harmony\v2_06\bin\framework\peripheral\PIC32MX130F064B_peripherals.a(peripheral.o)
 .text.PLIB_CAN_ExistsChannelEvent
                0x00000000        0x8 ..\..\..\..\..\..\..\..\microchip\harmony\v2_06\bin\framework\peripheral\PIC32MX130F064B_peripherals.a(peripheral.o)
 .text.PLIB_CAN_ChannelForTransmitSet
                0x00000000        0x8 ..\..\..\..\..\..\..\..\microchip\harmony\v2_06\bin\framework\peripheral\PIC32MX130F064B_peripherals.a(peripheral.o)
 .text.PLIB_CAN_ExistsChannelForTransmitSet
                0x00000000        0x8 ..\..\..\..\..\..\..\..\microchip\harmony\v2_06\bin\framework\peripheral\PIC32MX130F064B_peripherals.a(peripheral.o)
 .text.PLIB_CAN_PendingTransmissionsAbort
                0x00000000        0x8 ..\..\..\..\..\..\..\..\microchip\harmony\v2_06\bin\framework\peripheral\PIC32MX130F064B_peripherals.a(peripheral.o)
 .text.PLIB_CAN_ExistsPendingTransmissionsAbort
                0x00000000        0x8 ..\..\..\..\..\..\..\..\microchip\harmony\v2_06\bin\framework\peripheral\PIC32MX130F064B_peripherals.a(peripheral.o)
 .text.PLIB_CAN_TransmitChannelFlush
                0x00000000        0x8 ..\..\..\..\..\..\..\..\microchip\harmony\v2_06\bin\framework\peripheral\PIC32MX130F064B_peripherals.a(peripheral.o)
 .text.PLIB_CAN_ExistsTransmitChannelFlush
                0x00000000        0x8 ..\..\..\..\..\..\..\..\microchip\harmony\v2_06\bin\framework\peripheral\PIC32MX130F064B_peripherals.a(peripheral.o)
 .text.PLIB_CAN_TransmitChannelStatusGet
                0x00000000        0x8 ..\..\..\..\..\..\..\..\microchip\harmony\v2_06\bin\framework\peripheral\PIC32MX130F064B_peripherals.a(peripheral.o)
 .text.PLIB_CAN_ExistsTransmitChannelStatus
                0x00000000        0x8 ..\..\..\..\..\..\..\..\microchip\harmony\v2_06\bin\framework\peripheral\PIC32MX130F064B_peripherals.a(peripheral.o)
 .text.PLIB_CAN_TransmitBufferGet
                0x00000000        0x8 ..\..\..\..\..\..\..\..\microchip\harmony\v2_06\bin\framework\peripheral\PIC32MX130F064B_peripherals.a(peripheral.o)
 .text.PLIB_CAN_ExistsTransmitBufferGet
                0x00000000        0x8 ..\..\..\..\..\..\..\..\microchip\harmony\v2_06\bin\framework\peripheral\PIC32MX130F064B_peripherals.a(peripheral.o)
 .text.PLIB_CAN_TransmissionIsAborted
                0x00000000        0x8 ..\..\..\..\..\..\..\..\microchip\harmony\v2_06\bin\framework\peripheral\PIC32MX130F064B_peripherals.a(peripheral.o)
 .text.PLIB_CAN_ExistsTransmissionIsAborted
                0x00000000        0x8 ..\..\..\..\..\..\..\..\microchip\harmony\v2_06\bin\framework\peripheral\PIC32MX130F064B_peripherals.a(peripheral.o)
 .text.PLIB_CAN_ReceivedMessageGet
                0x00000000        0x8 ..\..\..\..\..\..\..\..\microchip\harmony\v2_06\bin\framework\peripheral\PIC32MX130F064B_peripherals.a(peripheral.o)
 .text.PLIB_CAN_ExistsReceivedMessageGet
                0x00000000        0x8 ..\..\..\..\..\..\..\..\microchip\harmony\v2_06\bin\framework\peripheral\PIC32MX130F064B_peripherals.a(peripheral.o)
 .text.PLIB_CAN_ChannelForReceiveSet
                0x00000000        0x8 ..\..\..\..\..\..\..\..\microchip\harmony\v2_06\bin\framework\peripheral\PIC32MX130F064B_peripherals.a(peripheral.o)
 .text.PLIB_CAN_ExistsChannelForReceiveSet
                0x00000000        0x8 ..\..\..\..\..\..\..\..\microchip\harmony\v2_06\bin\framework\peripheral\PIC32MX130F064B_peripherals.a(peripheral.o)
 .text.PLIB_CAN_FilterMaskConfigure
                0x00000000        0x8 ..\..\..\..\..\..\..\..\microchip\harmony\v2_06\bin\framework\peripheral\PIC32MX130F064B_peripherals.a(peripheral.o)
 .text.PLIB_CAN_ExistsFilterMaskConfigure
                0x00000000        0x8 ..\..\..\..\..\..\..\..\microchip\harmony\v2_06\bin\framework\peripheral\PIC32MX130F064B_peripherals.a(peripheral.o)
 .text.PLIB_CAN_FilterConfigure
                0x00000000        0x8 ..\..\..\..\..\..\..\..\microchip\harmony\v2_06\bin\framework\peripheral\PIC32MX130F064B_peripherals.a(peripheral.o)
 .text.PLIB_CAN_ExistsFilterConfigure
                0x00000000        0x8 ..\..\..\..\..\..\..\..\microchip\harmony\v2_06\bin\framework\peripheral\PIC32MX130F064B_peripherals.a(peripheral.o)
 .text.PLIB_CAN_FilterEnable
                0x00000000        0x8 ..\..\..\..\..\..\..\..\microchip\harmony\v2_06\bin\framework\peripheral\PIC32MX130F064B_peripherals.a(peripheral.o)
 .text.PLIB_CAN_FilterDisable
                0x00000000        0x8 ..\..\..\..\..\..\..\..\microchip\harmony\v2_06\bin\framework\peripheral\PIC32MX130F064B_peripherals.a(peripheral.o)
 .text.PLIB_CAN_FilterIsDisabled
                0x00000000        0x8 ..\..\..\..\..\..\..\..\microchip\harmony\v2_06\bin\framework\peripheral\PIC32MX130F064B_peripherals.a(peripheral.o)
 .text.PLIB_CAN_ExistsFilterEnable
                0x00000000        0x8 ..\..\..\..\..\..\..\..\microchip\harmony\v2_06\bin\framework\peripheral\PIC32MX130F064B_peripherals.a(peripheral.o)
 .text.PLIB_CAN_LatestFilterMatchGet
                0x00000000        0x8 ..\..\..\..\..\..\..\..\microchip\harmony\v2_06\bin\framework\peripheral\PIC32MX130F064B_peripherals.a(peripheral.o)
 .text.PLIB_CAN_ExistsLatestFilterMatchGet
                0x00000000        0x8 ..\..\..\..\..\..\..\..\microchip\harmony\v2_06\bin\framework\peripheral\PIC32MX130F064B_peripherals.a(peripheral.o)
 .text.PLIB_CAN_FilterToChannelLink
                0x00000000        0x8 ..\..\..\..\..\..\..\..\microchip\harmony\v2_06\bin\framework\peripheral\PIC32MX130F064B_peripherals.a(peripheral.o)
 .text.PLIB_CAN_ExistsFilterToChannelLink
                0x00000000        0x8 ..\..\..\..\..\..\..\..\microchip\harmony\v2_06\bin\framework\peripheral\PIC32MX130F064B_peripherals.a(peripheral.o)
 .text.PLIB_CAN_ReceiveErrorCountGet
                0x00000000        0x8 ..\..\..\..\..\..\..\..\microchip\harmony\v2_06\bin\framework\peripheral\PIC32MX130F064B_peripherals.a(peripheral.o)
 .text.PLIB_CAN_ExistsReceiveErrorCount
                0x00000000        0x8 ..\..\..\..\..\..\..\..\microchip\harmony\v2_06\bin\framework\peripheral\PIC32MX130F064B_peripherals.a(peripheral.o)
 .text.PLIB_CAN_TransmitErrorCountGet
                0x00000000        0x8 ..\..\..\..\..\..\..\..\microchip\harmony\v2_06\bin\framework\peripheral\PIC32MX130F064B_peripherals.a(peripheral.o)
 .text.PLIB_CAN_ExistsTransmitErrorCountGet
                0x00000000        0x8 ..\..\..\..\..\..\..\..\microchip\harmony\v2_06\bin\framework\peripheral\PIC32MX130F064B_peripherals.a(peripheral.o)
 .text.PLIB_CAN_ErrorStateGet
                0x00000000        0x8 ..\..\..\..\..\..\..\..\microchip\harmony\v2_06\bin\framework\peripheral\PIC32MX130F064B_peripherals.a(peripheral.o)
 .text.PLIB_CAN_ExistsErrorState
                0x00000000        0x8 ..\..\..\..\..\..\..\..\microchip\harmony\v2_06\bin\framework\peripheral\PIC32MX130F064B_peripherals.a(peripheral.o)
 .text.PLIB_CAN_TotalChannelsGet
                0x00000000        0x8 ..\..\..\..\..\..\..\..\microchip\harmony\v2_06\bin\framework\peripheral\PIC32MX130F064B_peripherals.a(peripheral.o)
 .text.PLIB_CAN_TotalFiltersGet
                0x00000000        0x8 ..\..\..\..\..\..\..\..\microchip\harmony\v2_06\bin\framework\peripheral\PIC32MX130F064B_peripherals.a(peripheral.o)
 .text.PLIB_CAN_TotalMasksGet
                0x00000000        0x8 ..\..\..\..\..\..\..\..\microchip\harmony\v2_06\bin\framework\peripheral\PIC32MX130F064B_peripherals.a(peripheral.o)
 .text.PLIB_CAN_ExistsModuleInfo
                0x00000000        0x8 ..\..\..\..\..\..\..\..\microchip\harmony\v2_06\bin\framework\peripheral\PIC32MX130F064B_peripherals.a(peripheral.o)
 .text.PLIB_CDAC_Enable
                0x00000000        0x8 ..\..\..\..\..\..\..\..\microchip\harmony\v2_06\bin\framework\peripheral\PIC32MX130F064B_peripherals.a(peripheral.o)
 .text.PLIB_CDAC_Disable
                0x00000000        0x8 ..\..\..\..\..\..\..\..\microchip\harmony\v2_06\bin\framework\peripheral\PIC32MX130F064B_peripherals.a(peripheral.o)
 .text.PLIB_CDAC_ExistsEnableControl
                0x00000000        0x8 ..\..\..\..\..\..\..\..\microchip\harmony\v2_06\bin\framework\peripheral\PIC32MX130F064B_peripherals.a(peripheral.o)
 .text.PLIB_CDAC_OutputEnable
                0x00000000        0x8 ..\..\..\..\..\..\..\..\microchip\harmony\v2_06\bin\framework\peripheral\PIC32MX130F064B_peripherals.a(peripheral.o)
 .text.PLIB_CDAC_OutputDisable
                0x00000000        0x8 ..\..\..\..\..\..\..\..\microchip\harmony\v2_06\bin\framework\peripheral\PIC32MX130F064B_peripherals.a(peripheral.o)
 .text.PLIB_CDAC_ExistsOutputControl
                0x00000000        0x8 ..\..\..\..\..\..\..\..\microchip\harmony\v2_06\bin\framework\peripheral\PIC32MX130F064B_peripherals.a(peripheral.o)
 .text.PLIB_CDAC_ReferenceVoltageSelect
                0x00000000        0x8 ..\..\..\..\..\..\..\..\microchip\harmony\v2_06\bin\framework\peripheral\PIC32MX130F064B_peripherals.a(peripheral.o)
 .text.PLIB_CDAC_ExistsReferenceVoltageSelect
                0x00000000        0x8 ..\..\..\..\..\..\..\..\microchip\harmony\v2_06\bin\framework\peripheral\PIC32MX130F064B_peripherals.a(peripheral.o)
 .text.PLIB_CDAC_DataRead
                0x00000000        0x8 ..\..\..\..\..\..\..\..\microchip\harmony\v2_06\bin\framework\peripheral\PIC32MX130F064B_peripherals.a(peripheral.o)
 .text.PLIB_CDAC_DataWrite
                0x00000000        0x8 ..\..\..\..\..\..\..\..\microchip\harmony\v2_06\bin\framework\peripheral\PIC32MX130F064B_peripherals.a(peripheral.o)
 .text.PLIB_CDAC_ExistsDataControl
                0x00000000        0x8 ..\..\..\..\..\..\..\..\microchip\harmony\v2_06\bin\framework\peripheral\PIC32MX130F064B_peripherals.a(peripheral.o)
 .text.PLIB_CMP_ExistsEnableControl
                0x00000000        0x8 ..\..\..\..\..\..\..\..\microchip\harmony\v2_06\bin\framework\peripheral\PIC32MX130F064B_peripherals.a(peripheral.o)
 .text.PLIB_CMP_Enable
                0x00000000       0x10 ..\..\..\..\..\..\..\..\microchip\harmony\v2_06\bin\framework\peripheral\PIC32MX130F064B_peripherals.a(peripheral.o)
 .text.PLIB_CMP_Disable
                0x00000000       0x10 ..\..\..\..\..\..\..\..\microchip\harmony\v2_06\bin\framework\peripheral\PIC32MX130F064B_peripherals.a(peripheral.o)
 .text.PLIB_CMP_ExistsOutputEnableControl
                0x00000000        0x8 ..\..\..\..\..\..\..\..\microchip\harmony\v2_06\bin\framework\peripheral\PIC32MX130F064B_peripherals.a(peripheral.o)
 .text.PLIB_CMP_OutputEnable
                0x00000000       0x10 ..\..\..\..\..\..\..\..\microchip\harmony\v2_06\bin\framework\peripheral\PIC32MX130F064B_peripherals.a(peripheral.o)
 .text.PLIB_CMP_OutputDisable
                0x00000000       0x10 ..\..\..\..\..\..\..\..\microchip\harmony\v2_06\bin\framework\peripheral\PIC32MX130F064B_peripherals.a(peripheral.o)
 .text.PLIB_CMP_ExistsInvertOutputControl
                0x00000000        0x8 ..\..\..\..\..\..\..\..\microchip\harmony\v2_06\bin\framework\peripheral\PIC32MX130F064B_peripherals.a(peripheral.o)
 .text.PLIB_CMP_OutputInvertEnable
                0x00000000       0x10 ..\..\..\..\..\..\..\..\microchip\harmony\v2_06\bin\framework\peripheral\PIC32MX130F064B_peripherals.a(peripheral.o)
 .text.PLIB_CMP_OutputInvertDisable
                0x00000000       0x10 ..\..\..\..\..\..\..\..\microchip\harmony\v2_06\bin\framework\peripheral\PIC32MX130F064B_peripherals.a(peripheral.o)
 .text.PLIB_CMP_ExistsOutputStatusGet
                0x00000000        0x8 ..\..\..\..\..\..\..\..\microchip\harmony\v2_06\bin\framework\peripheral\PIC32MX130F064B_peripherals.a(peripheral.o)
 .text.PLIB_CMP_OutputStatusGet
                0x00000000        0xc ..\..\..\..\..\..\..\..\microchip\harmony\v2_06\bin\framework\peripheral\PIC32MX130F064B_peripherals.a(peripheral.o)
 .text.PLIB_CMP_ExistsInterruptEventSelect
                0x00000000        0x8 ..\..\..\..\..\..\..\..\microchip\harmony\v2_06\bin\framework\peripheral\PIC32MX130F064B_peripherals.a(peripheral.o)
 .text.PLIB_CMP_InterruptEventSelect
                0x00000000       0x14 ..\..\..\..\..\..\..\..\microchip\harmony\v2_06\bin\framework\peripheral\PIC32MX130F064B_peripherals.a(peripheral.o)
 .text.PLIB_CMP_ExistsNonInvertingInputSelect
                0x00000000        0x8 ..\..\..\..\..\..\..\..\microchip\harmony\v2_06\bin\framework\peripheral\PIC32MX130F064B_peripherals.a(peripheral.o)
 .text.PLIB_CMP_NonInvertingInputChannelSelect
                0x00000000       0x14 ..\..\..\..\..\..\..\..\microchip\harmony\v2_06\bin\framework\peripheral\PIC32MX130F064B_peripherals.a(peripheral.o)
 .text.PLIB_CMP_ExistsInvertingInputSelect
                0x00000000        0x8 ..\..\..\..\..\..\..\..\microchip\harmony\v2_06\bin\framework\peripheral\PIC32MX130F064B_peripherals.a(peripheral.o)
 .text.PLIB_CMP_InvertingInputChannelSelect
                0x00000000       0x14 ..\..\..\..\..\..\..\..\microchip\harmony\v2_06\bin\framework\peripheral\PIC32MX130F064B_peripherals.a(peripheral.o)
 .text.PLIB_CMP_ExistsStopInIdle
                0x00000000        0x8 ..\..\..\..\..\..\..\..\microchip\harmony\v2_06\bin\framework\peripheral\PIC32MX130F064B_peripherals.a(peripheral.o)
 .text.PLIB_CMP_StopInIdleModeEnable
                0x00000000       0x14 ..\..\..\..\..\..\..\..\microchip\harmony\v2_06\bin\framework\peripheral\PIC32MX130F064B_peripherals.a(peripheral.o)
 .text.PLIB_CMP_StopInIdleModeDisable
                0x00000000       0x14 ..\..\..\..\..\..\..\..\microchip\harmony\v2_06\bin\framework\peripheral\PIC32MX130F064B_peripherals.a(peripheral.o)
 .text.PLIB_CMP_ExistsCVREFEnableControl
                0x00000000        0x8 ..\..\..\..\..\..\..\..\microchip\harmony\v2_06\bin\framework\peripheral\PIC32MX130F064B_peripherals.a(peripheral.o)
 .text.PLIB_CMP_CVREF_Enable
                0x00000000       0x14 ..\..\..\..\..\..\..\..\microchip\harmony\v2_06\bin\framework\peripheral\PIC32MX130F064B_peripherals.a(peripheral.o)
 .text.PLIB_CMP_CVREF_Disable
                0x00000000       0x14 ..\..\..\..\..\..\..\..\microchip\harmony\v2_06\bin\framework\peripheral\PIC32MX130F064B_peripherals.a(peripheral.o)
 .text.PLIB_CMP_ExistsCVREFOutputEnableControl
                0x00000000        0x8 ..\..\..\..\..\..\..\..\microchip\harmony\v2_06\bin\framework\peripheral\PIC32MX130F064B_peripherals.a(peripheral.o)
 .text.PLIB_CMP_CVREF_OutputEnable
                0x00000000       0x14 ..\..\..\..\..\..\..\..\microchip\harmony\v2_06\bin\framework\peripheral\PIC32MX130F064B_peripherals.a(peripheral.o)
 .text.PLIB_CMP_CVREF_OutputDisable
                0x00000000       0x14 ..\..\..\..\..\..\..\..\microchip\harmony\v2_06\bin\framework\peripheral\PIC32MX130F064B_peripherals.a(peripheral.o)
 .text.PLIB_CMP_ExistsCVREFWideRangeControl
                0x00000000        0x8 ..\..\..\..\..\..\..\..\microchip\harmony\v2_06\bin\framework\peripheral\PIC32MX130F064B_peripherals.a(peripheral.o)
 .text.PLIB_CMP_CVREF_WideRangeEnable
                0x00000000       0x14 ..\..\..\..\..\..\..\..\microchip\harmony\v2_06\bin\framework\peripheral\PIC32MX130F064B_peripherals.a(peripheral.o)
 .text.PLIB_CMP_CVREF_WideRangeDisable
                0x00000000       0x14 ..\..\..\..\..\..\..\..\microchip\harmony\v2_06\bin\framework\peripheral\PIC32MX130F064B_peripherals.a(peripheral.o)
 .text.PLIB_CMP_CVREF_WideRangeIsEnabled
                0x00000000       0x10 ..\..\..\..\..\..\..\..\microchip\harmony\v2_06\bin\framework\peripheral\PIC32MX130F064B_peripherals.a(peripheral.o)
 .text.PLIB_CMP_ExistsCVREFVoltageRangeSelect
                0x00000000        0x8 ..\..\..\..\..\..\..\..\microchip\harmony\v2_06\bin\framework\peripheral\PIC32MX130F064B_peripherals.a(peripheral.o)
 .text.PLIB_CMP_CVREF_SourceVoltageSelect
                0x00000000       0x18 ..\..\..\..\..\..\..\..\microchip\harmony\v2_06\bin\framework\peripheral\PIC32MX130F064B_peripherals.a(peripheral.o)
 .text.PLIB_CMP_ExistsCVREFRefVoltageRangeSelect
                0x00000000        0x8 ..\..\..\..\..\..\..\..\microchip\harmony\v2_06\bin\framework\peripheral\PIC32MX130F064B_peripherals.a(peripheral.o)
 .text.PLIB_CMP_CVREF_ReferenceVoltageSelect
                0x00000000        0x8 ..\..\..\..\..\..\..\..\microchip\harmony\v2_06\bin\framework\peripheral\PIC32MX130F064B_peripherals.a(peripheral.o)
 .text.PLIB_CMP_ExistsCVREFBGRefVoltageRangeSelect
                0x00000000        0x8 ..\..\..\..\..\..\..\..\microchip\harmony\v2_06\bin\framework\peripheral\PIC32MX130F064B_peripherals.a(peripheral.o)
 .text.PLIB_CMP_CVREF_BandGapReferenceSourceSelect
                0x00000000        0x8 ..\..\..\..\..\..\..\..\microchip\harmony\v2_06\bin\framework\peripheral\PIC32MX130F064B_peripherals.a(peripheral.o)
 .text.PLIB_CMP_ExistsCVREFValueSelect
                0x00000000        0x8 ..\..\..\..\..\..\..\..\microchip\harmony\v2_06\bin\framework\peripheral\PIC32MX130F064B_peripherals.a(peripheral.o)
 .text.PLIB_CMP_CVREF_ValueSelect
                0x00000000       0x18 ..\..\..\..\..\..\..\..\microchip\harmony\v2_06\bin\framework\peripheral\PIC32MX130F064B_peripherals.a(peripheral.o)
 .text.PLIB_CMP_ExistsComparatorEventStatusGet
                0x00000000        0x8 ..\..\..\..\..\..\..\..\microchip\harmony\v2_06\bin\framework\peripheral\PIC32MX130F064B_peripherals.a(peripheral.o)
 .text.PLIB_CMP_ComparatorEventStatusGet
                0x00000000        0x8 ..\..\..\..\..\..\..\..\microchip\harmony\v2_06\bin\framework\peripheral\PIC32MX130F064B_peripherals.a(peripheral.o)
 .text.PLIB_CMP_ExistsComparatorOutputDigitalFilter
                0x00000000        0x8 ..\..\..\..\..\..\..\..\microchip\harmony\v2_06\bin\framework\peripheral\PIC32MX130F064B_peripherals.a(peripheral.o)
 .text.PLIB_CMP_ComparatorOutputDigitalFilterClkSetup
                0x00000000        0x8 ..\..\..\..\..\..\..\..\microchip\harmony\v2_06\bin\framework\peripheral\PIC32MX130F064B_peripherals.a(peripheral.o)
 .text.PLIB_CMP_ComparatorOutputDigitalFilterEnable
                0x00000000        0x8 ..\..\..\..\..\..\..\..\microchip\harmony\v2_06\bin\framework\peripheral\PIC32MX130F064B_peripherals.a(peripheral.o)
 .text.PLIB_CMP_ComparatorOutputDigitalFilterDisable
                0x00000000        0x8 ..\..\..\..\..\..\..\..\microchip\harmony\v2_06\bin\framework\peripheral\PIC32MX130F064B_peripherals.a(peripheral.o)
 .text.PLIB_CMP_ExistsOpAmpOutputControl
                0x00000000        0x8 ..\..\..\..\..\..\..\..\microchip\harmony\v2_06\bin\framework\peripheral\PIC32MX130F064B_peripherals.a(peripheral.o)
 .text.PLIB_CMP_OpAmpOutputEnable
                0x00000000        0x8 ..\..\..\..\..\..\..\..\microchip\harmony\v2_06\bin\framework\peripheral\PIC32MX130F064B_peripherals.a(peripheral.o)
 .text.PLIB_CMP_OpAmpOutputDisable
                0x00000000        0x8 ..\..\..\..\..\..\..\..\microchip\harmony\v2_06\bin\framework\peripheral\PIC32MX130F064B_peripherals.a(peripheral.o)
 .text.PLIB_CMP_ExistsOpAmpEnableControl
                0x00000000        0x8 ..\..\..\..\..\..\..\..\microchip\harmony\v2_06\bin\framework\peripheral\PIC32MX130F064B_peripherals.a(peripheral.o)
 .text.PLIB_CMP_OpAmpEnable
                0x00000000        0x8 ..\..\..\..\..\..\..\..\microchip\harmony\v2_06\bin\framework\peripheral\PIC32MX130F064B_peripherals.a(peripheral.o)
 .text.PLIB_CMP_OpAmpDisable
                0x00000000        0x8 ..\..\..\..\..\..\..\..\microchip\harmony\v2_06\bin\framework\peripheral\PIC32MX130F064B_peripherals.a(peripheral.o)
 .text.PLIB_CMP_ExistsComparatorOutputMasking
                0x00000000        0x8 ..\..\..\..\..\..\..\..\microchip\harmony\v2_06\bin\framework\peripheral\PIC32MX130F064B_peripherals.a(peripheral.o)
 .text.PLIB_CMP_ComparatorOutputMaskingSetup
                0x00000000        0x8 ..\..\..\..\..\..\..\..\microchip\harmony\v2_06\bin\framework\peripheral\PIC32MX130F064B_peripherals.a(peripheral.o)
 .text.PLIB_CMP_OutputLogicHigh
                0x00000000        0x8 ..\..\..\..\..\..\..\..\microchip\harmony\v2_06\bin\framework\peripheral\PIC32MX130F064B_peripherals.a(peripheral.o)
 .text.PLIB_CMP_OutputLogicLow
                0x00000000        0x8 ..\..\..\..\..\..\..\..\microchip\harmony\v2_06\bin\framework\peripheral\PIC32MX130F064B_peripherals.a(peripheral.o)
 .text.PLIB_CMP_ExistsOutputLevelControl
                0x00000000        0x8 ..\..\..\..\..\..\..\..\microchip\harmony\v2_06\bin\framework\peripheral\PIC32MX130F064B_peripherals.a(peripheral.o)
 .text.PLIB_CTR_Exists1394Mode
                0x00000000        0x8 ..\..\..\..\..\..\..\..\microchip\harmony\v2_06\bin\framework\peripheral\PIC32MX130F064B_peripherals.a(peripheral.o)
 .text.PLIB_CTR_1394ModeSecondGet
                0x00000000        0x8 ..\..\..\..\..\..\..\..\microchip\harmony\v2_06\bin\framework\peripheral\PIC32MX130F064B_peripherals.a(peripheral.o)
 .text.PLIB_CTR_1394ModeSecondSet
                0x00000000        0x8 ..\..\..\..\..\..\..\..\microchip\harmony\v2_06\bin\framework\peripheral\PIC32MX130F064B_peripherals.a(peripheral.o)
 .text.PLIB_CTR_1394ModeCountGet
                0x00000000        0x8 ..\..\..\..\..\..\..\..\microchip\harmony\v2_06\bin\framework\peripheral\PIC32MX130F064B_peripherals.a(peripheral.o)
 .text.PLIB_CTR_1394ModeCountSet
                0x00000000        0x8 ..\..\..\..\..\..\..\..\microchip\harmony\v2_06\bin\framework\peripheral\PIC32MX130F064B_peripherals.a(peripheral.o)
 .text.PLIB_CTR_1394ModeOffsetGet
                0x00000000        0x8 ..\..\..\..\..\..\..\..\microchip\harmony\v2_06\bin\framework\peripheral\PIC32MX130F064B_peripherals.a(peripheral.o)
 .text.PLIB_CTR_1394ModeOffsetSet
                0x00000000        0x8 ..\..\..\..\..\..\..\..\microchip\harmony\v2_06\bin\framework\peripheral\PIC32MX130F064B_peripherals.a(peripheral.o)
 .text.PLIB_CTR_ExistsUSMode
                0x00000000        0x8 ..\..\..\..\..\..\..\..\microchip\harmony\v2_06\bin\framework\peripheral\PIC32MX130F064B_peripherals.a(peripheral.o)
 .text.PLIB_CTR_USModeSecondGet
                0x00000000        0x8 ..\..\..\..\..\..\..\..\microchip\harmony\v2_06\bin\framework\peripheral\PIC32MX130F064B_peripherals.a(peripheral.o)
 .text.PLIB_CTR_USModeSecondSet
                0x00000000        0x8 ..\..\..\..\..\..\..\..\microchip\harmony\v2_06\bin\framework\peripheral\PIC32MX130F064B_peripherals.a(peripheral.o)
 .text.PLIB_CTR_USModeValueGet
                0x00000000        0x8 ..\..\..\..\..\..\..\..\microchip\harmony\v2_06\bin\framework\peripheral\PIC32MX130F064B_peripherals.a(peripheral.o)
 .text.PLIB_CTR_USModeValueSet
                0x00000000        0x8 ..\..\..\..\..\..\..\..\microchip\harmony\v2_06\bin\framework\peripheral\PIC32MX130F064B_peripherals.a(peripheral.o)
 .text.PLIB_CTR_USMode10nsGet
                0x00000000        0x8 ..\..\..\..\..\..\..\..\microchip\harmony\v2_06\bin\framework\peripheral\PIC32MX130F064B_peripherals.a(peripheral.o)
 .text.PLIB_CTR_USMode10nsSet
                0x00000000        0x8 ..\..\..\..\..\..\..\..\microchip\harmony\v2_06\bin\framework\peripheral\PIC32MX130F064B_peripherals.a(peripheral.o)
 .text.PLIB_CTR_ExistsLinearCTR
                0x00000000        0x8 ..\..\..\..\..\..\..\..\microchip\harmony\v2_06\bin\framework\peripheral\PIC32MX130F064B_peripherals.a(peripheral.o)
 .text.PLIB_CTR_LinearCTRGet
                0x00000000        0x8 ..\..\..\..\..\..\..\..\microchip\harmony\v2_06\bin\framework\peripheral\PIC32MX130F064B_peripherals.a(peripheral.o)
 .text.PLIB_CTR_ExistsEnableCTR
                0x00000000        0x8 ..\..\..\..\..\..\..\..\microchip\harmony\v2_06\bin\framework\peripheral\PIC32MX130F064B_peripherals.a(peripheral.o)
 .text.PLIB_CTR_EnableCTR
                0x00000000        0x8 ..\..\..\..\..\..\..\..\microchip\harmony\v2_06\bin\framework\peripheral\PIC32MX130F064B_peripherals.a(peripheral.o)
 .text.PLIB_CTR_DisableCTR
                0x00000000        0x8 ..\..\..\..\..\..\..\..\microchip\harmony\v2_06\bin\framework\peripheral\PIC32MX130F064B_peripherals.a(peripheral.o)
 .text.PLIB_CTR_ModuleStatus
                0x00000000        0x8 ..\..\..\..\..\..\..\..\microchip\harmony\v2_06\bin\framework\peripheral\PIC32MX130F064B_peripherals.a(peripheral.o)
 .text.PLIB_CTR_ExistsCTRFormatSel
                0x00000000        0x8 ..\..\..\..\..\..\..\..\microchip\harmony\v2_06\bin\framework\peripheral\PIC32MX130F064B_peripherals.a(peripheral.o)
 .text.PLIB_CTR_CTRModeSelect
                0x00000000        0x8 ..\..\..\..\..\..\..\..\microchip\harmony\v2_06\bin\framework\peripheral\PIC32MX130F064B_peripherals.a(peripheral.o)
 .text.PLIB_CTR_CTRModeStatus
                0x00000000        0x8 ..\..\..\..\..\..\..\..\microchip\harmony\v2_06\bin\framework\peripheral\PIC32MX130F064B_peripherals.a(peripheral.o)
 .text.PLIB_CTR_ExistsCTRAdjustUS
                0x00000000        0x8 ..\..\..\..\..\..\..\..\microchip\harmony\v2_06\bin\framework\peripheral\PIC32MX130F064B_peripherals.a(peripheral.o)
 .text.PLIB_CTR_CTRAdjustValueInitialize
                0x00000000        0x8 ..\..\..\..\..\..\..\..\microchip\harmony\v2_06\bin\framework\peripheral\PIC32MX130F064B_peripherals.a(peripheral.o)
 .text.PLIB_CTR_CTRAdjustValueGet
                0x00000000        0x8 ..\..\..\..\..\..\..\..\microchip\harmony\v2_06\bin\framework\peripheral\PIC32MX130F064B_peripherals.a(peripheral.o)
 .text.PLIB_CTR_ExistsCTRDriftUS
                0x00000000        0x8 ..\..\..\..\..\..\..\..\microchip\harmony\v2_06\bin\framework\peripheral\PIC32MX130F064B_peripherals.a(peripheral.o)
 .text.PLIB_CTR_CTRDriftValueSet
                0x00000000        0x8 ..\..\..\..\..\..\..\..\microchip\harmony\v2_06\bin\framework\peripheral\PIC32MX130F064B_peripherals.a(peripheral.o)
 .text.PLIB_CTR_CTRDriftValueGet
                0x00000000        0x8 ..\..\..\..\..\..\..\..\microchip\harmony\v2_06\bin\framework\peripheral\PIC32MX130F064B_peripherals.a(peripheral.o)
 .text.PLIB_CTR_ExistsCTRDriftAccuUS
                0x00000000        0x8 ..\..\..\..\..\..\..\..\microchip\harmony\v2_06\bin\framework\peripheral\PIC32MX130F064B_peripherals.a(peripheral.o)
 .text.PLIB_CTR_CTRAccuUSDriftValueGet
                0x00000000        0x8 ..\..\..\..\..\..\..\..\microchip\harmony\v2_06\bin\framework\peripheral\PIC32MX130F064B_peripherals.a(peripheral.o)
 .text.PLIB_CTR_ExistsCTRAdjustLIN
                0x00000000        0x8 ..\..\..\..\..\..\..\..\microchip\harmony\v2_06\bin\framework\peripheral\PIC32MX130F064B_peripherals.a(peripheral.o)
 .text.PLIB_CTR_CTRLinearAdjustInitialize
                0x00000000        0x8 ..\..\..\..\..\..\..\..\microchip\harmony\v2_06\bin\framework\peripheral\PIC32MX130F064B_peripherals.a(peripheral.o)
 .text.PLIB_CTR_CTRLinearAdjustGet
                0x00000000        0x8 ..\..\..\..\..\..\..\..\microchip\harmony\v2_06\bin\framework\peripheral\PIC32MX130F064B_peripherals.a(peripheral.o)
 .text.PLIB_CTR_ExistsCTRDriftLIN
                0x00000000        0x8 ..\..\..\..\..\..\..\..\microchip\harmony\v2_06\bin\framework\peripheral\PIC32MX130F064B_peripherals.a(peripheral.o)
 .text.PLIB_CTR_CTRLinearDriftSet
                0x00000000        0x8 ..\..\..\..\..\..\..\..\microchip\harmony\v2_06\bin\framework\peripheral\PIC32MX130F064B_peripherals.a(peripheral.o)
 .text.PLIB_CTR_CTRLinearDriftGet
                0x00000000        0x8 ..\..\..\..\..\..\..\..\microchip\harmony\v2_06\bin\framework\peripheral\PIC32MX130F064B_peripherals.a(peripheral.o)
 .text.PLIB_CTR_ExistsCTRDriftAccuLIN
                0x00000000        0x8 ..\..\..\..\..\..\..\..\microchip\harmony\v2_06\bin\framework\peripheral\PIC32MX130F064B_peripherals.a(peripheral.o)
 .text.PLIB_CTR_CTRAccuLinDriftValueGet
                0x00000000        0x8 ..\..\..\..\..\..\..\..\microchip\harmony\v2_06\bin\framework\peripheral\PIC32MX130F064B_peripherals.a(peripheral.o)
 .text.PLIB_CTR_ExistsLatchTriggerSelect
                0x00000000        0x8 ..\..\..\..\..\..\..\..\microchip\harmony\v2_06\bin\framework\peripheral\PIC32MX130F064B_peripherals.a(peripheral.o)
 .text.PLIB_CTR_LatchTriggerSelect
                0x00000000        0x8 ..\..\..\..\..\..\..\..\microchip\harmony\v2_06\bin\framework\peripheral\PIC32MX130F064B_peripherals.a(peripheral.o)
 .text.PLIB_CTR_LatchTriggerGet
                0x00000000        0x8 ..\..\..\..\..\..\..\..\microchip\harmony\v2_06\bin\framework\peripheral\PIC32MX130F064B_peripherals.a(peripheral.o)
 .text.PLIB_CTR_LatchCTRSelect
                0x00000000        0x8 ..\..\..\..\..\..\..\..\microchip\harmony\v2_06\bin\framework\peripheral\PIC32MX130F064B_peripherals.a(peripheral.o)
 .text.PLIB_CTR_LatchCTRGet
                0x00000000        0x8 ..\..\..\..\..\..\..\..\microchip\harmony\v2_06\bin\framework\peripheral\PIC32MX130F064B_peripherals.a(peripheral.o)
 .text.PLIB_CTR_LatchDivSet
                0x00000000        0x8 ..\..\..\..\..\..\..\..\microchip\harmony\v2_06\bin\framework\peripheral\PIC32MX130F064B_peripherals.a(peripheral.o)
 .text.PLIB_CTR_LatchDivGet
                0x00000000        0x8 ..\..\..\..\..\..\..\..\microchip\harmony\v2_06\bin\framework\peripheral\PIC32MX130F064B_peripherals.a(peripheral.o)
 .text.PLIB_CTR_ExistsLatchValue
                0x00000000        0x8 ..\..\..\..\..\..\..\..\microchip\harmony\v2_06\bin\framework\peripheral\PIC32MX130F064B_peripherals.a(peripheral.o)
 .text.PLIB_CTR_LatchGetValue
                0x00000000        0x8 ..\..\..\..\..\..\..\..\microchip\harmony\v2_06\bin\framework\peripheral\PIC32MX130F064B_peripherals.a(peripheral.o)
 .text.PLIB_CTR_ExistsLatchStatus
                0x00000000        0x8 ..\..\..\..\..\..\..\..\microchip\harmony\v2_06\bin\framework\peripheral\PIC32MX130F064B_peripherals.a(peripheral.o)
 .text.PLIB_CTR_LatchGetStatus
                0x00000000        0x8 ..\..\..\..\..\..\..\..\microchip\harmony\v2_06\bin\framework\peripheral\PIC32MX130F064B_peripherals.a(peripheral.o)
 .text.PLIB_CTR_ExistsLatchTriggerCountValue
                0x00000000        0x8 ..\..\..\..\..\..\..\..\microchip\harmony\v2_06\bin\framework\peripheral\PIC32MX130F064B_peripherals.a(peripheral.o)
 .text.PLIB_CTR_LatchTriggerCountGet
                0x00000000        0x8 ..\..\..\..\..\..\..\..\microchip\harmony\v2_06\bin\framework\peripheral\PIC32MX130F064B_peripherals.a(peripheral.o)
 .text.PLIB_CTR_ExistsTrigger
                0x00000000        0x8 ..\..\..\..\..\..\..\..\microchip\harmony\v2_06\bin\framework\peripheral\PIC32MX130F064B_peripherals.a(peripheral.o)
 .text.PLIB_CTR_TriggerSelect
                0x00000000        0x8 ..\..\..\..\..\..\..\..\microchip\harmony\v2_06\bin\framework\peripheral\PIC32MX130F064B_peripherals.a(peripheral.o)
 .text.PLIB_CTR_TriggerGet
                0x00000000        0x8 ..\..\..\..\..\..\..\..\microchip\harmony\v2_06\bin\framework\peripheral\PIC32MX130F064B_peripherals.a(peripheral.o)
 .text.PLIB_CTR_CycleOffsetValueSet
                0x00000000        0x8 ..\..\..\..\..\..\..\..\microchip\harmony\v2_06\bin\framework\peripheral\PIC32MX130F064B_peripherals.a(peripheral.o)
 .text.PLIB_CTR_CycleOffsetValueGet
                0x00000000        0x8 ..\..\..\..\..\..\..\..\microchip\harmony\v2_06\bin\framework\peripheral\PIC32MX130F064B_peripherals.a(peripheral.o)
 .text.PLIB_CTR_ExistsNValue
                0x00000000        0x8 ..\..\..\..\..\..\..\..\microchip\harmony\v2_06\bin\framework\peripheral\PIC32MX130F064B_peripherals.a(peripheral.o)
 .text.PLIB_CTR_NValueSet
                0x00000000        0x8 ..\..\..\..\..\..\..\..\microchip\harmony\v2_06\bin\framework\peripheral\PIC32MX130F064B_peripherals.a(peripheral.o)
 .text.PLIB_CTR_NValueGet
                0x00000000        0x8 ..\..\..\..\..\..\..\..\microchip\harmony\v2_06\bin\framework\peripheral\PIC32MX130F064B_peripherals.a(peripheral.o)
 .text.PLIB_CTR_ExistsMValue
                0x00000000        0x8 ..\..\..\..\..\..\..\..\microchip\harmony\v2_06\bin\framework\peripheral\PIC32MX130F064B_peripherals.a(peripheral.o)
 .text.PLIB_CTR_MValueSet
                0x00000000        0x8 ..\..\..\..\..\..\..\..\microchip\harmony\v2_06\bin\framework\peripheral\PIC32MX130F064B_peripherals.a(peripheral.o)
 .text.PLIB_CTR_MValueGet
                0x00000000        0x8 ..\..\..\..\..\..\..\..\microchip\harmony\v2_06\bin\framework\peripheral\PIC32MX130F064B_peripherals.a(peripheral.o)
 .text.PLIB_CTR_ExistsLSBValue
                0x00000000        0x8 ..\..\..\..\..\..\..\..\microchip\harmony\v2_06\bin\framework\peripheral\PIC32MX130F064B_peripherals.a(peripheral.o)
 .text.PLIB_CTR_LSBValueSet
                0x00000000        0x8 ..\..\..\..\..\..\..\..\microchip\harmony\v2_06\bin\framework\peripheral\PIC32MX130F064B_peripherals.a(peripheral.o)
 .text.PLIB_CTR_LSBValueGet
                0x00000000        0x8 ..\..\..\..\..\..\..\..\microchip\harmony\v2_06\bin\framework\peripheral\PIC32MX130F064B_peripherals.a(peripheral.o)
 .text.PLIB_CTR_ExistsInterrupt
                0x00000000        0x8 ..\..\..\..\..\..\..\..\microchip\harmony\v2_06\bin\framework\peripheral\PIC32MX130F064B_peripherals.a(peripheral.o)
 .text.PLIB_CTR_IntModeLatchSelect
                0x00000000        0x8 ..\..\..\..\..\..\..\..\microchip\harmony\v2_06\bin\framework\peripheral\PIC32MX130F064B_peripherals.a(peripheral.o)
 .text.PLIB_CTR_IntModeLatchGet
                0x00000000        0x8 ..\..\..\..\..\..\..\..\microchip\harmony\v2_06\bin\framework\peripheral\PIC32MX130F064B_peripherals.a(peripheral.o)
 .text.PLIB_CTR_IntLatchSelect
                0x00000000        0x8 ..\..\..\..\..\..\..\..\microchip\harmony\v2_06\bin\framework\peripheral\PIC32MX130F064B_peripherals.a(peripheral.o)
 .text.PLIB_CTR_IntLatchGet
                0x00000000        0x8 ..\..\..\..\..\..\..\..\microchip\harmony\v2_06\bin\framework\peripheral\PIC32MX130F064B_peripherals.a(peripheral.o)
 .text.PLIB_CTR_ExistsSpare
                0x00000000        0x8 ..\..\..\..\..\..\..\..\microchip\harmony\v2_06\bin\framework\peripheral\PIC32MX130F064B_peripherals.a(peripheral.o)
 .text.PLIB_CTR_SpareValueGet
                0x00000000        0x8 ..\..\..\..\..\..\..\..\microchip\harmony\v2_06\bin\framework\peripheral\PIC32MX130F064B_peripherals.a(peripheral.o)
 .text.PLIB_CTR_SpareValueSet
                0x00000000        0x8 ..\..\..\..\..\..\..\..\microchip\harmony\v2_06\bin\framework\peripheral\PIC32MX130F064B_peripherals.a(peripheral.o)
 .text.PLIB_CTR_ExistsTestBusSelect
                0x00000000        0x8 ..\..\..\..\..\..\..\..\microchip\harmony\v2_06\bin\framework\peripheral\PIC32MX130F064B_peripherals.a(peripheral.o)
 .text.PLIB_CTR_TestBusSelect
                0x00000000        0x8 ..\..\..\..\..\..\..\..\microchip\harmony\v2_06\bin\framework\peripheral\PIC32MX130F064B_peripherals.a(peripheral.o)
 .text.PLIB_CTR_TestBusGet
                0x00000000        0x8 ..\..\..\..\..\..\..\..\microchip\harmony\v2_06\bin\framework\peripheral\PIC32MX130F064B_peripherals.a(peripheral.o)
 .text.PLIB_CTR_ExistsRevision
                0x00000000        0x8 ..\..\..\..\..\..\..\..\microchip\harmony\v2_06\bin\framework\peripheral\PIC32MX130F064B_peripherals.a(peripheral.o)
 .text.PLIB_CTR_BlockRevisionGet
                0x00000000        0x8 ..\..\..\..\..\..\..\..\microchip\harmony\v2_06\bin\framework\peripheral\PIC32MX130F064B_peripherals.a(peripheral.o)
 .text.PLIB_DEVCON_AlternateClockEnable
                0x00000000        0x8 ..\..\..\..\..\..\..\..\microchip\harmony\v2_06\bin\framework\peripheral\PIC32MX130F064B_peripherals.a(peripheral.o)
 .text.PLIB_DEVCON_AlternateClockDisable
                0x00000000        0x8 ..\..\..\..\..\..\..\..\microchip\harmony\v2_06\bin\framework\peripheral\PIC32MX130F064B_peripherals.a(peripheral.o)
 .text.PLIB_DEVCON_ExistsAlternateClock
                0x00000000        0x8 ..\..\..\..\..\..\..\..\microchip\harmony\v2_06\bin\framework\peripheral\PIC32MX130F064B_peripherals.a(peripheral.o)
 .text.PLIB_DEVCON_DeviceRegistersLock
                0x00000000       0x20 ..\..\..\..\..\..\..\..\microchip\harmony\v2_06\bin\framework\peripheral\PIC32MX130F064B_peripherals.a(peripheral.o)
 .text.PLIB_DEVCON_DeviceRegistersUnlock
                0x00000000       0x24 ..\..\..\..\..\..\..\..\microchip\harmony\v2_06\bin\framework\peripheral\PIC32MX130F064B_peripherals.a(peripheral.o)
 .text.PLIB_DEVCON_ExistsDeviceRegsLockUnlock
                0x00000000        0x8 ..\..\..\..\..\..\..\..\microchip\harmony\v2_06\bin\framework\peripheral\PIC32MX130F064B_peripherals.a(peripheral.o)
 .text.PLIB_DEVCON_OTPConfigLock
                0x00000000        0x8 ..\..\..\..\..\..\..\..\microchip\harmony\v2_06\bin\framework\peripheral\PIC32MX130F064B_peripherals.a(peripheral.o)
 .text.PLIB_DEVCON_OTPConfigUnlock
                0x00000000        0x8 ..\..\..\..\..\..\..\..\microchip\harmony\v2_06\bin\framework\peripheral\PIC32MX130F064B_peripherals.a(peripheral.o)
 .text.PLIB_DEVCON_ExistsOTPConfigLockUnlock
                0x00000000        0x8 ..\..\..\..\..\..\..\..\microchip\harmony\v2_06\bin\framework\peripheral\PIC32MX130F064B_peripherals.a(peripheral.o)
 .text.PLIB_DEVCON_USBPHYSleepModeSet
                0x00000000        0x8 ..\..\..\..\..\..\..\..\microchip\harmony\v2_06\bin\framework\peripheral\PIC32MX130F064B_peripherals.a(peripheral.o)
 .text.PLIB_DEVCON_ExistsUSB_PHY_SleepModeSet
                0x00000000        0x8 ..\..\..\..\..\..\..\..\microchip\harmony\v2_06\bin\framework\peripheral\PIC32MX130F064B_peripherals.a(peripheral.o)
 .text.PLIB_DEVCON_FlashErrCorrectionModeSet
                0x00000000        0x8 ..\..\..\..\..\..\..\..\microchip\harmony\v2_06\bin\framework\peripheral\PIC32MX130F064B_peripherals.a(peripheral.o)
 .text.PLIB_DEVCON_ExistsECCModes
                0x00000000        0x8 ..\..\..\..\..\..\..\..\microchip\harmony\v2_06\bin\framework\peripheral\PIC32MX130F064B_peripherals.a(peripheral.o)
 .text.PLIB_DEVCON_JTAGPortEnable
                0x00000000       0x18 ..\..\..\..\..\..\..\..\microchip\harmony\v2_06\bin\framework\peripheral\PIC32MX130F064B_peripherals.a(peripheral.o)
 .text.PLIB_DEVCON_JTAGPortDisable
                0x00000000       0x18 ..\..\..\..\..\..\..\..\microchip\harmony\v2_06\bin\framework\peripheral\PIC32MX130F064B_peripherals.a(peripheral.o)
 .text.PLIB_DEVCON_ExistsJTAGEnable
                0x00000000        0x8 ..\..\..\..\..\..\..\..\microchip\harmony\v2_06\bin\framework\peripheral\PIC32MX130F064B_peripherals.a(peripheral.o)
 .text.PLIB_DEVCON_AnalogIOChargePumpEnable
                0x00000000        0x8 ..\..\..\..\..\..\..\..\microchip\harmony\v2_06\bin\framework\peripheral\PIC32MX130F064B_peripherals.a(peripheral.o)
 .text.PLIB_DEVCON_AnalogIOChargePumpDisable
                0x00000000        0x8 ..\..\..\..\..\..\..\..\microchip\harmony\v2_06\bin\framework\peripheral\PIC32MX130F064B_peripherals.a(peripheral.o)
 .text.PLIB_DEVCON_ExistsAnalogChargePumpControl
                0x00000000        0x8 ..\..\..\..\..\..\..\..\microchip\harmony\v2_06\bin\framework\peripheral\PIC32MX130F064B_peripherals.a(peripheral.o)
 .text.PLIB_DEVCON_TraceOutputEnable
                0x00000000        0x8 ..\..\..\..\..\..\..\..\microchip\harmony\v2_06\bin\framework\peripheral\PIC32MX130F064B_peripherals.a(peripheral.o)
 .text.PLIB_DEVCON_TraceOutputDisable
                0x00000000        0x8 ..\..\..\..\..\..\..\..\microchip\harmony\v2_06\bin\framework\peripheral\PIC32MX130F064B_peripherals.a(peripheral.o)
 .text.PLIB_DEVCON_ExistsTraceOutput
                0x00000000        0x8 ..\..\..\..\..\..\..\..\microchip\harmony\v2_06\bin\framework\peripheral\PIC32MX130F064B_peripherals.a(peripheral.o)
 .text.PLIB_DEVCON_2WireJTAGEnableTDO
                0x00000000       0x1c ..\..\..\..\..\..\..\..\microchip\harmony\v2_06\bin\framework\peripheral\PIC32MX130F064B_peripherals.a(peripheral.o)
 .text.PLIB_DEVCON_2WireJTAGDisableTDO
                0x00000000       0x18 ..\..\..\..\..\..\..\..\microchip\harmony\v2_06\bin\framework\peripheral\PIC32MX130F064B_peripherals.a(peripheral.o)
 .text.PLIB_DEVCON_ExistsJTAGUsesTDO
                0x00000000        0x8 ..\..\..\..\..\..\..\..\microchip\harmony\v2_06\bin\framework\peripheral\PIC32MX130F064B_peripherals.a(peripheral.o)
 .text.PLIB_DEVCON_IgnoreDebugFreezeEnable
                0x00000000        0x8 ..\..\..\..\..\..\..\..\microchip\harmony\v2_06\bin\framework\peripheral\PIC32MX130F064B_peripherals.a(peripheral.o)
 .text.PLIB_DEVCON_IgnoreDebugFreezeDisable
                0x00000000        0x8 ..\..\..\..\..\..\..\..\microchip\harmony\v2_06\bin\framework\peripheral\PIC32MX130F064B_peripherals.a(peripheral.o)
 .text.PLIB_DEVCON_ExistsIgnoreDebugFreeze
                0x00000000        0x8 ..\..\..\..\..\..\..\..\microchip\harmony\v2_06\bin\framework\peripheral\PIC32MX130F064B_peripherals.a(peripheral.o)
 .text.PLIB_DEVCON_DeviceVersionGet
                0x00000000       0x10 ..\..\..\..\..\..\..\..\microchip\harmony\v2_06\bin\framework\peripheral\PIC32MX130F064B_peripherals.a(peripheral.o)
 .text.PLIB_DEVCON_DeviceIdGet
                0x00000000       0x10 ..\..\..\..\..\..\..\..\microchip\harmony\v2_06\bin\framework\peripheral\PIC32MX130F064B_peripherals.a(peripheral.o)
 .text.PLIB_DEVCON_ExistsDeviceVerAndId
                0x00000000        0x8 ..\..\..\..\..\..\..\..\microchip\harmony\v2_06\bin\framework\peripheral\PIC32MX130F064B_peripherals.a(peripheral.o)
 .text.PLIB_DEVCON_ExistsSystemLockUnlock
                0x00000000        0x8 ..\..\..\..\..\..\..\..\microchip\harmony\v2_06\bin\framework\peripheral\PIC32MX130F064B_peripherals.a(peripheral.o)
 .text.PLIB_DEVCON_MPLLIsReady
                0x00000000        0x8 ..\..\..\..\..\..\..\..\microchip\harmony\v2_06\bin\framework\peripheral\PIC32MX130F064B_peripherals.a(peripheral.o)
 .text.PLIB_DEVCON_MPLLEnable
                0x00000000        0x8 ..\..\..\..\..\..\..\..\microchip\harmony\v2_06\bin\framework\peripheral\PIC32MX130F064B_peripherals.a(peripheral.o)
 .text.PLIB_DEVCON_MPLLDisable
                0x00000000        0x8 ..\..\..\..\..\..\..\..\microchip\harmony\v2_06\bin\framework\peripheral\PIC32MX130F064B_peripherals.a(peripheral.o)
 .text.PLIB_DEVCON_MPLLODiv1Set
                0x00000000        0x8 ..\..\..\..\..\..\..\..\microchip\harmony\v2_06\bin\framework\peripheral\PIC32MX130F064B_peripherals.a(peripheral.o)
 .text.PLIB_DEVCON_MPLLODiv2Set
                0x00000000        0x8 ..\..\..\..\..\..\..\..\microchip\harmony\v2_06\bin\framework\peripheral\PIC32MX130F064B_peripherals.a(peripheral.o)
 .text.PLIB_DEVCON_MPLLVregIsReady
                0x00000000        0x8 ..\..\..\..\..\..\..\..\microchip\harmony\v2_06\bin\framework\peripheral\PIC32MX130F064B_peripherals.a(peripheral.o)
 .text.PLIB_DEVCON_MPLLVregEnable
                0x00000000        0x8 ..\..\..\..\..\..\..\..\microchip\harmony\v2_06\bin\framework\peripheral\PIC32MX130F064B_peripherals.a(peripheral.o)
 .text.PLIB_DEVCON_MPLLVregDisable
                0x00000000        0x8 ..\..\..\..\..\..\..\..\microchip\harmony\v2_06\bin\framework\peripheral\PIC32MX130F064B_peripherals.a(peripheral.o)
 .text.PLIB_DEVCON_MPLLMultiplierSet
                0x00000000        0x8 ..\..\..\..\..\..\..\..\microchip\harmony\v2_06\bin\framework\peripheral\PIC32MX130F064B_peripherals.a(peripheral.o)
 .text.PLIB_DEVCON_MPLLVrefSet
                0x00000000        0x8 ..\..\..\..\..\..\..\..\microchip\harmony\v2_06\bin\framework\peripheral\PIC32MX130F064B_peripherals.a(peripheral.o)
 .text.PLIB_DEVCON_MPLLInputDivSet
                0x00000000        0x8 ..\..\..\..\..\..\..\..\microchip\harmony\v2_06\bin\framework\peripheral\PIC32MX130F064B_peripherals.a(peripheral.o)
 .text.PLIB_DEVCON_ExistsMPLL
                0x00000000        0x8 ..\..\..\..\..\..\..\..\microchip\harmony\v2_06\bin\framework\peripheral\PIC32MX130F064B_peripherals.a(peripheral.o)
 .text.PLIB_DEVCON_HSUARTEnable
                0x00000000        0x8 ..\..\..\..\..\..\..\..\microchip\harmony\v2_06\bin\framework\peripheral\PIC32MX130F064B_peripherals.a(peripheral.o)
 .text.PLIB_DEVCON_HSUARTDisable
                0x00000000        0x8 ..\..\..\..\..\..\..\..\microchip\harmony\v2_06\bin\framework\peripheral\PIC32MX130F064B_peripherals.a(peripheral.o)
 .text.PLIB_DEVCON_ExistsHSUARTControl
                0x00000000        0x8 ..\..\..\..\..\..\..\..\microchip\harmony\v2_06\bin\framework\peripheral\PIC32MX130F064B_peripherals.a(peripheral.o)
 .text.PLIB_DEVCON_BootIPFSelect
                0x00000000        0x8 ..\..\..\..\..\..\..\..\microchip\harmony\v2_06\bin\framework\peripheral\PIC32MX130F064B_peripherals.a(peripheral.o)
 .text.PLIB_DEVCON_BootExtSelect
                0x00000000        0x8 ..\..\..\..\..\..\..\..\microchip\harmony\v2_06\bin\framework\peripheral\PIC32MX130F064B_peripherals.a(peripheral.o)
 .text.PLIB_DEVCON_ExistsBootSelection
                0x00000000        0x8 ..\..\..\..\..\..\..\..\microchip\harmony\v2_06\bin\framework\peripheral\PIC32MX130F064B_peripherals.a(peripheral.o)
 .text.PLIB_DDR_MinLimit
                0x00000000        0x8 ..\..\..\..\..\..\..\..\microchip\harmony\v2_06\bin\framework\peripheral\PIC32MX130F064B_peripherals.a(peripheral.o)
 .text.PLIB_DDR_ReqPeriod
                0x00000000        0x8 ..\..\..\..\..\..\..\..\microchip\harmony\v2_06\bin\framework\peripheral\PIC32MX130F064B_peripherals.a(peripheral.o)
 .text.PLIB_DDR_MinCommand
                0x00000000        0x8 ..\..\..\..\..\..\..\..\microchip\harmony\v2_06\bin\framework\peripheral\PIC32MX130F064B_peripherals.a(peripheral.o)
 .text.PLIB_DDR_ExistsArbitrationControl
                0x00000000        0x8 ..\..\..\..\..\..\..\..\microchip\harmony\v2_06\bin\framework\peripheral\PIC32MX130F064B_peripherals.a(peripheral.o)
 .text.PLIB_DDR_RowAddressSet
                0x00000000        0x8 ..\..\..\..\..\..\..\..\microchip\harmony\v2_06\bin\framework\peripheral\PIC32MX130F064B_peripherals.a(peripheral.o)
 .text.PLIB_DDR_ColumnAddressSet
                0x00000000        0x8 ..\..\..\..\..\..\..\..\microchip\harmony\v2_06\bin\framework\peripheral\PIC32MX130F064B_peripherals.a(peripheral.o)
 .text.PLIB_DDR_BankAddressSet
                0x00000000        0x8 ..\..\..\..\..\..\..\..\microchip\harmony\v2_06\bin\framework\peripheral\PIC32MX130F064B_peripherals.a(peripheral.o)
 .text.PLIB_DDR_ChipSelectAddressSet
                0x00000000        0x8 ..\..\..\..\..\..\..\..\microchip\harmony\v2_06\bin\framework\peripheral\PIC32MX130F064B_peripherals.a(peripheral.o)
 .text.PLIB_DDR_ExistsAddressMapping
                0x00000000        0x8 ..\..\..\..\..\..\..\..\microchip\harmony\v2_06\bin\framework\peripheral\PIC32MX130F064B_peripherals.a(peripheral.o)
 .text.PLIB_DDR_RefreshTimingSet
                0x00000000        0x8 ..\..\..\..\..\..\..\..\microchip\harmony\v2_06\bin\framework\peripheral\PIC32MX130F064B_peripherals.a(peripheral.o)
 .text.PLIB_DDR_MaxPendingRefSet
                0x00000000        0x8 ..\..\..\..\..\..\..\..\microchip\harmony\v2_06\bin\framework\peripheral\PIC32MX130F064B_peripherals.a(peripheral.o)
 .text.PLIB_DDR_ExistsRefreshConfig
                0x00000000        0x8 ..\..\..\..\..\..\..\..\microchip\harmony\v2_06\bin\framework\peripheral\PIC32MX130F064B_peripherals.a(peripheral.o)
 .text.PLIB_DDR_AutoPowerDownEnable
                0x00000000        0x8 ..\..\..\..\..\..\..\..\microchip\harmony\v2_06\bin\framework\peripheral\PIC32MX130F064B_peripherals.a(peripheral.o)
 .text.PLIB_DDR_AutoPowerDownDisable
                0x00000000        0x8 ..\..\..\..\..\..\..\..\microchip\harmony\v2_06\bin\framework\peripheral\PIC32MX130F064B_peripherals.a(peripheral.o)
 .text.PLIB_DDR_ExistsAutoPowerDown
                0x00000000        0x8 ..\..\..\..\..\..\..\..\microchip\harmony\v2_06\bin\framework\peripheral\PIC32MX130F064B_peripherals.a(peripheral.o)
 .text.PLIB_DDR_AutoSelfRefreshEnable
                0x00000000        0x8 ..\..\..\..\..\..\..\..\microchip\harmony\v2_06\bin\framework\peripheral\PIC32MX130F064B_peripherals.a(peripheral.o)
 .text.PLIB_DDR_AutoSelfRefreshDisable
                0x00000000        0x8 ..\..\..\..\..\..\..\..\microchip\harmony\v2_06\bin\framework\peripheral\PIC32MX130F064B_peripherals.a(peripheral.o)
 .text.PLIB_DDR_ExistsAutoSelfRefresh
                0x00000000        0x8 ..\..\..\..\..\..\..\..\microchip\harmony\v2_06\bin\framework\peripheral\PIC32MX130F064B_peripherals.a(peripheral.o)
 .text.PLIB_DDR_AutoPchrgEnable
                0x00000000        0x8 ..\..\..\..\..\..\..\..\microchip\harmony\v2_06\bin\framework\peripheral\PIC32MX130F064B_peripherals.a(peripheral.o)
 .text.PLIB_DDR_AutoPchrgDisable
                0x00000000        0x8 ..\..\..\..\..\..\..\..\microchip\harmony\v2_06\bin\framework\peripheral\PIC32MX130F064B_peripherals.a(peripheral.o)
 .text.PLIB_DDR_AutoPchrgPowerDownEnable
                0x00000000        0x8 ..\..\..\..\..\..\..\..\microchip\harmony\v2_06\bin\framework\peripheral\PIC32MX130F064B_peripherals.a(peripheral.o)
 .text.PLIB_DDR_AutoPchrgPowerDownDisable
                0x00000000        0x8 ..\..\..\..\..\..\..\..\microchip\harmony\v2_06\bin\framework\peripheral\PIC32MX130F064B_peripherals.a(peripheral.o)
 .text.PLIB_DDR_ExistsAutoPrecharge
                0x00000000        0x8 ..\..\..\..\..\..\..\..\microchip\harmony\v2_06\bin\framework\peripheral\PIC32MX130F064B_peripherals.a(peripheral.o)
 .text.PLIB_DDR_ReadWriteDelaySet
                0x00000000        0x8 ..\..\..\..\..\..\..\..\microchip\harmony\v2_06\bin\framework\peripheral\PIC32MX130F064B_peripherals.a(peripheral.o)
 .text.PLIB_DDR_WriteReadDelaySet
                0x00000000        0x8 ..\..\..\..\..\..\..\..\microchip\harmony\v2_06\bin\framework\peripheral\PIC32MX130F064B_peripherals.a(peripheral.o)
 .text.PLIB_DDR_ReadReadDelaySet
                0x00000000        0x8 ..\..\..\..\..\..\..\..\microchip\harmony\v2_06\bin\framework\peripheral\PIC32MX130F064B_peripherals.a(peripheral.o)
 .text.PLIB_DDR_WriteWriteDelaySet
                0x00000000        0x8 ..\..\..\..\..\..\..\..\microchip\harmony\v2_06\bin\framework\peripheral\PIC32MX130F064B_peripherals.a(peripheral.o)
 .text.PLIB_DDR_SelfRefreshDelaySet
                0x00000000        0x8 ..\..\..\..\..\..\..\..\microchip\harmony\v2_06\bin\framework\peripheral\PIC32MX130F064B_peripherals.a(peripheral.o)
 .text.PLIB_DDR_PowerDownDelaySet
                0x00000000        0x8 ..\..\..\..\..\..\..\..\microchip\harmony\v2_06\bin\framework\peripheral\PIC32MX130F064B_peripherals.a(peripheral.o)
 .text.PLIB_DDR_PrechargAllBanksSet
                0x00000000        0x8 ..\..\..\..\..\..\..\..\microchip\harmony\v2_06\bin\framework\peripheral\PIC32MX130F064B_peripherals.a(peripheral.o)
 .text.PLIB_DDR_ReadToPrechargeDelaySet
                0x00000000        0x8 ..\..\..\..\..\..\..\..\microchip\harmony\v2_06\bin\framework\peripheral\PIC32MX130F064B_peripherals.a(peripheral.o)
 .text.PLIB_DDR_WriteToPrechargeDelaySet
                0x00000000        0x8 ..\..\..\..\..\..\..\..\microchip\harmony\v2_06\bin\framework\peripheral\PIC32MX130F064B_peripherals.a(peripheral.o)
 .text.PLIB_DDR_PrechargeToRASDelaySet
                0x00000000        0x8 ..\..\..\..\..\..\..\..\microchip\harmony\v2_06\bin\framework\peripheral\PIC32MX130F064B_peripherals.a(peripheral.o)
 .text.PLIB_DDR_RASToPrechargeDelaySet
                0x00000000        0x8 ..\..\..\..\..\..\..\..\microchip\harmony\v2_06\bin\framework\peripheral\PIC32MX130F064B_peripherals.a(peripheral.o)
 .text.PLIB_DDR_RASToRASBankDelaySet
                0x00000000        0x8 ..\..\..\..\..\..\..\..\microchip\harmony\v2_06\bin\framework\peripheral\PIC32MX130F064B_peripherals.a(peripheral.o)
 .text.PLIB_DDR_RASToRASDelaySet
                0x00000000        0x8 ..\..\..\..\..\..\..\..\microchip\harmony\v2_06\bin\framework\peripheral\PIC32MX130F064B_peripherals.a(peripheral.o)
 .text.PLIB_DDR_RASToCASDelaySet
                0x00000000        0x8 ..\..\..\..\..\..\..\..\microchip\harmony\v2_06\bin\framework\peripheral\PIC32MX130F064B_peripherals.a(peripheral.o)
 .text.PLIB_DDR_DataDelaySet
                0x00000000        0x8 ..\..\..\..\..\..\..\..\microchip\harmony\v2_06\bin\framework\peripheral\PIC32MX130F064B_peripherals.a(peripheral.o)
 .text.PLIB_DDR_TfawDelaySet
                0x00000000        0x8 ..\..\..\..\..\..\..\..\microchip\harmony\v2_06\bin\framework\peripheral\PIC32MX130F064B_peripherals.a(peripheral.o)
 .text.PLIB_DDR_ExistsTimingDelays
                0x00000000        0x8 ..\..\..\..\..\..\..\..\microchip\harmony\v2_06\bin\framework\peripheral\PIC32MX130F064B_peripherals.a(peripheral.o)
 .text.PLIB_DDR_OdtReadEnable
                0x00000000        0x8 ..\..\..\..\..\..\..\..\microchip\harmony\v2_06\bin\framework\peripheral\PIC32MX130F064B_peripherals.a(peripheral.o)
 .text.PLIB_DDR_OdtReadDisable
                0x00000000        0x8 ..\..\..\..\..\..\..\..\microchip\harmony\v2_06\bin\framework\peripheral\PIC32MX130F064B_peripherals.a(peripheral.o)
 .text.PLIB_DDR_OdtWriteEnable
                0x00000000        0x8 ..\..\..\..\..\..\..\..\microchip\harmony\v2_06\bin\framework\peripheral\PIC32MX130F064B_peripherals.a(peripheral.o)
 .text.PLIB_DDR_OdtWriteDisable
                0x00000000        0x8 ..\..\..\..\..\..\..\..\microchip\harmony\v2_06\bin\framework\peripheral\PIC32MX130F064B_peripherals.a(peripheral.o)
 .text.PLIB_DDR_OdtWriteParamSet
                0x00000000        0x8 ..\..\..\..\..\..\..\..\microchip\harmony\v2_06\bin\framework\peripheral\PIC32MX130F064B_peripherals.a(peripheral.o)
 .text.PLIB_DDR_OdtReadParamSet
                0x00000000        0x8 ..\..\..\..\..\..\..\..\microchip\harmony\v2_06\bin\framework\peripheral\PIC32MX130F064B_peripherals.a(peripheral.o)
 .text.PLIB_DDR_ExistsODTConfig
                0x00000000        0x8 ..\..\..\..\..\..\..\..\microchip\harmony\v2_06\bin\framework\peripheral\PIC32MX130F064B_peripherals.a(peripheral.o)
 .text.PLIB_DDR_BigEndianSet
                0x00000000        0x8 ..\..\..\..\..\..\..\..\microchip\harmony\v2_06\bin\framework\peripheral\PIC32MX130F064B_peripherals.a(peripheral.o)
 .text.PLIB_DDR_LittleEndianSet
                0x00000000        0x8 ..\..\..\..\..\..\..\..\microchip\harmony\v2_06\bin\framework\peripheral\PIC32MX130F064B_peripherals.a(peripheral.o)
 .text.PLIB_DDR_FullRateSet
                0x00000000        0x8 ..\..\..\..\..\..\..\..\microchip\harmony\v2_06\bin\framework\peripheral\PIC32MX130F064B_peripherals.a(peripheral.o)
 .text.PLIB_DDR_HalfRateSet
                0x00000000        0x8 ..\..\..\..\..\..\..\..\microchip\harmony\v2_06\bin\framework\peripheral\PIC32MX130F064B_peripherals.a(peripheral.o)
 .text.PLIB_DDR_ExistsDDRControllerConfig
                0x00000000        0x8 ..\..\..\..\..\..\..\..\microchip\harmony\v2_06\bin\framework\peripheral\PIC32MX130F064B_peripherals.a(peripheral.o)
 .text.PLIB_DDR_MaxCmdBrstCntSet
                0x00000000        0x8 ..\..\..\..\..\..\..\..\microchip\harmony\v2_06\bin\framework\peripheral\PIC32MX130F064B_peripherals.a(peripheral.o)
 .text.PLIB_DDR_NumHostCmdsSet
                0x00000000        0x8 ..\..\..\..\..\..\..\..\microchip\harmony\v2_06\bin\framework\peripheral\PIC32MX130F064B_peripherals.a(peripheral.o)
 .text.PLIB_DDR_CmdDataWrite
                0x00000000        0x8 ..\..\..\..\..\..\..\..\microchip\harmony\v2_06\bin\framework\peripheral\PIC32MX130F064B_peripherals.a(peripheral.o)
 .text.PLIB_DDR_CmdDataValid
                0x00000000        0x8 ..\..\..\..\..\..\..\..\microchip\harmony\v2_06\bin\framework\peripheral\PIC32MX130F064B_peripherals.a(peripheral.o)
 .text.PLIB_DDR_CmdDataSend
                0x00000000        0x8 ..\..\..\..\..\..\..\..\microchip\harmony\v2_06\bin\framework\peripheral\PIC32MX130F064B_peripherals.a(peripheral.o)
 .text.PLIB_DDR_CmdDataIsComplete
                0x00000000        0x8 ..\..\..\..\..\..\..\..\microchip\harmony\v2_06\bin\framework\peripheral\PIC32MX130F064B_peripherals.a(peripheral.o)
 .text.PLIB_DDR_ControllerEnable
                0x00000000        0x8 ..\..\..\..\..\..\..\..\microchip\harmony\v2_06\bin\framework\peripheral\PIC32MX130F064B_peripherals.a(peripheral.o)
 .text.PLIB_DDR_ExistsDDRCommands
                0x00000000        0x8 ..\..\..\..\..\..\..\..\microchip\harmony\v2_06\bin\framework\peripheral\PIC32MX130F064B_peripherals.a(peripheral.o)
 .text.PLIB_DDR_PHY_OdtEnable
                0x00000000        0x8 ..\..\..\..\..\..\..\..\microchip\harmony\v2_06\bin\framework\peripheral\PIC32MX130F064B_peripherals.a(peripheral.o)
 .text.PLIB_DDR_PHY_OdtDisable
                0x00000000        0x8 ..\..\..\..\..\..\..\..\microchip\harmony\v2_06\bin\framework\peripheral\PIC32MX130F064B_peripherals.a(peripheral.o)
 .text.PLIB_DDR_PHY_DataDriveStrengthSet
                0x00000000        0x8 ..\..\..\..\..\..\..\..\microchip\harmony\v2_06\bin\framework\peripheral\PIC32MX130F064B_peripherals.a(peripheral.o)
 .text.PLIB_DDR_PHY_AddCtlDriveStrengthSet
                0x00000000        0x8 ..\..\..\..\..\..\..\..\microchip\harmony\v2_06\bin\framework\peripheral\PIC32MX130F064B_peripherals.a(peripheral.o)
 .text.PLIB_DDR_PHY_OdtCal
                0x00000000        0x8 ..\..\..\..\..\..\..\..\microchip\harmony\v2_06\bin\framework\peripheral\PIC32MX130F064B_peripherals.a(peripheral.o)
 .text.PLIB_DDR_PHY_DrvStrgthCal
                0x00000000        0x8 ..\..\..\..\..\..\..\..\microchip\harmony\v2_06\bin\framework\peripheral\PIC32MX130F064B_peripherals.a(peripheral.o)
 .text.PLIB_DDR_PHY_ExtraClockEnable
                0x00000000        0x8 ..\..\..\..\..\..\..\..\microchip\harmony\v2_06\bin\framework\peripheral\PIC32MX130F064B_peripherals.a(peripheral.o)
 .text.PLIB_DDR_PHY_ExtraClockDisable
                0x00000000        0x8 ..\..\..\..\..\..\..\..\microchip\harmony\v2_06\bin\framework\peripheral\PIC32MX130F064B_peripherals.a(peripheral.o)
 .text.PLIB_DDR_PHY_InternalDllEnable
                0x00000000        0x8 ..\..\..\..\..\..\..\..\microchip\harmony\v2_06\bin\framework\peripheral\PIC32MX130F064B_peripherals.a(peripheral.o)
 .text.PLIB_DDR_PHY_ExternalDllEnable
                0x00000000        0x8 ..\..\..\..\..\..\..\..\microchip\harmony\v2_06\bin\framework\peripheral\PIC32MX130F064B_peripherals.a(peripheral.o)
 .text.PLIB_DDR_PHY_PadReceiveEnable
                0x00000000        0x8 ..\..\..\..\..\..\..\..\microchip\harmony\v2_06\bin\framework\peripheral\PIC32MX130F064B_peripherals.a(peripheral.o)
 .text.PLIB_DDR_PHY_PadReceiveDisable
                0x00000000        0x8 ..\..\..\..\..\..\..\..\microchip\harmony\v2_06\bin\framework\peripheral\PIC32MX130F064B_peripherals.a(peripheral.o)
 .text.PLIB_DDR_PHY_PreambleDlySet
                0x00000000        0x8 ..\..\..\..\..\..\..\..\microchip\harmony\v2_06\bin\framework\peripheral\PIC32MX130F064B_peripherals.a(peripheral.o)
 .text.PLIB_DDR_PHY_HalfRateSet
                0x00000000        0x8 ..\..\..\..\..\..\..\..\microchip\harmony\v2_06\bin\framework\peripheral\PIC32MX130F064B_peripherals.a(peripheral.o)
 .text.PLIB_DDR_PHY_WriteCmdDelayEnable
                0x00000000        0x8 ..\..\..\..\..\..\..\..\microchip\harmony\v2_06\bin\framework\peripheral\PIC32MX130F064B_peripherals.a(peripheral.o)
 .text.PLIB_DDR_PHY_WriteCmdDelayDisable
                0x00000000        0x8 ..\..\..\..\..\..\..\..\microchip\harmony\v2_06\bin\framework\peripheral\PIC32MX130F064B_peripherals.a(peripheral.o)
 .text.PLIB_DDR_ExistsPHY_PadConfig
                0x00000000        0x8 ..\..\..\..\..\..\..\..\microchip\harmony\v2_06\bin\framework\peripheral\PIC32MX130F064B_peripherals.a(peripheral.o)
 .text.PLIB_DDR_PHY_DllRecalibEnable
                0x00000000        0x8 ..\..\..\..\..\..\..\..\microchip\harmony\v2_06\bin\framework\peripheral\PIC32MX130F064B_peripherals.a(peripheral.o)
 .text.PLIB_DDR_PHY_DllRecalibDisable
                0x00000000        0x8 ..\..\..\..\..\..\..\..\microchip\harmony\v2_06\bin\framework\peripheral\PIC32MX130F064B_peripherals.a(peripheral.o)
 .text.PLIB_DDR_PHY_DllMasterDelayStartSet
                0x00000000        0x8 ..\..\..\..\..\..\..\..\microchip\harmony\v2_06\bin\framework\peripheral\PIC32MX130F064B_peripherals.a(peripheral.o)
 .text.PLIB_DDR_ExistsPHY_DLLCalibration
                0x00000000        0x8 ..\..\..\..\..\..\..\..\microchip\harmony\v2_06\bin\framework\peripheral\PIC32MX130F064B_peripherals.a(peripheral.o)
 .text.PLIB_DDR_PHY_SCLTestBurstModeSet
                0x00000000        0x8 ..\..\..\..\..\..\..\..\microchip\harmony\v2_06\bin\framework\peripheral\PIC32MX130F064B_peripherals.a(peripheral.o)
 .text.PLIB_DDR_PHY_DDRTypeSet
                0x00000000        0x8 ..\..\..\..\..\..\..\..\microchip\harmony\v2_06\bin\framework\peripheral\PIC32MX130F064B_peripherals.a(peripheral.o)
 .text.PLIB_DDR_PHY_ReadCASLatencySet
                0x00000000        0x8 ..\..\..\..\..\..\..\..\microchip\harmony\v2_06\bin\framework\peripheral\PIC32MX130F064B_peripherals.a(peripheral.o)
 .text.PLIB_DDR_PHY_WriteCASLatencySet
                0x00000000        0x8 ..\..\..\..\..\..\..\..\microchip\harmony\v2_06\bin\framework\peripheral\PIC32MX130F064B_peripherals.a(peripheral.o)
 .text.PLIB_DDR_PHY_OdtCSEnable
                0x00000000        0x8 ..\..\..\..\..\..\..\..\microchip\harmony\v2_06\bin\framework\peripheral\PIC32MX130F064B_peripherals.a(peripheral.o)
 .text.PLIB_DDR_PHY_OdtCSDisable
                0x00000000        0x8 ..\..\..\..\..\..\..\..\microchip\harmony\v2_06\bin\framework\peripheral\PIC32MX130F064B_peripherals.a(peripheral.o)
 .text.PLIB_DDR_PHY_SCLDelay
                0x00000000        0x8 ..\..\..\..\..\..\..\..\microchip\harmony\v2_06\bin\framework\peripheral\PIC32MX130F064B_peripherals.a(peripheral.o)
 .text.PLIB_DDR_PHY_SCLEnable
                0x00000000        0x8 ..\..\..\..\..\..\..\..\microchip\harmony\v2_06\bin\framework\peripheral\PIC32MX130F064B_peripherals.a(peripheral.o)
 .text.PLIB_DDR_PHY_SCLDDRClkDelaySet
                0x00000000        0x8 ..\..\..\..\..\..\..\..\microchip\harmony\v2_06\bin\framework\peripheral\PIC32MX130F064B_peripherals.a(peripheral.o)
 .text.PLIB_DDR_PHY_SCLCapClkDelaySet
                0x00000000        0x8 ..\..\..\..\..\..\..\..\microchip\harmony\v2_06\bin\framework\peripheral\PIC32MX130F064B_peripherals.a(peripheral.o)
 .text.PLIB_DDR_PHY_SCLStart
                0x00000000        0x8 ..\..\..\..\..\..\..\..\microchip\harmony\v2_06\bin\framework\peripheral\PIC32MX130F064B_peripherals.a(peripheral.o)
 .text.PLIB_DDR_PHY_SCLStatus
                0x00000000        0x8 ..\..\..\..\..\..\..\..\microchip\harmony\v2_06\bin\framework\peripheral\PIC32MX130F064B_peripherals.a(peripheral.o)
 .text.PLIB_DDR_ExistsPHY_SCLConfig
                0x00000000        0x8 ..\..\..\..\..\..\..\..\microchip\harmony\v2_06\bin\framework\peripheral\PIC32MX130F064B_peripherals.a(peripheral.o)
 .text.PLIB_DMA_ExistsBusy
                0x00000000        0x8 ..\..\..\..\..\..\..\..\microchip\harmony\v2_06\bin\framework\peripheral\PIC32MX130F064B_peripherals.a(peripheral.o)
 .text.PLIB_DMA_BusyActiveSet
                0x00000000       0x10 ..\..\..\..\..\..\..\..\microchip\harmony\v2_06\bin\framework\peripheral\PIC32MX130F064B_peripherals.a(peripheral.o)
 .text.PLIB_DMA_BusyActiveReset
                0x00000000       0x10 ..\..\..\..\..\..\..\..\microchip\harmony\v2_06\bin\framework\peripheral\PIC32MX130F064B_peripherals.a(peripheral.o)
 .text.PLIB_DMA_IsBusy
                0x00000000        0xc ..\..\..\..\..\..\..\..\microchip\harmony\v2_06\bin\framework\peripheral\PIC32MX130F064B_peripherals.a(peripheral.o)
 .text.PLIB_DMA_ExistsSuspend
                0x00000000        0x8 ..\..\..\..\..\..\..\..\microchip\harmony\v2_06\bin\framework\peripheral\PIC32MX130F064B_peripherals.a(peripheral.o)
 .text.PLIB_DMA_SuspendEnable
                0x00000000       0x10 ..\..\..\..\..\..\..\..\microchip\harmony\v2_06\bin\framework\peripheral\PIC32MX130F064B_peripherals.a(peripheral.o)
 .text.PLIB_DMA_SuspendDisable
                0x00000000       0x10 ..\..\..\..\..\..\..\..\microchip\harmony\v2_06\bin\framework\peripheral\PIC32MX130F064B_peripherals.a(peripheral.o)
 .text.PLIB_DMA_SuspendIsEnabled
                0x00000000        0xc ..\..\..\..\..\..\..\..\microchip\harmony\v2_06\bin\framework\peripheral\PIC32MX130F064B_peripherals.a(peripheral.o)
 .text.PLIB_DMA_ExistsStopInIdle
                0x00000000        0x8 ..\..\..\..\..\..\..\..\microchip\harmony\v2_06\bin\framework\peripheral\PIC32MX130F064B_peripherals.a(peripheral.o)
 .text.PLIB_DMA_StopInIdleEnable
                0x00000000        0x8 ..\..\..\..\..\..\..\..\microchip\harmony\v2_06\bin\framework\peripheral\PIC32MX130F064B_peripherals.a(peripheral.o)
 .text.PLIB_DMA_StopInIdleDisable
                0x00000000        0x8 ..\..\..\..\..\..\..\..\microchip\harmony\v2_06\bin\framework\peripheral\PIC32MX130F064B_peripherals.a(peripheral.o)
 .text.PLIB_DMA_ExistsEnableControl
                0x00000000        0x8 ..\..\..\..\..\..\..\..\microchip\harmony\v2_06\bin\framework\peripheral\PIC32MX130F064B_peripherals.a(peripheral.o)
 .text.PLIB_DMA_Enable
                0x00000000       0x10 ..\..\..\..\..\..\..\..\microchip\harmony\v2_06\bin\framework\peripheral\PIC32MX130F064B_peripherals.a(peripheral.o)
 .text.PLIB_DMA_Disable
                0x00000000       0x10 ..\..\..\..\..\..\..\..\microchip\harmony\v2_06\bin\framework\peripheral\PIC32MX130F064B_peripherals.a(peripheral.o)
 .text.PLIB_DMA_IsEnabled
                0x00000000        0xc ..\..\..\..\..\..\..\..\microchip\harmony\v2_06\bin\framework\peripheral\PIC32MX130F064B_peripherals.a(peripheral.o)
 .text.PLIB_DMA_ExistsChannelBits
                0x00000000        0x8 ..\..\..\..\..\..\..\..\microchip\harmony\v2_06\bin\framework\peripheral\PIC32MX130F064B_peripherals.a(peripheral.o)
 .text.PLIB_DMA_ChannelBitsGet
                0x00000000        0xc ..\..\..\..\..\..\..\..\microchip\harmony\v2_06\bin\framework\peripheral\PIC32MX130F064B_peripherals.a(peripheral.o)
 .text.PLIB_DMA_ExistsLastBusAccess
                0x00000000        0x8 ..\..\..\..\..\..\..\..\microchip\harmony\v2_06\bin\framework\peripheral\PIC32MX130F064B_peripherals.a(peripheral.o)
 .text.PLIB_DMA_LastBusAccessIsRead
                0x00000000        0xc ..\..\..\..\..\..\..\..\microchip\harmony\v2_06\bin\framework\peripheral\PIC32MX130F064B_peripherals.a(peripheral.o)
 .text.PLIB_DMA_LastBusAccessIsWrite
                0x00000000       0x10 ..\..\..\..\..\..\..\..\microchip\harmony\v2_06\bin\framework\peripheral\PIC32MX130F064B_peripherals.a(peripheral.o)
 .text.PLIB_DMA_ExistsRecentAddress
                0x00000000        0x8 ..\..\..\..\..\..\..\..\microchip\harmony\v2_06\bin\framework\peripheral\PIC32MX130F064B_peripherals.a(peripheral.o)
 .text.PLIB_DMA_RecentAddressAccessed
                0x00000000       0x10 ..\..\..\..\..\..\..\..\microchip\harmony\v2_06\bin\framework\peripheral\PIC32MX130F064B_peripherals.a(peripheral.o)
 .text.PLIB_DMA_ExistsCRCChannel
                0x00000000        0x8 ..\..\..\..\..\..\..\..\microchip\harmony\v2_06\bin\framework\peripheral\PIC32MX130F064B_peripherals.a(peripheral.o)
 .text.PLIB_DMA_CRCChannelSelect
                0x00000000       0x14 ..\..\..\..\..\..\..\..\microchip\harmony\v2_06\bin\framework\peripheral\PIC32MX130F064B_peripherals.a(peripheral.o)
 .text.PLIB_DMA_CRCChannelGet
                0x00000000        0xc ..\..\..\..\..\..\..\..\microchip\harmony\v2_06\bin\framework\peripheral\PIC32MX130F064B_peripherals.a(peripheral.o)
 .text.PLIB_DMA_ExistsCRCType
                0x00000000        0x8 ..\..\..\..\..\..\..\..\microchip\harmony\v2_06\bin\framework\peripheral\PIC32MX130F064B_peripherals.a(peripheral.o)
 .text.PLIB_DMA_CRCTypeGet
                0x00000000        0xc ..\..\..\..\..\..\..\..\microchip\harmony\v2_06\bin\framework\peripheral\PIC32MX130F064B_peripherals.a(peripheral.o)
 .text.PLIB_DMA_CRCTypeSet
                0x00000000       0x14 ..\..\..\..\..\..\..\..\microchip\harmony\v2_06\bin\framework\peripheral\PIC32MX130F064B_peripherals.a(peripheral.o)
 .text.PLIB_DMA_ExistsCRCAppendMode
                0x00000000        0x8 ..\..\..\..\..\..\..\..\microchip\harmony\v2_06\bin\framework\peripheral\PIC32MX130F064B_peripherals.a(peripheral.o)
 .text.PLIB_DMA_CRCAppendModeEnable
                0x00000000       0x10 ..\..\..\..\..\..\..\..\microchip\harmony\v2_06\bin\framework\peripheral\PIC32MX130F064B_peripherals.a(peripheral.o)
 .text.PLIB_DMA_CRCAppendModeDisable
                0x00000000       0x10 ..\..\..\..\..\..\..\..\microchip\harmony\v2_06\bin\framework\peripheral\PIC32MX130F064B_peripherals.a(peripheral.o)
 .text.PLIB_DMA_CRCAppendModeIsEnabled
                0x00000000        0xc ..\..\..\..\..\..\..\..\microchip\harmony\v2_06\bin\framework\peripheral\PIC32MX130F064B_peripherals.a(peripheral.o)
 .text.PLIB_DMA_ExistsCRC
                0x00000000        0x8 ..\..\..\..\..\..\..\..\microchip\harmony\v2_06\bin\framework\peripheral\PIC32MX130F064B_peripherals.a(peripheral.o)
 .text.PLIB_DMA_CRCEnable
                0x00000000       0x10 ..\..\..\..\..\..\..\..\microchip\harmony\v2_06\bin\framework\peripheral\PIC32MX130F064B_peripherals.a(peripheral.o)
 .text.PLIB_DMA_CRCDisable
                0x00000000       0x10 ..\..\..\..\..\..\..\..\microchip\harmony\v2_06\bin\framework\peripheral\PIC32MX130F064B_peripherals.a(peripheral.o)
 .text.PLIB_DMA_CRCIsEnabled
                0x00000000        0xc ..\..\..\..\..\..\..\..\microchip\harmony\v2_06\bin\framework\peripheral\PIC32MX130F064B_peripherals.a(peripheral.o)
 .text.PLIB_DMA_ExistsCRCPolynomialLength
                0x00000000        0x8 ..\..\..\..\..\..\..\..\microchip\harmony\v2_06\bin\framework\peripheral\PIC32MX130F064B_peripherals.a(peripheral.o)
 .text.PLIB_DMA_CRCPolynomialLengthSet
                0x00000000       0x14 ..\..\..\..\..\..\..\..\microchip\harmony\v2_06\bin\framework\peripheral\PIC32MX130F064B_peripherals.a(peripheral.o)
 .text.PLIB_DMA_CRCPolynomialLengthGet
                0x00000000        0xc ..\..\..\..\..\..\..\..\microchip\harmony\v2_06\bin\framework\peripheral\PIC32MX130F064B_peripherals.a(peripheral.o)
 .text.PLIB_DMA_ExistsCRCBitOrder
                0x00000000        0x8 ..\..\..\..\..\..\..\..\microchip\harmony\v2_06\bin\framework\peripheral\PIC32MX130F064B_peripherals.a(peripheral.o)
 .text.PLIB_DMA_CRCBitOrderSelect
                0x00000000       0x14 ..\..\..\..\..\..\..\..\microchip\harmony\v2_06\bin\framework\peripheral\PIC32MX130F064B_peripherals.a(peripheral.o)
 .text.PLIB_DMA_ExistsCRCWriteByteOrder
                0x00000000        0x8 ..\..\..\..\..\..\..\..\microchip\harmony\v2_06\bin\framework\peripheral\PIC32MX130F064B_peripherals.a(peripheral.o)
 .text.PLIB_DMA_CRCWriteByteOrderAlter
                0x00000000       0x10 ..\..\..\..\..\..\..\..\microchip\harmony\v2_06\bin\framework\peripheral\PIC32MX130F064B_peripherals.a(peripheral.o)
 .text.PLIB_DMA_CRCWriteByteOrderMaintain
                0x00000000       0x10 ..\..\..\..\..\..\..\..\microchip\harmony\v2_06\bin\framework\peripheral\PIC32MX130F064B_peripherals.a(peripheral.o)
 .text.PLIB_DMA_ExistsCRCByteOrder
                0x00000000        0x8 ..\..\..\..\..\..\..\..\microchip\harmony\v2_06\bin\framework\peripheral\PIC32MX130F064B_peripherals.a(peripheral.o)
 .text.PLIB_DMA_CRCByteOrderSelect
                0x00000000       0x14 ..\..\..\..\..\..\..\..\microchip\harmony\v2_06\bin\framework\peripheral\PIC32MX130F064B_peripherals.a(peripheral.o)
 .text.PLIB_DMA_CRCByteOrderGet
                0x00000000        0xc ..\..\..\..\..\..\..\..\microchip\harmony\v2_06\bin\framework\peripheral\PIC32MX130F064B_peripherals.a(peripheral.o)
 .text.PLIB_DMA_ExistsCRCData
                0x00000000        0x8 ..\..\..\..\..\..\..\..\microchip\harmony\v2_06\bin\framework\peripheral\PIC32MX130F064B_peripherals.a(peripheral.o)
 .text.PLIB_DMA_CRCDataRead
                0x00000000        0xc ..\..\..\..\..\..\..\..\microchip\harmony\v2_06\bin\framework\peripheral\PIC32MX130F064B_peripherals.a(peripheral.o)
 .text.PLIB_DMA_CRCDataWrite
                0x00000000        0xc ..\..\..\..\..\..\..\..\microchip\harmony\v2_06\bin\framework\peripheral\PIC32MX130F064B_peripherals.a(peripheral.o)
 .text.PLIB_DMA_ExistsCRCXOREnable
                0x00000000        0x8 ..\..\..\..\..\..\..\..\microchip\harmony\v2_06\bin\framework\peripheral\PIC32MX130F064B_peripherals.a(peripheral.o)
 .text.PLIB_DMA_CRCXOREnableSet
                0x00000000        0xc ..\..\..\..\..\..\..\..\microchip\harmony\v2_06\bin\framework\peripheral\PIC32MX130F064B_peripherals.a(peripheral.o)
 .text.PLIB_DMA_CRCXOREnableGet
                0x00000000        0xc ..\..\..\..\..\..\..\..\microchip\harmony\v2_06\bin\framework\peripheral\PIC32MX130F064B_peripherals.a(peripheral.o)
 .text.PLIB_DMA_ExistsChannelXPriority
                0x00000000        0x8 ..\..\..\..\..\..\..\..\microchip\harmony\v2_06\bin\framework\peripheral\PIC32MX130F064B_peripherals.a(peripheral.o)
 .text.PLIB_DMA_ChannelXPrioritySelect
                0x00000000       0x24 ..\..\..\..\..\..\..\..\microchip\harmony\v2_06\bin\framework\peripheral\PIC32MX130F064B_peripherals.a(peripheral.o)
 .text.PLIB_DMA_ChannelXPriorityGet
                0x00000000       0x1c ..\..\..\..\..\..\..\..\microchip\harmony\v2_06\bin\framework\peripheral\PIC32MX130F064B_peripherals.a(peripheral.o)
 .text.PLIB_DMA_ExistsChannelXEvent
                0x00000000        0x8 ..\..\..\..\..\..\..\..\microchip\harmony\v2_06\bin\framework\peripheral\PIC32MX130F064B_peripherals.a(peripheral.o)
 .text.PLIB_DMA_ChannelXEventIsDetected
                0x00000000       0x1c ..\..\..\..\..\..\..\..\microchip\harmony\v2_06\bin\framework\peripheral\PIC32MX130F064B_peripherals.a(peripheral.o)
 .text.PLIB_DMA_ExistsChannelXAuto
                0x00000000        0x8 ..\..\..\..\..\..\..\..\microchip\harmony\v2_06\bin\framework\peripheral\PIC32MX130F064B_peripherals.a(peripheral.o)
 .text.PLIB_DMA_ChannelXAutoEnable
                0x00000000       0x20 ..\..\..\..\..\..\..\..\microchip\harmony\v2_06\bin\framework\peripheral\PIC32MX130F064B_peripherals.a(peripheral.o)
 .text.PLIB_DMA_ChannelXAutoDisable
                0x00000000       0x20 ..\..\..\..\..\..\..\..\microchip\harmony\v2_06\bin\framework\peripheral\PIC32MX130F064B_peripherals.a(peripheral.o)
 .text.PLIB_DMA_ChannelXAutoIsEnabled
                0x00000000       0x1c ..\..\..\..\..\..\..\..\microchip\harmony\v2_06\bin\framework\peripheral\PIC32MX130F064B_peripherals.a(peripheral.o)
 .text.PLIB_DMA_ExistsChannelXChainEnbl
                0x00000000        0x8 ..\..\..\..\..\..\..\..\microchip\harmony\v2_06\bin\framework\peripheral\PIC32MX130F064B_peripherals.a(peripheral.o)
 .text.PLIB_DMA_ChannelXChainEnable
                0x00000000       0x20 ..\..\..\..\..\..\..\..\microchip\harmony\v2_06\bin\framework\peripheral\PIC32MX130F064B_peripherals.a(peripheral.o)
 .text.PLIB_DMA_ChannelXChainDisable
                0x00000000       0x20 ..\..\..\..\..\..\..\..\microchip\harmony\v2_06\bin\framework\peripheral\PIC32MX130F064B_peripherals.a(peripheral.o)
 .text.PLIB_DMA_ChannelXChainIsEnabled
                0x00000000       0x1c ..\..\..\..\..\..\..\..\microchip\harmony\v2_06\bin\framework\peripheral\PIC32MX130F064B_peripherals.a(peripheral.o)
 .text.PLIB_DMA_ExistsChannelXDisabled
                0x00000000        0x8 ..\..\..\..\..\..\..\..\microchip\harmony\v2_06\bin\framework\peripheral\PIC32MX130F064B_peripherals.a(peripheral.o)
 .text.PLIB_DMA_ChannelXDisabledEnablesEvents
                0x00000000       0x20 ..\..\..\..\..\..\..\..\microchip\harmony\v2_06\bin\framework\peripheral\PIC32MX130F064B_peripherals.a(peripheral.o)
 .text.PLIB_DMA_ChannelXDisabledDisablesEvents
                0x00000000       0x20 ..\..\..\..\..\..\..\..\microchip\harmony\v2_06\bin\framework\peripheral\PIC32MX130F064B_peripherals.a(peripheral.o)
 .text.PLIB_DMA_ExistsChannelX
                0x00000000        0x8 ..\..\..\..\..\..\..\..\microchip\harmony\v2_06\bin\framework\peripheral\PIC32MX130F064B_peripherals.a(peripheral.o)
 .text.PLIB_DMA_ChannelXEnable
                0x00000000       0x20 ..\..\..\..\..\..\..\..\microchip\harmony\v2_06\bin\framework\peripheral\PIC32MX130F064B_peripherals.a(peripheral.o)
 .text.PLIB_DMA_ChannelXIsEnabled
                0x00000000       0x1c ..\..\..\..\..\..\..\..\microchip\harmony\v2_06\bin\framework\peripheral\PIC32MX130F064B_peripherals.a(peripheral.o)
 .text.PLIB_DMA_ChannelXDisable
                0x00000000       0x20 ..\..\..\..\..\..\..\..\microchip\harmony\v2_06\bin\framework\peripheral\PIC32MX130F064B_peripherals.a(peripheral.o)
 .text.PLIB_DMA_ExistsChannelXChain
                0x00000000        0x8 ..\..\..\..\..\..\..\..\microchip\harmony\v2_06\bin\framework\peripheral\PIC32MX130F064B_peripherals.a(peripheral.o)
 .text.PLIB_DMA_ChannelXChainToLower
                0x00000000       0x20 ..\..\..\..\..\..\..\..\microchip\harmony\v2_06\bin\framework\peripheral\PIC32MX130F064B_peripherals.a(peripheral.o)
 .text.PLIB_DMA_ChannelXChainToHigher
                0x00000000       0x20 ..\..\..\..\..\..\..\..\microchip\harmony\v2_06\bin\framework\peripheral\PIC32MX130F064B_peripherals.a(peripheral.o)
 .text.PLIB_DMA_ExistsChannelXPatternLength
                0x00000000        0x8 ..\..\..\..\..\..\..\..\microchip\harmony\v2_06\bin\framework\peripheral\PIC32MX130F064B_peripherals.a(peripheral.o)
 .text.PLIB_DMA_ChannelXPatternLengthSet
                0x00000000        0x8 ..\..\..\..\..\..\..\..\microchip\harmony\v2_06\bin\framework\peripheral\PIC32MX130F064B_peripherals.a(peripheral.o)
 .text.PLIB_DMA_ChannelXPatternLengthGet
                0x00000000        0x8 ..\..\..\..\..\..\..\..\microchip\harmony\v2_06\bin\framework\peripheral\PIC32MX130F064B_peripherals.a(peripheral.o)
 .text.PLIB_DMA_ExistsChannelXPatternIgnoreByte
                0x00000000        0x8 ..\..\..\..\..\..\..\..\microchip\harmony\v2_06\bin\framework\peripheral\PIC32MX130F064B_peripherals.a(peripheral.o)
 .text.PLIB_DMA_ChannelXPatternIgnoreByteEnable
                0x00000000        0x8 ..\..\..\..\..\..\..\..\microchip\harmony\v2_06\bin\framework\peripheral\PIC32MX130F064B_peripherals.a(peripheral.o)
 .text.PLIB_DMA_ChannelXPatternIgnoreByteIsEnabled
                0x00000000        0x8 ..\..\..\..\..\..\..\..\microchip\harmony\v2_06\bin\framework\peripheral\PIC32MX130F064B_peripherals.a(peripheral.o)
 .text.PLIB_DMA_ChannelXPatternIgnoreByteDisable
                0x00000000        0x8 ..\..\..\..\..\..\..\..\microchip\harmony\v2_06\bin\framework\peripheral\PIC32MX130F064B_peripherals.a(peripheral.o)
 .text.PLIB_DMA_ExistsChannelXBusy
                0x00000000        0x8 ..\..\..\..\..\..\..\..\microchip\harmony\v2_06\bin\framework\peripheral\PIC32MX130F064B_peripherals.a(peripheral.o)
 .text.PLIB_DMA_ChannelXBusyActiveSet
                0x00000000       0x20 ..\..\..\..\..\..\..\..\microchip\harmony\v2_06\bin\framework\peripheral\PIC32MX130F064B_peripherals.a(peripheral.o)
 .text.PLIB_DMA_ChannelXBusyInActiveSet
                0x00000000       0x20 ..\..\..\..\..\..\..\..\microchip\harmony\v2_06\bin\framework\peripheral\PIC32MX130F064B_peripherals.a(peripheral.o)
 .text.PLIB_DMA_ChannelXBusyIsBusy
                0x00000000       0x1c ..\..\..\..\..\..\..\..\microchip\harmony\v2_06\bin\framework\peripheral\PIC32MX130F064B_peripherals.a(peripheral.o)
 .text.PLIB_DMA_ExistsChannelXPatternIgnore
                0x00000000        0x8 ..\..\..\..\..\..\..\..\microchip\harmony\v2_06\bin\framework\peripheral\PIC32MX130F064B_peripherals.a(peripheral.o)
 .text.PLIB_DMA_ChannelXPatternIgnoreSet
                0x00000000        0x8 ..\..\..\..\..\..\..\..\microchip\harmony\v2_06\bin\framework\peripheral\PIC32MX130F064B_peripherals.a(peripheral.o)
 .text.PLIB_DMA_ChannelXPatternIgnoreGet
                0x00000000        0x8 ..\..\..\..\..\..\..\..\microchip\harmony\v2_06\bin\framework\peripheral\PIC32MX130F064B_peripherals.a(peripheral.o)
 .text.PLIB_DMA_ExistsChannelXTrigger
                0x00000000        0x8 ..\..\..\..\..\..\..\..\microchip\harmony\v2_06\bin\framework\peripheral\PIC32MX130F064B_peripherals.a(peripheral.o)
 .text.PLIB_DMA_ChannelXTriggerEnable
                0x00000000       0x58 ..\..\..\..\..\..\..\..\microchip\harmony\v2_06\bin\framework\peripheral\PIC32MX130F064B_peripherals.a(peripheral.o)
 .text.PLIB_DMA_ChannelXTriggerIsEnabled
                0x00000000       0x5c ..\..\..\..\..\..\..\..\microchip\harmony\v2_06\bin\framework\peripheral\PIC32MX130F064B_peripherals.a(peripheral.o)
 .text.PLIB_DMA_ChannelXTriggerDisable
                0x00000000       0x58 ..\..\..\..\..\..\..\..\microchip\harmony\v2_06\bin\framework\peripheral\PIC32MX130F064B_peripherals.a(peripheral.o)
 .text.PLIB_DMA_ChannelXTriggerSourceNumberGet
                0x00000000        0x8 ..\..\..\..\..\..\..\..\microchip\harmony\v2_06\bin\framework\peripheral\PIC32MX130F064B_peripherals.a(peripheral.o)
 .text.PLIB_DMA_ExistsAbortTransfer
                0x00000000        0x8 ..\..\..\..\..\..\..\..\microchip\harmony\v2_06\bin\framework\peripheral\PIC32MX130F064B_peripherals.a(peripheral.o)
 .text.PLIB_DMA_AbortTransferSet
                0x00000000       0x20 ..\..\..\..\..\..\..\..\microchip\harmony\v2_06\bin\framework\peripheral\PIC32MX130F064B_peripherals.a(peripheral.o)
 .text.PLIB_DMA_ExistsStartTransfer
                0x00000000        0x8 ..\..\..\..\..\..\..\..\microchip\harmony\v2_06\bin\framework\peripheral\PIC32MX130F064B_peripherals.a(peripheral.o)
 .text.PLIB_DMA_StartTransferSet
                0x00000000       0x20 ..\..\..\..\..\..\..\..\microchip\harmony\v2_06\bin\framework\peripheral\PIC32MX130F064B_peripherals.a(peripheral.o)
 .text.PLIB_DMA_ExistsChannelXStartIRQ
                0x00000000        0x8 ..\..\..\..\..\..\..\..\microchip\harmony\v2_06\bin\framework\peripheral\PIC32MX130F064B_peripherals.a(peripheral.o)
 .text.PLIB_DMA_ChannelXStartIRQSet
                0x00000000       0x20 ..\..\..\..\..\..\..\..\microchip\harmony\v2_06\bin\framework\peripheral\PIC32MX130F064B_peripherals.a(peripheral.o)
 .text.PLIB_DMA_ExistsChannelXAbortIRQ
                0x00000000        0x8 ..\..\..\..\..\..\..\..\microchip\harmony\v2_06\bin\framework\peripheral\PIC32MX130F064B_peripherals.a(peripheral.o)
 .text.PLIB_DMA_ChannelXAbortIRQSet
                0x00000000       0x20 ..\..\..\..\..\..\..\..\microchip\harmony\v2_06\bin\framework\peripheral\PIC32MX130F064B_peripherals.a(peripheral.o)
 .text.PLIB_DMA_ExistsChannelXINTSourceFlag
                0x00000000        0x8 ..\..\..\..\..\..\..\..\microchip\harmony\v2_06\bin\framework\peripheral\PIC32MX130F064B_peripherals.a(peripheral.o)
 .text.PLIB_DMA_ChannelXINTSourceFlagGet
                0x00000000       0xe8 ..\..\..\..\..\..\..\..\microchip\harmony\v2_06\bin\framework\peripheral\PIC32MX130F064B_peripherals.a(peripheral.o)
 .text.PLIB_DMA_ChannelXINTSourceFlagSet
                0x00000000       0x94 ..\..\..\..\..\..\..\..\microchip\harmony\v2_06\bin\framework\peripheral\PIC32MX130F064B_peripherals.a(peripheral.o)
 .text.PLIB_DMA_ChannelXINTSourceFlagClear
                0x00000000       0x94 ..\..\..\..\..\..\..\..\microchip\harmony\v2_06\bin\framework\peripheral\PIC32MX130F064B_peripherals.a(peripheral.o)
 .text.PLIB_DMA_ExistsChannelXINTSource
                0x00000000        0x8 ..\..\..\..\..\..\..\..\microchip\harmony\v2_06\bin\framework\peripheral\PIC32MX130F064B_peripherals.a(peripheral.o)
 .text.PLIB_DMA_ChannelXINTSourceEnable
                0x00000000       0xe4 ..\..\..\..\..\..\..\..\microchip\harmony\v2_06\bin\framework\peripheral\PIC32MX130F064B_peripherals.a(peripheral.o)
 .text.PLIB_DMA_ChannelXINTSourceDisable
                0x00000000       0xe4 ..\..\..\..\..\..\..\..\microchip\harmony\v2_06\bin\framework\peripheral\PIC32MX130F064B_peripherals.a(peripheral.o)
 .text.PLIB_DMA_ChannelXINTSourceIsEnabled
                0x00000000       0xe8 ..\..\..\..\..\..\..\..\microchip\harmony\v2_06\bin\framework\peripheral\PIC32MX130F064B_peripherals.a(peripheral.o)
 .text.PLIB_DMA_ExistsChannelXSourceStartAddress
                0x00000000        0x8 ..\..\..\..\..\..\..\..\microchip\harmony\v2_06\bin\framework\peripheral\PIC32MX130F064B_peripherals.a(peripheral.o)
 .text.PLIB_DMA_ChannelXSourceStartAddressGet
                0x00000000       0x64 ..\..\..\..\..\..\..\..\microchip\harmony\v2_06\bin\framework\peripheral\PIC32MX130F064B_peripherals.a(peripheral.o)
 .text.PLIB_DMA_ChannelXSourceStartAddressSet
                0x00000000       0x78 ..\..\..\..\..\..\..\..\microchip\harmony\v2_06\bin\framework\peripheral\PIC32MX130F064B_peripherals.a(peripheral.o)
 .text.PLIB_DMA_ExistsChannelXDestinationStartAddress
                0x00000000        0x8 ..\..\..\..\..\..\..\..\microchip\harmony\v2_06\bin\framework\peripheral\PIC32MX130F064B_peripherals.a(peripheral.o)
 .text.PLIB_DMA_ChannelXDestinationStartAddressGet
                0x00000000       0x64 ..\..\..\..\..\..\..\..\microchip\harmony\v2_06\bin\framework\peripheral\PIC32MX130F064B_peripherals.a(peripheral.o)
 .text.PLIB_DMA_ChannelXDestinationStartAddressSet
                0x00000000       0x78 ..\..\..\..\..\..\..\..\microchip\harmony\v2_06\bin\framework\peripheral\PIC32MX130F064B_peripherals.a(peripheral.o)
 .text.PLIB_DMA_ExistsChannelXSourceSize
                0x00000000        0x8 ..\..\..\..\..\..\..\..\microchip\harmony\v2_06\bin\framework\peripheral\PIC32MX130F064B_peripherals.a(peripheral.o)
 .text.PLIB_DMA_ChannelXSourceSizeGet
                0x00000000       0x1c ..\..\..\..\..\..\..\..\microchip\harmony\v2_06\bin\framework\peripheral\PIC32MX130F064B_peripherals.a(peripheral.o)
 .text.PLIB_DMA_ChannelXSourceSizeSet
                0x00000000       0x1c ..\..\..\..\..\..\..\..\microchip\harmony\v2_06\bin\framework\peripheral\PIC32MX130F064B_peripherals.a(peripheral.o)
 .text.PLIB_DMA_ExistsChannelXDestinationSize
                0x00000000        0x8 ..\..\..\..\..\..\..\..\microchip\harmony\v2_06\bin\framework\peripheral\PIC32MX130F064B_peripherals.a(peripheral.o)
 .text.PLIB_DMA_ChannelXDestinationSizeGet
                0x00000000       0x1c ..\..\..\..\..\..\..\..\microchip\harmony\v2_06\bin\framework\peripheral\PIC32MX130F064B_peripherals.a(peripheral.o)
 .text.PLIB_DMA_ChannelXDestinationSizeSet
                0x00000000       0x1c ..\..\..\..\..\..\..\..\microchip\harmony\v2_06\bin\framework\peripheral\PIC32MX130F064B_peripherals.a(peripheral.o)
 .text.PLIB_DMA_ExistsChannelXSourcePointer
                0x00000000        0x8 ..\..\..\..\..\..\..\..\microchip\harmony\v2_06\bin\framework\peripheral\PIC32MX130F064B_peripherals.a(peripheral.o)
 .text.PLIB_DMA_ChannelXSourcePointerGet
                0x00000000       0x1c ..\..\..\..\..\..\..\..\microchip\harmony\v2_06\bin\framework\peripheral\PIC32MX130F064B_peripherals.a(peripheral.o)
 .text.PLIB_DMA_ExistsChannelXDestinationPointer
                0x00000000        0x8 ..\..\..\..\..\..\..\..\microchip\harmony\v2_06\bin\framework\peripheral\PIC32MX130F064B_peripherals.a(peripheral.o)
 .text.PLIB_DMA_ChannelXDestinationPointerGet
                0x00000000       0x1c ..\..\..\..\..\..\..\..\microchip\harmony\v2_06\bin\framework\peripheral\PIC32MX130F064B_peripherals.a(peripheral.o)
 .text.PLIB_DMA_ExistsChannelXCellSize
                0x00000000        0x8 ..\..\..\..\..\..\..\..\microchip\harmony\v2_06\bin\framework\peripheral\PIC32MX130F064B_peripherals.a(peripheral.o)
 .text.PLIB_DMA_ChannelXCellSizeGet
                0x00000000       0x1c ..\..\..\..\..\..\..\..\microchip\harmony\v2_06\bin\framework\peripheral\PIC32MX130F064B_peripherals.a(peripheral.o)
 .text.PLIB_DMA_ChannelXCellSizeSet
                0x00000000       0x1c ..\..\..\..\..\..\..\..\microchip\harmony\v2_06\bin\framework\peripheral\PIC32MX130F064B_peripherals.a(peripheral.o)
 .text.PLIB_DMA_ExistsChannelXCellProgressPointer
                0x00000000        0x8 ..\..\..\..\..\..\..\..\microchip\harmony\v2_06\bin\framework\peripheral\PIC32MX130F064B_peripherals.a(peripheral.o)
 .text.PLIB_DMA_ChannelXCellProgressPointerGet
                0x00000000       0x1c ..\..\..\..\..\..\..\..\microchip\harmony\v2_06\bin\framework\peripheral\PIC32MX130F064B_peripherals.a(peripheral.o)
 .text.PLIB_DMA_ExistsChannelXPatternData
                0x00000000        0x8 ..\..\..\..\..\..\..\..\microchip\harmony\v2_06\bin\framework\peripheral\PIC32MX130F064B_peripherals.a(peripheral.o)
 .text.PLIB_DMA_ChannelXPatternDataGet
                0x00000000       0x1c ..\..\..\..\..\..\..\..\microchip\harmony\v2_06\bin\framework\peripheral\PIC32MX130F064B_peripherals.a(peripheral.o)
 .text.PLIB_DMA_ChannelXPatternDataSet
                0x00000000       0x1c ..\..\..\..\..\..\..\..\microchip\harmony\v2_06\bin\framework\peripheral\PIC32MX130F064B_peripherals.a(peripheral.o)
 .text.PLIB_DMT_Enable
                0x00000000        0x8 ..\..\..\..\..\..\..\..\microchip\harmony\v2_06\bin\framework\peripheral\PIC32MX130F064B_peripherals.a(peripheral.o)
 .text.PLIB_DMT_Disable
                0x00000000        0x8 ..\..\..\..\..\..\..\..\microchip\harmony\v2_06\bin\framework\peripheral\PIC32MX130F064B_peripherals.a(peripheral.o)
 .text.PLIB_DMT_IsEnabled
                0x00000000        0x8 ..\..\..\..\..\..\..\..\microchip\harmony\v2_06\bin\framework\peripheral\PIC32MX130F064B_peripherals.a(peripheral.o)
 .text.PLIB_DMT_ExistsEnableControl
                0x00000000        0x8 ..\..\..\..\..\..\..\..\microchip\harmony\v2_06\bin\framework\peripheral\PIC32MX130F064B_peripherals.a(peripheral.o)
 .text.PLIB_DMT_WindowIsOpen
                0x00000000        0x8 ..\..\..\..\..\..\..\..\microchip\harmony\v2_06\bin\framework\peripheral\PIC32MX130F064B_peripherals.a(peripheral.o)
 .text.PLIB_DMT_EventOccurred
                0x00000000        0x8 ..\..\..\..\..\..\..\..\microchip\harmony\v2_06\bin\framework\peripheral\PIC32MX130F064B_peripherals.a(peripheral.o)
 .text.PLIB_DMT_BAD2Get
                0x00000000        0x8 ..\..\..\..\..\..\..\..\microchip\harmony\v2_06\bin\framework\peripheral\PIC32MX130F064B_peripherals.a(peripheral.o)
 .text.PLIB_DMT_BAD1Get
                0x00000000        0x8 ..\..\..\..\..\..\..\..\microchip\harmony\v2_06\bin\framework\peripheral\PIC32MX130F064B_peripherals.a(peripheral.o)
 .text.PLIB_DMT_ExistsStatus
                0x00000000        0x8 ..\..\..\..\..\..\..\..\microchip\harmony\v2_06\bin\framework\peripheral\PIC32MX130F064B_peripherals.a(peripheral.o)
 .text.PLIB_DMT_ClearStep1
                0x00000000        0x8 ..\..\..\..\..\..\..\..\microchip\harmony\v2_06\bin\framework\peripheral\PIC32MX130F064B_peripherals.a(peripheral.o)
 .text.PLIB_DMT_ExistsStep1
                0x00000000        0x8 ..\..\..\..\..\..\..\..\microchip\harmony\v2_06\bin\framework\peripheral\PIC32MX130F064B_peripherals.a(peripheral.o)
 .text.PLIB_DMT_ClearStep2
                0x00000000        0x8 ..\..\..\..\..\..\..\..\microchip\harmony\v2_06\bin\framework\peripheral\PIC32MX130F064B_peripherals.a(peripheral.o)
 .text.PLIB_DMT_ExistsStep2
                0x00000000        0x8 ..\..\..\..\..\..\..\..\microchip\harmony\v2_06\bin\framework\peripheral\PIC32MX130F064B_peripherals.a(peripheral.o)
 .text.PLIB_DMT_CounterGet
                0x00000000        0x8 ..\..\..\..\..\..\..\..\microchip\harmony\v2_06\bin\framework\peripheral\PIC32MX130F064B_peripherals.a(peripheral.o)
 .text.PLIB_DMT_ExistsCounter
                0x00000000        0x8 ..\..\..\..\..\..\..\..\microchip\harmony\v2_06\bin\framework\peripheral\PIC32MX130F064B_peripherals.a(peripheral.o)
 .text.PLIB_DMT_PostscalerValueGet
                0x00000000        0x8 ..\..\..\..\..\..\..\..\microchip\harmony\v2_06\bin\framework\peripheral\PIC32MX130F064B_peripherals.a(peripheral.o)
 .text.PLIB_DMT_ExistsPostscalerValue
                0x00000000        0x8 ..\..\..\..\..\..\..\..\microchip\harmony\v2_06\bin\framework\peripheral\PIC32MX130F064B_peripherals.a(peripheral.o)
 .text.PLIB_DMT_PostscalerIntervalGet
                0x00000000        0x8 ..\..\..\..\..\..\..\..\microchip\harmony\v2_06\bin\framework\peripheral\PIC32MX130F064B_peripherals.a(peripheral.o)
 .text.PLIB_DMT_ExistsPostscalerInterval
                0x00000000        0x8 ..\..\..\..\..\..\..\..\microchip\harmony\v2_06\bin\framework\peripheral\PIC32MX130F064B_peripherals.a(peripheral.o)
 .text.PLIB_EBI_BaseAddressSet
                0x00000000        0x8 ..\..\..\..\..\..\..\..\microchip\harmony\v2_06\bin\framework\peripheral\PIC32MX130F064B_peripherals.a(peripheral.o)
 .text.PLIB_EBI_BaseAddressGet
                0x00000000        0x8 ..\..\..\..\..\..\..\..\microchip\harmony\v2_06\bin\framework\peripheral\PIC32MX130F064B_peripherals.a(peripheral.o)
 .text.PLIB_EBI_ExistsBaseAddress
                0x00000000        0x8 ..\..\..\..\..\..\..\..\microchip\harmony\v2_06\bin\framework\peripheral\PIC32MX130F064B_peripherals.a(peripheral.o)
 .text.PLIB_EBI_MemoryCharacteristicsSet
                0x00000000        0x8 ..\..\..\..\..\..\..\..\microchip\harmony\v2_06\bin\framework\peripheral\PIC32MX130F064B_peripherals.a(peripheral.o)
 .text.PLIB_EBI_ExistsMemoryCharacteristics
                0x00000000        0x8 ..\..\..\..\..\..\..\..\microchip\harmony\v2_06\bin\framework\peripheral\PIC32MX130F064B_peripherals.a(peripheral.o)
 .text.PLIB_EBI_MemoryTimingConfigSet
                0x00000000        0x8 ..\..\..\..\..\..\..\..\microchip\harmony\v2_06\bin\framework\peripheral\PIC32MX130F064B_peripherals.a(peripheral.o)
 .text.PLIB_EBI_ExistsMemoryTimingConfig
                0x00000000        0x8 ..\..\..\..\..\..\..\..\microchip\harmony\v2_06\bin\framework\peripheral\PIC32MX130F064B_peripherals.a(peripheral.o)
 .text.PLIB_EBI_ReadyModeSet
                0x00000000        0x8 ..\..\..\..\..\..\..\..\microchip\harmony\v2_06\bin\framework\peripheral\PIC32MX130F064B_peripherals.a(peripheral.o)
 .text.PLIB_EBI_ReadyModeGet
                0x00000000        0x8 ..\..\..\..\..\..\..\..\microchip\harmony\v2_06\bin\framework\peripheral\PIC32MX130F064B_peripherals.a(peripheral.o)
 .text.PLIB_EBI_ExistsReadyMode
                0x00000000        0x8 ..\..\..\..\..\..\..\..\microchip\harmony\v2_06\bin\framework\peripheral\PIC32MX130F064B_peripherals.a(peripheral.o)
 .text.PLIB_EBI_MemoryPagingSet
                0x00000000        0x8 ..\..\..\..\..\..\..\..\microchip\harmony\v2_06\bin\framework\peripheral\PIC32MX130F064B_peripherals.a(peripheral.o)
 .text.PLIB_EBI_MemoryPageSizeGet
                0x00000000        0x8 ..\..\..\..\..\..\..\..\microchip\harmony\v2_06\bin\framework\peripheral\PIC32MX130F064B_peripherals.a(peripheral.o)
 .text.PLIB_EBI_ExistsMemoryPaging
                0x00000000        0x8 ..\..\..\..\..\..\..\..\microchip\harmony\v2_06\bin\framework\peripheral\PIC32MX130F064B_peripherals.a(peripheral.o)
 .text.PLIB_EBI_PageModeGet
                0x00000000        0x8 ..\..\..\..\..\..\..\..\microchip\harmony\v2_06\bin\framework\peripheral\PIC32MX130F064B_peripherals.a(peripheral.o)
 .text.PLIB_EBI_ExistsPageMode
                0x00000000        0x8 ..\..\..\..\..\..\..\..\microchip\harmony\v2_06\bin\framework\peripheral\PIC32MX130F064B_peripherals.a(peripheral.o)
 .text.PLIB_EBI_PageReadCycleTimeGet
                0x00000000        0x8 ..\..\..\..\..\..\..\..\microchip\harmony\v2_06\bin\framework\peripheral\PIC32MX130F064B_peripherals.a(peripheral.o)
 .text.PLIB_EBI_ExistsPageReadTime
                0x00000000        0x8 ..\..\..\..\..\..\..\..\microchip\harmony\v2_06\bin\framework\peripheral\PIC32MX130F064B_peripherals.a(peripheral.o)
 .text.PLIB_EBI_DataTurnAroundTimeGet
                0x00000000        0x8 ..\..\..\..\..\..\..\..\microchip\harmony\v2_06\bin\framework\peripheral\PIC32MX130F064B_peripherals.a(peripheral.o)
 .text.PLIB_EBI_ExistsDataTurnAroundTime
                0x00000000        0x8 ..\..\..\..\..\..\..\..\microchip\harmony\v2_06\bin\framework\peripheral\PIC32MX130F064B_peripherals.a(peripheral.o)
 .text.PLIB_EBI_WritePulseWidthGet
                0x00000000        0x8 ..\..\..\..\..\..\..\..\microchip\harmony\v2_06\bin\framework\peripheral\PIC32MX130F064B_peripherals.a(peripheral.o)
 .text.PLIB_EBI_ExistsWritePulseWidth
                0x00000000        0x8 ..\..\..\..\..\..\..\..\microchip\harmony\v2_06\bin\framework\peripheral\PIC32MX130F064B_peripherals.a(peripheral.o)
 .text.PLIB_EBI_AddressHoldTimeGet
                0x00000000        0x8 ..\..\..\..\..\..\..\..\microchip\harmony\v2_06\bin\framework\peripheral\PIC32MX130F064B_peripherals.a(peripheral.o)
 .text.PLIB_EBI_ExistsAddressHoldTime
                0x00000000        0x8 ..\..\..\..\..\..\..\..\microchip\harmony\v2_06\bin\framework\peripheral\PIC32MX130F064B_peripherals.a(peripheral.o)
 .text.PLIB_EBI_AddressSetupTimeGet
                0x00000000        0x8 ..\..\..\..\..\..\..\..\microchip\harmony\v2_06\bin\framework\peripheral\PIC32MX130F064B_peripherals.a(peripheral.o)
 .text.PLIB_EBI_ExistsAddressSetupTime
                0x00000000        0x8 ..\..\..\..\..\..\..\..\microchip\harmony\v2_06\bin\framework\peripheral\PIC32MX130F064B_peripherals.a(peripheral.o)
 .text.PLIB_EBI_ReadCycleTimeGet
                0x00000000        0x8 ..\..\..\..\..\..\..\..\microchip\harmony\v2_06\bin\framework\peripheral\PIC32MX130F064B_peripherals.a(peripheral.o)
 .text.PLIB_EBI_ExistsReadCycleTime
                0x00000000        0x8 ..\..\..\..\..\..\..\..\microchip\harmony\v2_06\bin\framework\peripheral\PIC32MX130F064B_peripherals.a(peripheral.o)
 .text.PLIB_EBI_FlashTimingSet
                0x00000000        0x8 ..\..\..\..\..\..\..\..\microchip\harmony\v2_06\bin\framework\peripheral\PIC32MX130F064B_peripherals.a(peripheral.o)
 .text.PLIB_EBI_FlashTimingGet
                0x00000000        0x8 ..\..\..\..\..\..\..\..\microchip\harmony\v2_06\bin\framework\peripheral\PIC32MX130F064B_peripherals.a(peripheral.o)
 .text.PLIB_EBI_ExistsFlashTiming
                0x00000000        0x8 ..\..\..\..\..\..\..\..\microchip\harmony\v2_06\bin\framework\peripheral\PIC32MX130F064B_peripherals.a(peripheral.o)
 .text.PLIB_EBI_StaticMemoryWidthRegisterSet
                0x00000000        0x8 ..\..\..\..\..\..\..\..\microchip\harmony\v2_06\bin\framework\peripheral\PIC32MX130F064B_peripherals.a(peripheral.o)
 .text.PLIB_EBI_StaticMemoryWidthRegisterGet
                0x00000000        0x8 ..\..\..\..\..\..\..\..\microchip\harmony\v2_06\bin\framework\peripheral\PIC32MX130F064B_peripherals.a(peripheral.o)
 .text.PLIB_EBI_ExistsStaticMemoryWidthRegister
                0x00000000        0x8 ..\..\..\..\..\..\..\..\microchip\harmony\v2_06\bin\framework\peripheral\PIC32MX130F064B_peripherals.a(peripheral.o)
 .text.PLIB_EBI_FlashPowerDownModeSet
                0x00000000        0x8 ..\..\..\..\..\..\..\..\microchip\harmony\v2_06\bin\framework\peripheral\PIC32MX130F064B_peripherals.a(peripheral.o)
 .text.PLIB_EBI_FlashPowerDownModeGet
                0x00000000        0x8 ..\..\..\..\..\..\..\..\microchip\harmony\v2_06\bin\framework\peripheral\PIC32MX130F064B_peripherals.a(peripheral.o)
 .text.PLIB_EBI_ExistsFlashPowerDownMode
                0x00000000        0x8 ..\..\..\..\..\..\..\..\microchip\harmony\v2_06\bin\framework\peripheral\PIC32MX130F064B_peripherals.a(peripheral.o)
 .text.PLIB_EBI_ControlEnableSet
                0x00000000        0x8 ..\..\..\..\..\..\..\..\microchip\harmony\v2_06\bin\framework\peripheral\PIC32MX130F064B_peripherals.a(peripheral.o)
 .text.PLIB_EBI_ControlEnableGet
                0x00000000        0x8 ..\..\..\..\..\..\..\..\microchip\harmony\v2_06\bin\framework\peripheral\PIC32MX130F064B_peripherals.a(peripheral.o)
 .text.PLIB_EBI_ExistsControlEnable
                0x00000000        0x8 ..\..\..\..\..\..\..\..\microchip\harmony\v2_06\bin\framework\peripheral\PIC32MX130F064B_peripherals.a(peripheral.o)
 .text.PLIB_EBI_AddressPinEnableBitsSet
                0x00000000        0x8 ..\..\..\..\..\..\..\..\microchip\harmony\v2_06\bin\framework\peripheral\PIC32MX130F064B_peripherals.a(peripheral.o)
 .text.PLIB_EBI_ExistsAddressPinEnableBits
                0x00000000        0x8 ..\..\..\..\..\..\..\..\microchip\harmony\v2_06\bin\framework\peripheral\PIC32MX130F064B_peripherals.a(peripheral.o)
 .text.PLIB_EBI_ReadyPin3ConfigSet
                0x00000000        0x8 ..\..\..\..\..\..\..\..\microchip\harmony\v2_06\bin\framework\peripheral\PIC32MX130F064B_peripherals.a(peripheral.o)
 .text.PLIB_EBI_ExistsReadyPin3Config
                0x00000000        0x8 ..\..\..\..\..\..\..\..\microchip\harmony\v2_06\bin\framework\peripheral\PIC32MX130F064B_peripherals.a(peripheral.o)
 .text.PLIB_EBI_ReadyPin2ConfigSet
                0x00000000        0x8 ..\..\..\..\..\..\..\..\microchip\harmony\v2_06\bin\framework\peripheral\PIC32MX130F064B_peripherals.a(peripheral.o)
 .text.PLIB_EBI_ExistsReadyPin2Config
                0x00000000        0x8 ..\..\..\..\..\..\..\..\microchip\harmony\v2_06\bin\framework\peripheral\PIC32MX130F064B_peripherals.a(peripheral.o)
 .text.PLIB_EBI_ReadyPin1ConfigSet
                0x00000000        0x8 ..\..\..\..\..\..\..\..\microchip\harmony\v2_06\bin\framework\peripheral\PIC32MX130F064B_peripherals.a(peripheral.o)
 .text.PLIB_EBI_ExistsReadyPin1Config
                0x00000000        0x8 ..\..\..\..\..\..\..\..\microchip\harmony\v2_06\bin\framework\peripheral\PIC32MX130F064B_peripherals.a(peripheral.o)
 .text.PLIB_EBI_ReadyPinSensSet
                0x00000000        0x8 ..\..\..\..\..\..\..\..\microchip\harmony\v2_06\bin\framework\peripheral\PIC32MX130F064B_peripherals.a(peripheral.o)
 .text.PLIB_EBI_ExistsReadyPinSens
                0x00000000        0x8 ..\..\..\..\..\..\..\..\microchip\harmony\v2_06\bin\framework\peripheral\PIC32MX130F064B_peripherals.a(peripheral.o)
 .text.PLIB_EBI_FlashResetPinSet
                0x00000000        0x8 ..\..\..\..\..\..\..\..\microchip\harmony\v2_06\bin\framework\peripheral\PIC32MX130F064B_peripherals.a(peripheral.o)
 .text.PLIB_EBI_FlashResetPinGet
                0x00000000        0x8 ..\..\..\..\..\..\..\..\microchip\harmony\v2_06\bin\framework\peripheral\PIC32MX130F064B_peripherals.a(peripheral.o)
 .text.PLIB_EBI_ExistsFlashResetPin
                0x00000000        0x8 ..\..\..\..\..\..\..\..\microchip\harmony\v2_06\bin\framework\peripheral\PIC32MX130F064B_peripherals.a(peripheral.o)
 .text.PLIB_EBI_WriteOutputControlSet
                0x00000000        0x8 ..\..\..\..\..\..\..\..\microchip\harmony\v2_06\bin\framework\peripheral\PIC32MX130F064B_peripherals.a(peripheral.o)
 .text.PLIB_EBI_ExistsWriteOutputControl
                0x00000000        0x8 ..\..\..\..\..\..\..\..\microchip\harmony\v2_06\bin\framework\peripheral\PIC32MX130F064B_peripherals.a(peripheral.o)
 .text.PLIB_EBI_ByteSelectPinSet
                0x00000000        0x8 ..\..\..\..\..\..\..\..\microchip\harmony\v2_06\bin\framework\peripheral\PIC32MX130F064B_peripherals.a(peripheral.o)
 .text.PLIB_EBI_ExistsByteSelectPin
                0x00000000        0x8 ..\..\..\..\..\..\..\..\microchip\harmony\v2_06\bin\framework\peripheral\PIC32MX130F064B_peripherals.a(peripheral.o)
 .text.PLIB_EBI_ChipSelectEnableSet
                0x00000000        0x8 ..\..\..\..\..\..\..\..\microchip\harmony\v2_06\bin\framework\peripheral\PIC32MX130F064B_peripherals.a(peripheral.o)
 .text.PLIB_EBI_ExistsChipSelectEnable
                0x00000000        0x8 ..\..\..\..\..\..\..\..\microchip\harmony\v2_06\bin\framework\peripheral\PIC32MX130F064B_peripherals.a(peripheral.o)
 .text.PLIB_EBI_DataEnableSet
                0x00000000        0x8 ..\..\..\..\..\..\..\..\microchip\harmony\v2_06\bin\framework\peripheral\PIC32MX130F064B_peripherals.a(peripheral.o)
 .text.PLIB_EBI_ExistsDataEnable
                0x00000000        0x8 ..\..\..\..\..\..\..\..\microchip\harmony\v2_06\bin\framework\peripheral\PIC32MX130F064B_peripherals.a(peripheral.o)
 .text.PLIB_ETH_PauseTimerSet
                0x00000000        0x8 ..\..\..\..\..\..\..\..\microchip\harmony\v2_06\bin\framework\peripheral\PIC32MX130F064B_peripherals.a(peripheral.o)
 .text.PLIB_ETH_PauseTimerGet
                0x00000000        0x8 ..\..\..\..\..\..\..\..\microchip\harmony\v2_06\bin\framework\peripheral\PIC32MX130F064B_peripherals.a(peripheral.o)
 .text.PLIB_ETH_ExistsPauseTimer
                0x00000000        0x8 ..\..\..\..\..\..\..\..\microchip\harmony\v2_06\bin\framework\peripheral\PIC32MX130F064B_peripherals.a(peripheral.o)
 .text.PLIB_ETH_Enable
                0x00000000        0x8 ..\..\..\..\..\..\..\..\microchip\harmony\v2_06\bin\framework\peripheral\PIC32MX130F064B_peripherals.a(peripheral.o)
 .text.PLIB_ETH_Disable
                0x00000000        0x8 ..\..\..\..\..\..\..\..\microchip\harmony\v2_06\bin\framework\peripheral\PIC32MX130F064B_peripherals.a(peripheral.o)
 .text.PLIB_ETH_IsEnabled
                0x00000000        0x8 ..\..\..\..\..\..\..\..\microchip\harmony\v2_06\bin\framework\peripheral\PIC32MX130F064B_peripherals.a(peripheral.o)
 .text.PLIB_ETH_ExistsEnable
                0x00000000        0x8 ..\..\..\..\..\..\..\..\microchip\harmony\v2_06\bin\framework\peripheral\PIC32MX130F064B_peripherals.a(peripheral.o)
 .text.PLIB_ETH_StopInIdleEnable
                0x00000000        0x8 ..\..\..\..\..\..\..\..\microchip\harmony\v2_06\bin\framework\peripheral\PIC32MX130F064B_peripherals.a(peripheral.o)
 .text.PLIB_ETH_StopInIdleDisable
                0x00000000        0x8 ..\..\..\..\..\..\..\..\microchip\harmony\v2_06\bin\framework\peripheral\PIC32MX130F064B_peripherals.a(peripheral.o)
 .text.PLIB_ETH_StopInIdleIsEnabled
                0x00000000        0x8 ..\..\..\..\..\..\..\..\microchip\harmony\v2_06\bin\framework\peripheral\PIC32MX130F064B_peripherals.a(peripheral.o)
 .text.PLIB_ETH_ExistsStopInIdle
                0x00000000        0x8 ..\..\..\..\..\..\..\..\microchip\harmony\v2_06\bin\framework\peripheral\PIC32MX130F064B_peripherals.a(peripheral.o)
 .text.PLIB_ETH_TxRTSEnable
                0x00000000        0x8 ..\..\..\..\..\..\..\..\microchip\harmony\v2_06\bin\framework\peripheral\PIC32MX130F064B_peripherals.a(peripheral.o)
 .text.PLIB_ETH_TxRTSDisable
                0x00000000        0x8 ..\..\..\..\..\..\..\..\microchip\harmony\v2_06\bin\framework\peripheral\PIC32MX130F064B_peripherals.a(peripheral.o)
 .text.PLIB_ETH_TxRTSIsEnabled
                0x00000000        0x8 ..\..\..\..\..\..\..\..\microchip\harmony\v2_06\bin\framework\peripheral\PIC32MX130F064B_peripherals.a(peripheral.o)
 .text.PLIB_ETH_ExistsTransmitRTS
                0x00000000        0x8 ..\..\..\..\..\..\..\..\microchip\harmony\v2_06\bin\framework\peripheral\PIC32MX130F064B_peripherals.a(peripheral.o)
 .text.PLIB_ETH_RxEnable
                0x00000000        0x8 ..\..\..\..\..\..\..\..\microchip\harmony\v2_06\bin\framework\peripheral\PIC32MX130F064B_peripherals.a(peripheral.o)
 .text.PLIB_ETH_RxDisable
                0x00000000        0x8 ..\..\..\..\..\..\..\..\microchip\harmony\v2_06\bin\framework\peripheral\PIC32MX130F064B_peripherals.a(peripheral.o)
 .text.PLIB_ETH_RxIsEnabled
                0x00000000        0x8 ..\..\..\..\..\..\..\..\microchip\harmony\v2_06\bin\framework\peripheral\PIC32MX130F064B_peripherals.a(peripheral.o)
 .text.PLIB_ETH_ExistsRxEnable
                0x00000000        0x8 ..\..\..\..\..\..\..\..\microchip\harmony\v2_06\bin\framework\peripheral\PIC32MX130F064B_peripherals.a(peripheral.o)
 .text.PLIB_ETH_AutoFlowControlEnable
                0x00000000        0x8 ..\..\..\..\..\..\..\..\microchip\harmony\v2_06\bin\framework\peripheral\PIC32MX130F064B_peripherals.a(peripheral.o)
 .text.PLIB_ETH_AutoFlowControlDisable
                0x00000000        0x8 ..\..\..\..\..\..\..\..\microchip\harmony\v2_06\bin\framework\peripheral\PIC32MX130F064B_peripherals.a(peripheral.o)
 .text.PLIB_ETH_AutoFlowControlIsEnabled
                0x00000000        0x8 ..\..\..\..\..\..\..\..\microchip\harmony\v2_06\bin\framework\peripheral\PIC32MX130F064B_peripherals.a(peripheral.o)
 .text.PLIB_ETH_ExistsAutoFlowControl
                0x00000000        0x8 ..\..\..\..\..\..\..\..\microchip\harmony\v2_06\bin\framework\peripheral\PIC32MX130F064B_peripherals.a(peripheral.o)
 .text.PLIB_ETH_ManualFlowControlEnable
                0x00000000        0x8 ..\..\..\..\..\..\..\..\microchip\harmony\v2_06\bin\framework\peripheral\PIC32MX130F064B_peripherals.a(peripheral.o)
 .text.PLIB_ETH_ManualFlowControlDisable
                0x00000000        0x8 ..\..\..\..\..\..\..\..\microchip\harmony\v2_06\bin\framework\peripheral\PIC32MX130F064B_peripherals.a(peripheral.o)
 .text.PLIB_ETH_ManualFlowControlIsEnabled
                0x00000000        0x8 ..\..\..\..\..\..\..\..\microchip\harmony\v2_06\bin\framework\peripheral\PIC32MX130F064B_peripherals.a(peripheral.o)
 .text.PLIB_ETH_ExistsManualFlowControl
                0x00000000        0x8 ..\..\..\..\..\..\..\..\microchip\harmony\v2_06\bin\framework\peripheral\PIC32MX130F064B_peripherals.a(peripheral.o)
 .text.PLIB_ETH_RxBufferCountDecrement
                0x00000000        0x8 ..\..\..\..\..\..\..\..\microchip\harmony\v2_06\bin\framework\peripheral\PIC32MX130F064B_peripherals.a(peripheral.o)
 .text.PLIB_ETH_ExistsRxBufferCountDecrement
                0x00000000        0x8 ..\..\..\..\..\..\..\..\microchip\harmony\v2_06\bin\framework\peripheral\PIC32MX130F064B_peripherals.a(peripheral.o)
 .text.PLIB_ETH_ReceiveBufferSizeGet
                0x00000000        0x8 ..\..\..\..\..\..\..\..\microchip\harmony\v2_06\bin\framework\peripheral\PIC32MX130F064B_peripherals.a(peripheral.o)
 .text.PLIB_ETH_ReceiveBufferSizeSet
                0x00000000        0x8 ..\..\..\..\..\..\..\..\microchip\harmony\v2_06\bin\framework\peripheral\PIC32MX130F064B_peripherals.a(peripheral.o)
 .text.PLIB_ETH_RxSetBufferSize
                0x00000000        0x8 ..\..\..\..\..\..\..\..\microchip\harmony\v2_06\bin\framework\peripheral\PIC32MX130F064B_peripherals.a(peripheral.o)
 .text.PLIB_ETH_ExistsReceiveBufferSize
                0x00000000        0x8 ..\..\..\..\..\..\..\..\microchip\harmony\v2_06\bin\framework\peripheral\PIC32MX130F064B_peripherals.a(peripheral.o)
 .text.PLIB_ETH_TxPacketDescAddrSet
                0x00000000        0x8 ..\..\..\..\..\..\..\..\microchip\harmony\v2_06\bin\framework\peripheral\PIC32MX130F064B_peripherals.a(peripheral.o)
 .text.PLIB_ETH_TxPacketDescAddrGet
                0x00000000        0x8 ..\..\..\..\..\..\..\..\microchip\harmony\v2_06\bin\framework\peripheral\PIC32MX130F064B_peripherals.a(peripheral.o)
 .text.PLIB_ETH_ExistsTxPacketDescriptorAddress
                0x00000000        0x8 ..\..\..\..\..\..\..\..\microchip\harmony\v2_06\bin\framework\peripheral\PIC32MX130F064B_peripherals.a(peripheral.o)
 .text.PLIB_ETH_RxPacketDescAddrSet
                0x00000000        0x8 ..\..\..\..\..\..\..\..\microchip\harmony\v2_06\bin\framework\peripheral\PIC32MX130F064B_peripherals.a(peripheral.o)
 .text.PLIB_ETH_RxPacketDescAddrGet
                0x00000000        0x8 ..\..\..\..\..\..\..\..\microchip\harmony\v2_06\bin\framework\peripheral\PIC32MX130F064B_peripherals.a(peripheral.o)
 .text.PLIB_ETH_ExistsRxPacketDescriptorAddress
                0x00000000        0x8 ..\..\..\..\..\..\..\..\microchip\harmony\v2_06\bin\framework\peripheral\PIC32MX130F064B_peripherals.a(peripheral.o)
 .text.PLIB_ETH_HashTableSet
                0x00000000        0x8 ..\..\..\..\..\..\..\..\microchip\harmony\v2_06\bin\framework\peripheral\PIC32MX130F064B_peripherals.a(peripheral.o)
 .text.PLIB_ETH_HashTableGet
                0x00000000        0x8 ..\..\..\..\..\..\..\..\microchip\harmony\v2_06\bin\framework\peripheral\PIC32MX130F064B_peripherals.a(peripheral.o)
 .text.PLIB_ETH_RxFiltersHTSet
                0x00000000        0x8 ..\..\..\..\..\..\..\..\microchip\harmony\v2_06\bin\framework\peripheral\PIC32MX130F064B_peripherals.a(peripheral.o)
 .text.PLIB_ETH_ExistsHashTable
                0x00000000        0x8 ..\..\..\..\..\..\..\..\microchip\harmony\v2_06\bin\framework\peripheral\PIC32MX130F064B_peripherals.a(peripheral.o)
 .text.PLIB_ETH_PatternMatchSet
                0x00000000        0x8 ..\..\..\..\..\..\..\..\microchip\harmony\v2_06\bin\framework\peripheral\PIC32MX130F064B_peripherals.a(peripheral.o)
 .text.PLIB_ETH_PatternMatchGet
                0x00000000        0xc ..\..\..\..\..\..\..\..\microchip\harmony\v2_06\bin\framework\peripheral\PIC32MX130F064B_peripherals.a(peripheral.o)
 .text.PLIB_ETH_PatternMatchChecksumSet
                0x00000000        0x8 ..\..\..\..\..\..\..\..\microchip\harmony\v2_06\bin\framework\peripheral\PIC32MX130F064B_peripherals.a(peripheral.o)
 .text.PLIB_ETH_PatternMatchChecksumGet
                0x00000000        0x8 ..\..\..\..\..\..\..\..\microchip\harmony\v2_06\bin\framework\peripheral\PIC32MX130F064B_peripherals.a(peripheral.o)
 .text.PLIB_ETH_PatternMatchOffsetSet
                0x00000000        0x8 ..\..\..\..\..\..\..\..\microchip\harmony\v2_06\bin\framework\peripheral\PIC32MX130F064B_peripherals.a(peripheral.o)
 .text.PLIB_ETH_PatternMatchOffsetGet
                0x00000000        0x8 ..\..\..\..\..\..\..\..\microchip\harmony\v2_06\bin\framework\peripheral\PIC32MX130F064B_peripherals.a(peripheral.o)
 .text.PLIB_ETH_PatternMatchModeSet
                0x00000000        0x8 ..\..\..\..\..\..\..\..\microchip\harmony\v2_06\bin\framework\peripheral\PIC32MX130F064B_peripherals.a(peripheral.o)
 .text.PLIB_ETH_PatternMatchModeGet
                0x00000000        0x8 ..\..\..\..\..\..\..\..\microchip\harmony\v2_06\bin\framework\peripheral\PIC32MX130F064B_peripherals.a(peripheral.o)
 .text.PLIB_ETH_RxFiltersPMClr
                0x00000000        0x8 ..\..\..\..\..\..\..\..\microchip\harmony\v2_06\bin\framework\peripheral\PIC32MX130F064B_peripherals.a(peripheral.o)
 .text.PLIB_ETH_ExistsPatternMatch
                0x00000000        0x8 ..\..\..\..\..\..\..\..\microchip\harmony\v2_06\bin\framework\peripheral\PIC32MX130F064B_peripherals.a(peripheral.o)
 .text.PLIB_ETH_RxFiltersPMSet
                0x00000000        0x8 ..\..\..\..\..\..\..\..\microchip\harmony\v2_06\bin\framework\peripheral\PIC32MX130F064B_peripherals.a(peripheral.o)
 .text.PLIB_ETH_ExistsRxFiltersPMSet
                0x00000000        0x8 ..\..\..\..\..\..\..\..\microchip\harmony\v2_06\bin\framework\peripheral\PIC32MX130F064B_peripherals.a(peripheral.o)
 .text.PLIB_ETH_ReceiveFilterEnable
                0x00000000        0x8 ..\..\..\..\..\..\..\..\microchip\harmony\v2_06\bin\framework\peripheral\PIC32MX130F064B_peripherals.a(peripheral.o)
 .text.PLIB_ETH_ReceiveFilterDisable
                0x00000000        0x8 ..\..\..\..\..\..\..\..\microchip\harmony\v2_06\bin\framework\peripheral\PIC32MX130F064B_peripherals.a(peripheral.o)
 .text.PLIB_ETH_ReceiveFilterIsEnable
                0x00000000        0x8 ..\..\..\..\..\..\..\..\microchip\harmony\v2_06\bin\framework\peripheral\PIC32MX130F064B_peripherals.a(peripheral.o)
 .text.PLIB_ETH_RxFiltersSet
                0x00000000        0x8 ..\..\..\..\..\..\..\..\microchip\harmony\v2_06\bin\framework\peripheral\PIC32MX130F064B_peripherals.a(peripheral.o)
 .text.PLIB_ETH_RxFiltersClr
                0x00000000        0x8 ..\..\..\..\..\..\..\..\microchip\harmony\v2_06\bin\framework\peripheral\PIC32MX130F064B_peripherals.a(peripheral.o)
 .text.PLIB_ETH_RxFiltersWrite
                0x00000000        0x8 ..\..\..\..\..\..\..\..\microchip\harmony\v2_06\bin\framework\peripheral\PIC32MX130F064B_peripherals.a(peripheral.o)
 .text.PLIB_ETH_ExistsReceiveFilters
                0x00000000        0x8 ..\..\..\..\..\..\..\..\microchip\harmony\v2_06\bin\framework\peripheral\PIC32MX130F064B_peripherals.a(peripheral.o)
 .text.PLIB_ETH_RxFullWmarkSet
                0x00000000        0x8 ..\..\..\..\..\..\..\..\microchip\harmony\v2_06\bin\framework\peripheral\PIC32MX130F064B_peripherals.a(peripheral.o)
 .text.PLIB_ETH_RxFullWmarkGet
                0x00000000        0x8 ..\..\..\..\..\..\..\..\microchip\harmony\v2_06\bin\framework\peripheral\PIC32MX130F064B_peripherals.a(peripheral.o)
 .text.PLIB_ETH_RxEmptyWmarkSet
                0x00000000        0x8 ..\..\..\..\..\..\..\..\microchip\harmony\v2_06\bin\framework\peripheral\PIC32MX130F064B_peripherals.a(peripheral.o)
 .text.PLIB_ETH_RxEmptyWmarkGet
                0x00000000        0x8 ..\..\..\..\..\..\..\..\microchip\harmony\v2_06\bin\framework\peripheral\PIC32MX130F064B_peripherals.a(peripheral.o)
 .text.PLIB_ETH_ExistsReceiveWmarks
                0x00000000        0x8 ..\..\..\..\..\..\..\..\microchip\harmony\v2_06\bin\framework\peripheral\PIC32MX130F064B_peripherals.a(peripheral.o)
 .text.PLIB_ETH_InterruptSourceEnable
                0x00000000        0x8 ..\..\..\..\..\..\..\..\microchip\harmony\v2_06\bin\framework\peripheral\PIC32MX130F064B_peripherals.a(peripheral.o)
 .text.PLIB_ETH_InterruptSourceDisable
                0x00000000        0x8 ..\..\..\..\..\..\..\..\microchip\harmony\v2_06\bin\framework\peripheral\PIC32MX130F064B_peripherals.a(peripheral.o)
 .text.PLIB_ETH_InterruptSourceIsEnabled
                0x00000000        0x8 ..\..\..\..\..\..\..\..\microchip\harmony\v2_06\bin\framework\peripheral\PIC32MX130F064B_peripherals.a(peripheral.o)
 .text.PLIB_ETH_InterruptSourcesGet
                0x00000000        0x8 ..\..\..\..\..\..\..\..\microchip\harmony\v2_06\bin\framework\peripheral\PIC32MX130F064B_peripherals.a(peripheral.o)
 .text.PLIB_ETH_InterruptSet
                0x00000000        0x8 ..\..\..\..\..\..\..\..\microchip\harmony\v2_06\bin\framework\peripheral\PIC32MX130F064B_peripherals.a(peripheral.o)
 .text.PLIB_ETH_InterruptClear
                0x00000000        0x8 ..\..\..\..\..\..\..\..\microchip\harmony\v2_06\bin\framework\peripheral\PIC32MX130F064B_peripherals.a(peripheral.o)
 .text.PLIB_ETH_InterruptsGet
                0x00000000        0x8 ..\..\..\..\..\..\..\..\microchip\harmony\v2_06\bin\framework\peripheral\PIC32MX130F064B_peripherals.a(peripheral.o)
 .text.PLIB_ETH_InterruptStatusGet
                0x00000000        0x8 ..\..\..\..\..\..\..\..\microchip\harmony\v2_06\bin\framework\peripheral\PIC32MX130F064B_peripherals.a(peripheral.o)
 .text.PLIB_ETH_EventsEnableSet
                0x00000000        0x8 ..\..\..\..\..\..\..\..\microchip\harmony\v2_06\bin\framework\peripheral\PIC32MX130F064B_peripherals.a(peripheral.o)
 .text.PLIB_ETH_EventsEnableClr
                0x00000000        0x8 ..\..\..\..\..\..\..\..\microchip\harmony\v2_06\bin\framework\peripheral\PIC32MX130F064B_peripherals.a(peripheral.o)
 .text.PLIB_ETH_EventsEnableWrite
                0x00000000        0x8 ..\..\..\..\..\..\..\..\microchip\harmony\v2_06\bin\framework\peripheral\PIC32MX130F064B_peripherals.a(peripheral.o)
 .text.PLIB_ETH_EventsEnableGet
                0x00000000        0x8 ..\..\..\..\..\..\..\..\microchip\harmony\v2_06\bin\framework\peripheral\PIC32MX130F064B_peripherals.a(peripheral.o)
 .text.PLIB_ETH_EventsClr
                0x00000000        0x8 ..\..\..\..\..\..\..\..\microchip\harmony\v2_06\bin\framework\peripheral\PIC32MX130F064B_peripherals.a(peripheral.o)
 .text.PLIB_ETH_EventsGet
                0x00000000        0x8 ..\..\..\..\..\..\..\..\microchip\harmony\v2_06\bin\framework\peripheral\PIC32MX130F064B_peripherals.a(peripheral.o)
 .text.PLIB_ETH_ExistsInterrupt
                0x00000000        0x8 ..\..\..\..\..\..\..\..\microchip\harmony\v2_06\bin\framework\peripheral\PIC32MX130F064B_peripherals.a(peripheral.o)
 .text.PLIB_ETH_RxPacketCountGet
                0x00000000        0x8 ..\..\..\..\..\..\..\..\microchip\harmony\v2_06\bin\framework\peripheral\PIC32MX130F064B_peripherals.a(peripheral.o)
 .text.PLIB_ETH_EthernetIsBusy
                0x00000000        0x8 ..\..\..\..\..\..\..\..\microchip\harmony\v2_06\bin\framework\peripheral\PIC32MX130F064B_peripherals.a(peripheral.o)
 .text.PLIB_ETH_TransmitIsBusy
                0x00000000        0x8 ..\..\..\..\..\..\..\..\microchip\harmony\v2_06\bin\framework\peripheral\PIC32MX130F064B_peripherals.a(peripheral.o)
 .text.PLIB_ETH_ReceiveIsBusy
                0x00000000        0x8 ..\..\..\..\..\..\..\..\microchip\harmony\v2_06\bin\framework\peripheral\PIC32MX130F064B_peripherals.a(peripheral.o)
 .text.PLIB_ETH_ExistsEthernetControllerStatus
                0x00000000        0x8 ..\..\..\..\..\..\..\..\microchip\harmony\v2_06\bin\framework\peripheral\PIC32MX130F064B_peripherals.a(peripheral.o)
 .text.PLIB_ETH_RxOverflowCountClear
                0x00000000        0x8 ..\..\..\..\..\..\..\..\microchip\harmony\v2_06\bin\framework\peripheral\PIC32MX130F064B_peripherals.a(peripheral.o)
 .text.PLIB_ETH_RxOverflowCountGet
                0x00000000        0x8 ..\..\..\..\..\..\..\..\microchip\harmony\v2_06\bin\framework\peripheral\PIC32MX130F064B_peripherals.a(peripheral.o)
 .text.PLIB_ETH_ExistsReceiveOverflowCount
                0x00000000        0x8 ..\..\..\..\..\..\..\..\microchip\harmony\v2_06\bin\framework\peripheral\PIC32MX130F064B_peripherals.a(peripheral.o)
 .text.PLIB_ETH_FramesTxdOkCountClear
                0x00000000        0x8 ..\..\..\..\..\..\..\..\microchip\harmony\v2_06\bin\framework\peripheral\PIC32MX130F064B_peripherals.a(peripheral.o)
 .text.PLIB_ETH_FramesTxdOkCountGet
                0x00000000        0x8 ..\..\..\..\..\..\..\..\microchip\harmony\v2_06\bin\framework\peripheral\PIC32MX130F064B_peripherals.a(peripheral.o)
 .text.PLIB_ETH_ExistsFramesTransmittedOK
                0x00000000        0x8 ..\..\..\..\..\..\..\..\microchip\harmony\v2_06\bin\framework\peripheral\PIC32MX130F064B_peripherals.a(peripheral.o)
 .text.PLIB_ETH_SingleCollisionCountClear
                0x00000000        0x8 ..\..\..\..\..\..\..\..\microchip\harmony\v2_06\bin\framework\peripheral\PIC32MX130F064B_peripherals.a(peripheral.o)
 .text.PLIB_ETH_SingleCollisionCountGet
                0x00000000        0x8 ..\..\..\..\..\..\..\..\microchip\harmony\v2_06\bin\framework\peripheral\PIC32MX130F064B_peripherals.a(peripheral.o)
 .text.PLIB_ETH_MultipleCollisionCountClear
                0x00000000        0x8 ..\..\..\..\..\..\..\..\microchip\harmony\v2_06\bin\framework\peripheral\PIC32MX130F064B_peripherals.a(peripheral.o)
 .text.PLIB_ETH_MultipleCollisionCountGet
                0x00000000        0x8 ..\..\..\..\..\..\..\..\microchip\harmony\v2_06\bin\framework\peripheral\PIC32MX130F064B_peripherals.a(peripheral.o)
 .text.PLIB_ETH_ExistsCollisionCounts
                0x00000000        0x8 ..\..\..\..\..\..\..\..\microchip\harmony\v2_06\bin\framework\peripheral\PIC32MX130F064B_peripherals.a(peripheral.o)
 .text.PLIB_ETH_FramesRxdOkCountClear
                0x00000000        0x8 ..\..\..\..\..\..\..\..\microchip\harmony\v2_06\bin\framework\peripheral\PIC32MX130F064B_peripherals.a(peripheral.o)
 .text.PLIB_ETH_FramesRxdOkCountGet
                0x00000000        0x8 ..\..\..\..\..\..\..\..\microchip\harmony\v2_06\bin\framework\peripheral\PIC32MX130F064B_peripherals.a(peripheral.o)
 .text.PLIB_ETH_ExistsFramexReceivedOK
                0x00000000        0x8 ..\..\..\..\..\..\..\..\microchip\harmony\v2_06\bin\framework\peripheral\PIC32MX130F064B_peripherals.a(peripheral.o)
 .text.PLIB_ETH_FCSErrorCountClear
                0x00000000        0x8 ..\..\..\..\..\..\..\..\microchip\harmony\v2_06\bin\framework\peripheral\PIC32MX130F064B_peripherals.a(peripheral.o)
 .text.PLIB_ETH_FCSErrorCountGet
                0x00000000        0x8 ..\..\..\..\..\..\..\..\microchip\harmony\v2_06\bin\framework\peripheral\PIC32MX130F064B_peripherals.a(peripheral.o)
 .text.PLIB_ETH_ExistsFCSErrorCount
                0x00000000        0x8 ..\..\..\..\..\..\..\..\microchip\harmony\v2_06\bin\framework\peripheral\PIC32MX130F064B_peripherals.a(peripheral.o)
 .text.PLIB_ETH_AlignErrorCountClear
                0x00000000        0x8 ..\..\..\..\..\..\..\..\microchip\harmony\v2_06\bin\framework\peripheral\PIC32MX130F064B_peripherals.a(peripheral.o)
 .text.PLIB_ETH_AlignErrorCountGet
                0x00000000        0x8 ..\..\..\..\..\..\..\..\microchip\harmony\v2_06\bin\framework\peripheral\PIC32MX130F064B_peripherals.a(peripheral.o)
 .text.PLIB_ETH_ExistsAlignmentErrorCount
                0x00000000        0x8 ..\..\..\..\..\..\..\..\microchip\harmony\v2_06\bin\framework\peripheral\PIC32MX130F064B_peripherals.a(peripheral.o)
 .text.PLIB_ETH_MIIResetEnable
                0x00000000        0x8 ..\..\..\..\..\..\..\..\microchip\harmony\v2_06\bin\framework\peripheral\PIC32MX130F064B_peripherals.a(peripheral.o)
 .text.PLIB_ETH_MIIResetDisable
                0x00000000        0x8 ..\..\..\..\..\..\..\..\microchip\harmony\v2_06\bin\framework\peripheral\PIC32MX130F064B_peripherals.a(peripheral.o)
 .text.PLIB_ETH_MIIResetIsEnabled
                0x00000000        0x8 ..\..\..\..\..\..\..\..\microchip\harmony\v2_06\bin\framework\peripheral\PIC32MX130F064B_peripherals.a(peripheral.o)
 .text.PLIB_ETH_SimResetEnable
                0x00000000        0x8 ..\..\..\..\..\..\..\..\microchip\harmony\v2_06\bin\framework\peripheral\PIC32MX130F064B_peripherals.a(peripheral.o)
 .text.PLIB_ETH_SimResetDisable
                0x00000000        0x8 ..\..\..\..\..\..\..\..\microchip\harmony\v2_06\bin\framework\peripheral\PIC32MX130F064B_peripherals.a(peripheral.o)
 .text.PLIB_ETH_SimResetIsEnabled
                0x00000000        0x8 ..\..\..\..\..\..\..\..\microchip\harmony\v2_06\bin\framework\peripheral\PIC32MX130F064B_peripherals.a(peripheral.o)
 .text.PLIB_ETH_MCSRxResetEnable
                0x00000000        0x8 ..\..\..\..\..\..\..\..\microchip\harmony\v2_06\bin\framework\peripheral\PIC32MX130F064B_peripherals.a(peripheral.o)
 .text.PLIB_ETH_MCSRxResetDisable
                0x00000000        0x8 ..\..\..\..\..\..\..\..\microchip\harmony\v2_06\bin\framework\peripheral\PIC32MX130F064B_peripherals.a(peripheral.o)
 .text.PLIB_ETH_MCSRxResetIsEnabled
                0x00000000        0x8 ..\..\..\..\..\..\..\..\microchip\harmony\v2_06\bin\framework\peripheral\PIC32MX130F064B_peripherals.a(peripheral.o)
 .text.PLIB_ETH_RxFuncResetEnable
                0x00000000        0x8 ..\..\..\..\..\..\..\..\microchip\harmony\v2_06\bin\framework\peripheral\PIC32MX130F064B_peripherals.a(peripheral.o)
 .text.PLIB_ETH_RxFuncResetDisable
                0x00000000        0x8 ..\..\..\..\..\..\..\..\microchip\harmony\v2_06\bin\framework\peripheral\PIC32MX130F064B_peripherals.a(peripheral.o)
 .text.PLIB_ETH_RxFuncResetIsEnabled
                0x00000000        0x8 ..\..\..\..\..\..\..\..\microchip\harmony\v2_06\bin\framework\peripheral\PIC32MX130F064B_peripherals.a(peripheral.o)
 .text.PLIB_ETH_MCSTxResetEnable
                0x00000000        0x8 ..\..\..\..\..\..\..\..\microchip\harmony\v2_06\bin\framework\peripheral\PIC32MX130F064B_peripherals.a(peripheral.o)
 .text.PLIB_ETH_MCSTxResetDisable
                0x00000000        0x8 ..\..\..\..\..\..\..\..\microchip\harmony\v2_06\bin\framework\peripheral\PIC32MX130F064B_peripherals.a(peripheral.o)
 .text.PLIB_ETH_MCSTxResetIsEnabled
                0x00000000        0x8 ..\..\..\..\..\..\..\..\microchip\harmony\v2_06\bin\framework\peripheral\PIC32MX130F064B_peripherals.a(peripheral.o)
 .text.PLIB_ETH_TxFuncResetEnable
                0x00000000        0x8 ..\..\..\..\..\..\..\..\microchip\harmony\v2_06\bin\framework\peripheral\PIC32MX130F064B_peripherals.a(peripheral.o)
 .text.PLIB_ETH_TxFuncResetDisable
                0x00000000        0x8 ..\..\..\..\..\..\..\..\microchip\harmony\v2_06\bin\framework\peripheral\PIC32MX130F064B_peripherals.a(peripheral.o)
 .text.PLIB_ETH_TxFuncResetIsEnabled
                0x00000000        0x8 ..\..\..\..\..\..\..\..\microchip\harmony\v2_06\bin\framework\peripheral\PIC32MX130F064B_peripherals.a(peripheral.o)
 .text.PLIB_ETH_ExistsMAC_Resets
                0x00000000        0x8 ..\..\..\..\..\..\..\..\microchip\harmony\v2_06\bin\framework\peripheral\PIC32MX130F064B_peripherals.a(peripheral.o)
 .text.PLIB_ETH_LoopbackEnable
                0x00000000        0x8 ..\..\..\..\..\..\..\..\microchip\harmony\v2_06\bin\framework\peripheral\PIC32MX130F064B_peripherals.a(peripheral.o)
 .text.PLIB_ETH_LoopbackDisable
                0x00000000        0x8 ..\..\..\..\..\..\..\..\microchip\harmony\v2_06\bin\framework\peripheral\PIC32MX130F064B_peripherals.a(peripheral.o)
 .text.PLIB_ETH_LoopbackIsEnabled
                0x00000000        0x8 ..\..\..\..\..\..\..\..\microchip\harmony\v2_06\bin\framework\peripheral\PIC32MX130F064B_peripherals.a(peripheral.o)
 .text.PLIB_ETH_TxPauseEnable
                0x00000000        0x8 ..\..\..\..\..\..\..\..\microchip\harmony\v2_06\bin\framework\peripheral\PIC32MX130F064B_peripherals.a(peripheral.o)
 .text.PLIB_ETH_TxPauseDisable
                0x00000000        0x8 ..\..\..\..\..\..\..\..\microchip\harmony\v2_06\bin\framework\peripheral\PIC32MX130F064B_peripherals.a(peripheral.o)
 .text.PLIB_ETH_TxPauseIsEnabled
                0x00000000        0x8 ..\..\..\..\..\..\..\..\microchip\harmony\v2_06\bin\framework\peripheral\PIC32MX130F064B_peripherals.a(peripheral.o)
 .text.PLIB_ETH_RxPauseEnable
                0x00000000        0x8 ..\..\..\..\..\..\..\..\microchip\harmony\v2_06\bin\framework\peripheral\PIC32MX130F064B_peripherals.a(peripheral.o)
 .text.PLIB_ETH_RxPauseDisable
                0x00000000        0x8 ..\..\..\..\..\..\..\..\microchip\harmony\v2_06\bin\framework\peripheral\PIC32MX130F064B_peripherals.a(peripheral.o)
 .text.PLIB_ETH_RxPauseIsEnabled
                0x00000000        0x8 ..\..\..\..\..\..\..\..\microchip\harmony\v2_06\bin\framework\peripheral\PIC32MX130F064B_peripherals.a(peripheral.o)
 .text.PLIB_ETH_PassAllEnable
                0x00000000        0x8 ..\..\..\..\..\..\..\..\microchip\harmony\v2_06\bin\framework\peripheral\PIC32MX130F064B_peripherals.a(peripheral.o)
 .text.PLIB_ETH_PassAllDisable
                0x00000000        0x8 ..\..\..\..\..\..\..\..\microchip\harmony\v2_06\bin\framework\peripheral\PIC32MX130F064B_peripherals.a(peripheral.o)
 .text.PLIB_ETH_PassAllIsEnabled
                0x00000000        0x8 ..\..\..\..\..\..\..\..\microchip\harmony\v2_06\bin\framework\peripheral\PIC32MX130F064B_peripherals.a(peripheral.o)
 .text.PLIB_ETH_ReceiveEnable
                0x00000000        0x8 ..\..\..\..\..\..\..\..\microchip\harmony\v2_06\bin\framework\peripheral\PIC32MX130F064B_peripherals.a(peripheral.o)
 .text.PLIB_ETH_ReceiveDisable
                0x00000000        0x8 ..\..\..\..\..\..\..\..\microchip\harmony\v2_06\bin\framework\peripheral\PIC32MX130F064B_peripherals.a(peripheral.o)
 .text.PLIB_ETH_ReceiveIsEnabled
                0x00000000        0x8 ..\..\..\..\..\..\..\..\microchip\harmony\v2_06\bin\framework\peripheral\PIC32MX130F064B_peripherals.a(peripheral.o)
 .text.PLIB_ETH_ExcessDeferEnable
                0x00000000        0x8 ..\..\..\..\..\..\..\..\microchip\harmony\v2_06\bin\framework\peripheral\PIC32MX130F064B_peripherals.a(peripheral.o)
 .text.PLIB_ETH_ExcessDeferDisable
                0x00000000        0x8 ..\..\..\..\..\..\..\..\microchip\harmony\v2_06\bin\framework\peripheral\PIC32MX130F064B_peripherals.a(peripheral.o)
 .text.PLIB_ETH_ExcessDeferIsEnabled
                0x00000000        0x8 ..\..\..\..\..\..\..\..\microchip\harmony\v2_06\bin\framework\peripheral\PIC32MX130F064B_peripherals.a(peripheral.o)
 .text.PLIB_ETH_BackPresNoBackoffEnable
                0x00000000        0x8 ..\..\..\..\..\..\..\..\microchip\harmony\v2_06\bin\framework\peripheral\PIC32MX130F064B_peripherals.a(peripheral.o)
 .text.PLIB_ETH_BackPresNoBackoffDisable
                0x00000000        0x8 ..\..\..\..\..\..\..\..\microchip\harmony\v2_06\bin\framework\peripheral\PIC32MX130F064B_peripherals.a(peripheral.o)
 .text.PLIB_ETH_BackPresNoBackoffIsEnabled
                0x00000000        0x8 ..\..\..\..\..\..\..\..\microchip\harmony\v2_06\bin\framework\peripheral\PIC32MX130F064B_peripherals.a(peripheral.o)
 .text.PLIB_ETH_NoBackoffEnable
                0x00000000        0x8 ..\..\..\..\..\..\..\..\microchip\harmony\v2_06\bin\framework\peripheral\PIC32MX130F064B_peripherals.a(peripheral.o)
 .text.PLIB_ETH_NoBackoffDisable
                0x00000000        0x8 ..\..\..\..\..\..\..\..\microchip\harmony\v2_06\bin\framework\peripheral\PIC32MX130F064B_peripherals.a(peripheral.o)
 .text.PLIB_ETH_NoBackoffIsEnabled
                0x00000000        0x8 ..\..\..\..\..\..\..\..\microchip\harmony\v2_06\bin\framework\peripheral\PIC32MX130F064B_peripherals.a(peripheral.o)
 .text.PLIB_ETH_LongPreambleEnable
                0x00000000        0x8 ..\..\..\..\..\..\..\..\microchip\harmony\v2_06\bin\framework\peripheral\PIC32MX130F064B_peripherals.a(peripheral.o)
 .text.PLIB_ETH_LongPreambleDisable
                0x00000000        0x8 ..\..\..\..\..\..\..\..\microchip\harmony\v2_06\bin\framework\peripheral\PIC32MX130F064B_peripherals.a(peripheral.o)
 .text.PLIB_ETH_LongPreambleIsEnabled
                0x00000000        0x8 ..\..\..\..\..\..\..\..\microchip\harmony\v2_06\bin\framework\peripheral\PIC32MX130F064B_peripherals.a(peripheral.o)
 .text.PLIB_ETH_PurePreambleEnable
                0x00000000        0x8 ..\..\..\..\..\..\..\..\microchip\harmony\v2_06\bin\framework\peripheral\PIC32MX130F064B_peripherals.a(peripheral.o)
 .text.PLIB_ETH_PurePreambleDisable
                0x00000000        0x8 ..\..\..\..\..\..\..\..\microchip\harmony\v2_06\bin\framework\peripheral\PIC32MX130F064B_peripherals.a(peripheral.o)
 .text.PLIB_ETH_PurePreambleIsEnabled
                0x00000000        0x8 ..\..\..\..\..\..\..\..\microchip\harmony\v2_06\bin\framework\peripheral\PIC32MX130F064B_peripherals.a(peripheral.o)
 .text.PLIB_ETH_AutoDetectPadGet
                0x00000000        0x8 ..\..\..\..\..\..\..\..\microchip\harmony\v2_06\bin\framework\peripheral\PIC32MX130F064B_peripherals.a(peripheral.o)
 .text.PLIB_ETH_AutoDetectPadSet
                0x00000000        0x8 ..\..\..\..\..\..\..\..\microchip\harmony\v2_06\bin\framework\peripheral\PIC32MX130F064B_peripherals.a(peripheral.o)
 .text.PLIB_ETH_AutoDetectPadClear
                0x00000000        0x8 ..\..\..\..\..\..\..\..\microchip\harmony\v2_06\bin\framework\peripheral\PIC32MX130F064B_peripherals.a(peripheral.o)
 .text.PLIB_ETH_CRCEnable
                0x00000000        0x8 ..\..\..\..\..\..\..\..\microchip\harmony\v2_06\bin\framework\peripheral\PIC32MX130F064B_peripherals.a(peripheral.o)
 .text.PLIB_ETH_CRCDisable
                0x00000000        0x8 ..\..\..\..\..\..\..\..\microchip\harmony\v2_06\bin\framework\peripheral\PIC32MX130F064B_peripherals.a(peripheral.o)
 .text.PLIB_ETH_CRCIsEnabled
                0x00000000        0x8 ..\..\..\..\..\..\..\..\microchip\harmony\v2_06\bin\framework\peripheral\PIC32MX130F064B_peripherals.a(peripheral.o)
 .text.PLIB_ETH_DelayedCRCEnable
                0x00000000        0x8 ..\..\..\..\..\..\..\..\microchip\harmony\v2_06\bin\framework\peripheral\PIC32MX130F064B_peripherals.a(peripheral.o)
 .text.PLIB_ETH_DelayedCRCDisable
                0x00000000        0x8 ..\..\..\..\..\..\..\..\microchip\harmony\v2_06\bin\framework\peripheral\PIC32MX130F064B_peripherals.a(peripheral.o)
 .text.PLIB_ETH_DelayedCRCIsEnabled
                0x00000000        0x8 ..\..\..\..\..\..\..\..\microchip\harmony\v2_06\bin\framework\peripheral\PIC32MX130F064B_peripherals.a(peripheral.o)
 .text.PLIB_ETH_HugeFrameEnable
                0x00000000        0x8 ..\..\..\..\..\..\..\..\microchip\harmony\v2_06\bin\framework\peripheral\PIC32MX130F064B_peripherals.a(peripheral.o)
 .text.PLIB_ETH_HugeFrameDisable
                0x00000000        0x8 ..\..\..\..\..\..\..\..\microchip\harmony\v2_06\bin\framework\peripheral\PIC32MX130F064B_peripherals.a(peripheral.o)
 .text.PLIB_ETH_HugeFrameIsEnabled
                0x00000000        0x8 ..\..\..\..\..\..\..\..\microchip\harmony\v2_06\bin\framework\peripheral\PIC32MX130F064B_peripherals.a(peripheral.o)
 .text.PLIB_ETH_FrameLengthCheckEnable
                0x00000000        0x8 ..\..\..\..\..\..\..\..\microchip\harmony\v2_06\bin\framework\peripheral\PIC32MX130F064B_peripherals.a(peripheral.o)
 .text.PLIB_ETH_FrameLengthCheckDisable
                0x00000000        0x8 ..\..\..\..\..\..\..\..\microchip\harmony\v2_06\bin\framework\peripheral\PIC32MX130F064B_peripherals.a(peripheral.o)
 .text.PLIB_ETH_FrameLengthCheckIsEnabled
                0x00000000        0x8 ..\..\..\..\..\..\..\..\microchip\harmony\v2_06\bin\framework\peripheral\PIC32MX130F064B_peripherals.a(peripheral.o)
 .text.PLIB_ETH_FullDuplexEnable
                0x00000000        0x8 ..\..\..\..\..\..\..\..\microchip\harmony\v2_06\bin\framework\peripheral\PIC32MX130F064B_peripherals.a(peripheral.o)
 .text.PLIB_ETH_FullDuplexDisable
                0x00000000        0x8 ..\..\..\..\..\..\..\..\microchip\harmony\v2_06\bin\framework\peripheral\PIC32MX130F064B_peripherals.a(peripheral.o)
 .text.PLIB_ETH_FullDuplexIsEnabled
                0x00000000        0x8 ..\..\..\..\..\..\..\..\microchip\harmony\v2_06\bin\framework\peripheral\PIC32MX130F064B_peripherals.a(peripheral.o)
 .text.PLIB_ETH_ExistsMAC_Configuration
                0x00000000        0x8 ..\..\..\..\..\..\..\..\microchip\harmony\v2_06\bin\framework\peripheral\PIC32MX130F064B_peripherals.a(peripheral.o)
 .text.PLIB_ETH_BackToBackIPGGet
                0x00000000        0x8 ..\..\..\..\..\..\..\..\microchip\harmony\v2_06\bin\framework\peripheral\PIC32MX130F064B_peripherals.a(peripheral.o)
 .text.PLIB_ETH_BackToBackIPGSet
                0x00000000        0x8 ..\..\..\..\..\..\..\..\microchip\harmony\v2_06\bin\framework\peripheral\PIC32MX130F064B_peripherals.a(peripheral.o)
 .text.PLIB_ETH_NonBackToBackIPG1Get
                0x00000000        0x8 ..\..\..\..\..\..\..\..\microchip\harmony\v2_06\bin\framework\peripheral\PIC32MX130F064B_peripherals.a(peripheral.o)
 .text.PLIB_ETH_NonBackToBackIPG1Set
                0x00000000        0x8 ..\..\..\..\..\..\..\..\microchip\harmony\v2_06\bin\framework\peripheral\PIC32MX130F064B_peripherals.a(peripheral.o)
 .text.PLIB_ETH_NonBackToBackIPG2Get
                0x00000000        0x8 ..\..\..\..\..\..\..\..\microchip\harmony\v2_06\bin\framework\peripheral\PIC32MX130F064B_peripherals.a(peripheral.o)
 .text.PLIB_ETH_NonBackToBackIPG2Set
                0x00000000        0x8 ..\..\..\..\..\..\..\..\microchip\harmony\v2_06\bin\framework\peripheral\PIC32MX130F064B_peripherals.a(peripheral.o)
 .text.PLIB_ETH_ExistsInterPacketGaps
                0x00000000        0x8 ..\..\..\..\..\..\..\..\microchip\harmony\v2_06\bin\framework\peripheral\PIC32MX130F064B_peripherals.a(peripheral.o)
 .text.PLIB_ETH_CollisionWindowGet
                0x00000000        0x8 ..\..\..\..\..\..\..\..\microchip\harmony\v2_06\bin\framework\peripheral\PIC32MX130F064B_peripherals.a(peripheral.o)
 .text.PLIB_ETH_CollisionWindowSet
                0x00000000        0x8 ..\..\..\..\..\..\..\..\microchip\harmony\v2_06\bin\framework\peripheral\PIC32MX130F064B_peripherals.a(peripheral.o)
 .text.PLIB_ETH_ExistsCollisionWindow
                0x00000000        0x8 ..\..\..\..\..\..\..\..\microchip\harmony\v2_06\bin\framework\peripheral\PIC32MX130F064B_peripherals.a(peripheral.o)
 .text.PLIB_ETH_ReTxMaxGet
                0x00000000        0x8 ..\..\..\..\..\..\..\..\microchip\harmony\v2_06\bin\framework\peripheral\PIC32MX130F064B_peripherals.a(peripheral.o)
 .text.PLIB_ETH_ReTxMaxSet
                0x00000000        0x8 ..\..\..\..\..\..\..\..\microchip\harmony\v2_06\bin\framework\peripheral\PIC32MX130F064B_peripherals.a(peripheral.o)
 .text.PLIB_ETH_ExistsRetransmissionMaximum
                0x00000000        0x8 ..\..\..\..\..\..\..\..\microchip\harmony\v2_06\bin\framework\peripheral\PIC32MX130F064B_peripherals.a(peripheral.o)
 .text.PLIB_ETH_MaxFrameLengthGet
                0x00000000        0x8 ..\..\..\..\..\..\..\..\microchip\harmony\v2_06\bin\framework\peripheral\PIC32MX130F064B_peripherals.a(peripheral.o)
 .text.PLIB_ETH_MaxFrameLengthSet
                0x00000000        0x8 ..\..\..\..\..\..\..\..\microchip\harmony\v2_06\bin\framework\peripheral\PIC32MX130F064B_peripherals.a(peripheral.o)
 .text.PLIB_ETH_MACSetMaxFrame
                0x00000000        0x8 ..\..\..\..\..\..\..\..\microchip\harmony\v2_06\bin\framework\peripheral\PIC32MX130F064B_peripherals.a(peripheral.o)
 .text.PLIB_ETH_ExistsMaxFrameLength
                0x00000000        0x8 ..\..\..\..\..\..\..\..\microchip\harmony\v2_06\bin\framework\peripheral\PIC32MX130F064B_peripherals.a(peripheral.o)
 .text.PLIB_ETH_RMIIResetEnable
                0x00000000        0x8 ..\..\..\..\..\..\..\..\microchip\harmony\v2_06\bin\framework\peripheral\PIC32MX130F064B_peripherals.a(peripheral.o)
 .text.PLIB_ETH_RMIIResetDisable
                0x00000000        0x8 ..\..\..\..\..\..\..\..\microchip\harmony\v2_06\bin\framework\peripheral\PIC32MX130F064B_peripherals.a(peripheral.o)
 .text.PLIB_ETH_RMIIResetIsEnabled
                0x00000000        0x8 ..\..\..\..\..\..\..\..\microchip\harmony\v2_06\bin\framework\peripheral\PIC32MX130F064B_peripherals.a(peripheral.o)
 .text.PLIB_ETH_RMIISpeedGet
                0x00000000        0x8 ..\..\..\..\..\..\..\..\microchip\harmony\v2_06\bin\framework\peripheral\PIC32MX130F064B_peripherals.a(peripheral.o)
 .text.PLIB_ETH_RMIISpeedSet
                0x00000000        0x8 ..\..\..\..\..\..\..\..\microchip\harmony\v2_06\bin\framework\peripheral\PIC32MX130F064B_peripherals.a(peripheral.o)
 .text.PLIB_ETH_ExistsRMII_Support
                0x00000000        0x8 ..\..\..\..\..\..\..\..\microchip\harmony\v2_06\bin\framework\peripheral\PIC32MX130F064B_peripherals.a(peripheral.o)
 .text.PLIB_ETH_TestBackPressEnable
                0x00000000        0x8 ..\..\..\..\..\..\..\..\microchip\harmony\v2_06\bin\framework\peripheral\PIC32MX130F064B_peripherals.a(peripheral.o)
 .text.PLIB_ETH_TestBackPressDisable
                0x00000000        0x8 ..\..\..\..\..\..\..\..\microchip\harmony\v2_06\bin\framework\peripheral\PIC32MX130F064B_peripherals.a(peripheral.o)
 .text.PLIB_ETH_TestBackPressIsEnabled
                0x00000000        0x8 ..\..\..\..\..\..\..\..\microchip\harmony\v2_06\bin\framework\peripheral\PIC32MX130F064B_peripherals.a(peripheral.o)
 .text.PLIB_ETH_TestPauseEnable
                0x00000000        0x8 ..\..\..\..\..\..\..\..\microchip\harmony\v2_06\bin\framework\peripheral\PIC32MX130F064B_peripherals.a(peripheral.o)
 .text.PLIB_ETH_TestPauseDisable
                0x00000000        0x8 ..\..\..\..\..\..\..\..\microchip\harmony\v2_06\bin\framework\peripheral\PIC32MX130F064B_peripherals.a(peripheral.o)
 .text.PLIB_ETH_TestPauseIsEnabled
                0x00000000        0x8 ..\..\..\..\..\..\..\..\microchip\harmony\v2_06\bin\framework\peripheral\PIC32MX130F064B_peripherals.a(peripheral.o)
 .text.PLIB_ETH_ShortcutQuantaEnable
                0x00000000        0x8 ..\..\..\..\..\..\..\..\microchip\harmony\v2_06\bin\framework\peripheral\PIC32MX130F064B_peripherals.a(peripheral.o)
 .text.PLIB_ETH_ShortcutQuantaDisable
                0x00000000        0x8 ..\..\..\..\..\..\..\..\microchip\harmony\v2_06\bin\framework\peripheral\PIC32MX130F064B_peripherals.a(peripheral.o)
 .text.PLIB_ETH_ShortcutQuantaIsEnabled
                0x00000000        0x8 ..\..\..\..\..\..\..\..\microchip\harmony\v2_06\bin\framework\peripheral\PIC32MX130F064B_peripherals.a(peripheral.o)
 .text.PLIB_ETH_ExistsMAC_Testing
                0x00000000        0x8 ..\..\..\..\..\..\..\..\microchip\harmony\v2_06\bin\framework\peripheral\PIC32MX130F064B_peripherals.a(peripheral.o)
 .text.PLIB_ETH_MIIMResetEnable
                0x00000000        0x8 ..\..\..\..\..\..\..\..\microchip\harmony\v2_06\bin\framework\peripheral\PIC32MX130F064B_peripherals.a(peripheral.o)
 .text.PLIB_ETH_MIIMResetDisable
                0x00000000        0x8 ..\..\..\..\..\..\..\..\microchip\harmony\v2_06\bin\framework\peripheral\PIC32MX130F064B_peripherals.a(peripheral.o)
 .text.PLIB_ETH_MIIMResetIsEnabled
                0x00000000        0x8 ..\..\..\..\..\..\..\..\microchip\harmony\v2_06\bin\framework\peripheral\PIC32MX130F064B_peripherals.a(peripheral.o)
 .text.PLIB_ETH_MIIMClockGet
                0x00000000        0x8 ..\..\..\..\..\..\..\..\microchip\harmony\v2_06\bin\framework\peripheral\PIC32MX130F064B_peripherals.a(peripheral.o)
 .text.PLIB_ETH_MIIMClockSet
                0x00000000        0x8 ..\..\..\..\..\..\..\..\microchip\harmony\v2_06\bin\framework\peripheral\PIC32MX130F064B_peripherals.a(peripheral.o)
 .text.PLIB_ETH_MIIMNoPreEnable
                0x00000000        0x8 ..\..\..\..\..\..\..\..\microchip\harmony\v2_06\bin\framework\peripheral\PIC32MX130F064B_peripherals.a(peripheral.o)
 .text.PLIB_ETH_MIIMNoPreDisable
                0x00000000        0x8 ..\..\..\..\..\..\..\..\microchip\harmony\v2_06\bin\framework\peripheral\PIC32MX130F064B_peripherals.a(peripheral.o)
 .text.PLIB_ETH_MIIMNoPreIsEnabled
                0x00000000        0x8 ..\..\..\..\..\..\..\..\microchip\harmony\v2_06\bin\framework\peripheral\PIC32MX130F064B_peripherals.a(peripheral.o)
 .text.PLIB_ETH_MIIMScanIncrEnable
                0x00000000        0x8 ..\..\..\..\..\..\..\..\microchip\harmony\v2_06\bin\framework\peripheral\PIC32MX130F064B_peripherals.a(peripheral.o)
 .text.PLIB_ETH_MIIMScanIncrDisable
                0x00000000        0x8 ..\..\..\..\..\..\..\..\microchip\harmony\v2_06\bin\framework\peripheral\PIC32MX130F064B_peripherals.a(peripheral.o)
 .text.PLIB_ETH_MIIMScanIncrIsEnabled
                0x00000000        0x8 ..\..\..\..\..\..\..\..\microchip\harmony\v2_06\bin\framework\peripheral\PIC32MX130F064B_peripherals.a(peripheral.o)
 .text.PLIB_ETH_ExistsMIIM_Config
                0x00000000        0x8 ..\..\..\..\..\..\..\..\microchip\harmony\v2_06\bin\framework\peripheral\PIC32MX130F064B_peripherals.a(peripheral.o)
 .text.PLIB_ETH_MIIMScanModeEnable
                0x00000000        0x8 ..\..\..\..\..\..\..\..\microchip\harmony\v2_06\bin\framework\peripheral\PIC32MX130F064B_peripherals.a(peripheral.o)
 .text.PLIB_ETH_MIIMScanModeDisable
                0x00000000        0x8 ..\..\..\..\..\..\..\..\microchip\harmony\v2_06\bin\framework\peripheral\PIC32MX130F064B_peripherals.a(peripheral.o)
 .text.PLIB_ETH_MIIMScanModeIsEnabled
                0x00000000        0x8 ..\..\..\..\..\..\..\..\microchip\harmony\v2_06\bin\framework\peripheral\PIC32MX130F064B_peripherals.a(peripheral.o)
 .text.PLIB_ETH_ExistsMIIMScanMode
                0x00000000        0x8 ..\..\..\..\..\..\..\..\microchip\harmony\v2_06\bin\framework\peripheral\PIC32MX130F064B_peripherals.a(peripheral.o)
 .text.PLIB_ETH_MIIMReadStart
                0x00000000        0x8 ..\..\..\..\..\..\..\..\microchip\harmony\v2_06\bin\framework\peripheral\PIC32MX130F064B_peripherals.a(peripheral.o)
 .text.PLIB_ETH_MIIMWriteStart
                0x00000000        0x8 ..\..\..\..\..\..\..\..\microchip\harmony\v2_06\bin\framework\peripheral\PIC32MX130F064B_peripherals.a(peripheral.o)
 .text.PLIB_ETH_ExistsMIIMReadWrite
                0x00000000        0x8 ..\..\..\..\..\..\..\..\microchip\harmony\v2_06\bin\framework\peripheral\PIC32MX130F064B_peripherals.a(peripheral.o)
 .text.PLIB_ETH_PHYAddressGet
                0x00000000        0x8 ..\..\..\..\..\..\..\..\microchip\harmony\v2_06\bin\framework\peripheral\PIC32MX130F064B_peripherals.a(peripheral.o)
 .text.PLIB_ETH_PHYAddressSet
                0x00000000        0x8 ..\..\..\..\..\..\..\..\microchip\harmony\v2_06\bin\framework\peripheral\PIC32MX130F064B_peripherals.a(peripheral.o)
 .text.PLIB_ETH_RegisterAddressGet
                0x00000000        0x8 ..\..\..\..\..\..\..\..\microchip\harmony\v2_06\bin\framework\peripheral\PIC32MX130F064B_peripherals.a(peripheral.o)
 .text.PLIB_ETH_RegisterAddressSet
                0x00000000        0x8 ..\..\..\..\..\..\..\..\microchip\harmony\v2_06\bin\framework\peripheral\PIC32MX130F064B_peripherals.a(peripheral.o)
 .text.PLIB_ETH_ExistsMIIMAddresses
                0x00000000        0x8 ..\..\..\..\..\..\..\..\microchip\harmony\v2_06\bin\framework\peripheral\PIC32MX130F064B_peripherals.a(peripheral.o)
 .text.PLIB_ETH_MIIMWriteDataSet
                0x00000000        0x8 ..\..\..\..\..\..\..\..\microchip\harmony\v2_06\bin\framework\peripheral\PIC32MX130F064B_peripherals.a(peripheral.o)
 .text.PLIB_ETH_MIIMReadDataGet
                0x00000000        0x8 ..\..\..\..\..\..\..\..\microchip\harmony\v2_06\bin\framework\peripheral\PIC32MX130F064B_peripherals.a(peripheral.o)
 .text.PLIB_ETH_ExistsMIIWriteReadData
                0x00000000        0x8 ..\..\..\..\..\..\..\..\microchip\harmony\v2_06\bin\framework\peripheral\PIC32MX130F064B_peripherals.a(peripheral.o)
 .text.PLIB_ETH_LinkHasFailed
                0x00000000        0x8 ..\..\..\..\..\..\..\..\microchip\harmony\v2_06\bin\framework\peripheral\PIC32MX130F064B_peripherals.a(peripheral.o)
 .text.PLIB_ETH_DataNotValid
                0x00000000        0x8 ..\..\..\..\..\..\..\..\microchip\harmony\v2_06\bin\framework\peripheral\PIC32MX130F064B_peripherals.a(peripheral.o)
 .text.PLIB_ETH_ClearDataNotValid
                0x00000000        0x8 ..\..\..\..\..\..\..\..\microchip\harmony\v2_06\bin\framework\peripheral\PIC32MX130F064B_peripherals.a(peripheral.o)
 .text.PLIB_ETH_MIIMIsScanning
                0x00000000        0x8 ..\..\..\..\..\..\..\..\microchip\harmony\v2_06\bin\framework\peripheral\PIC32MX130F064B_peripherals.a(peripheral.o)
 .text.PLIB_ETH_MIIMIsBusy
                0x00000000        0x8 ..\..\..\..\..\..\..\..\microchip\harmony\v2_06\bin\framework\peripheral\PIC32MX130F064B_peripherals.a(peripheral.o)
 .text.PLIB_ETH_ExistsMIIM_Indicators
                0x00000000        0x8 ..\..\..\..\..\..\..\..\microchip\harmony\v2_06\bin\framework\peripheral\PIC32MX130F064B_peripherals.a(peripheral.o)
 .text.PLIB_ETH_StationAddressGet
                0x00000000        0x8 ..\..\..\..\..\..\..\..\microchip\harmony\v2_06\bin\framework\peripheral\PIC32MX130F064B_peripherals.a(peripheral.o)
 .text.PLIB_ETH_StationAddressSet
                0x00000000        0x8 ..\..\..\..\..\..\..\..\microchip\harmony\v2_06\bin\framework\peripheral\PIC32MX130F064B_peripherals.a(peripheral.o)
 .text.PLIB_ETH_MACSetAddress
                0x00000000        0x8 ..\..\..\..\..\..\..\..\microchip\harmony\v2_06\bin\framework\peripheral\PIC32MX130F064B_peripherals.a(peripheral.o)
 .text.PLIB_ETH_MACGetAddress
                0x00000000        0x8 ..\..\..\..\..\..\..\..\microchip\harmony\v2_06\bin\framework\peripheral\PIC32MX130F064B_peripherals.a(peripheral.o)
 .text.PLIB_ETH_ExistsStationAddress
                0x00000000        0x8 ..\..\..\..\..\..\..\..\microchip\harmony\v2_06\bin\framework\peripheral\PIC32MX130F064B_peripherals.a(peripheral.o)
 .text.PLIB_I2C_SlaveClockStretchingEnable
                0x00000000       0x10 ..\..\..\..\..\..\..\..\microchip\harmony\v2_06\bin\framework\peripheral\PIC32MX130F064B_peripherals.a(peripheral.o)
 .text.PLIB_I2C_SlaveClockStretchingDisable
                0x00000000       0x10 ..\..\..\..\..\..\..\..\microchip\harmony\v2_06\bin\framework\peripheral\PIC32MX130F064B_peripherals.a(peripheral.o)
 .text.PLIB_I2C_ExistsClockStretching
                0x00000000        0x8 ..\..\..\..\..\..\..\..\microchip\harmony\v2_06\bin\framework\peripheral\PIC32MX130F064B_peripherals.a(peripheral.o)
 .text.PLIB_I2C_GeneralCallEnable
                0x00000000       0x10 ..\..\..\..\..\..\..\..\microchip\harmony\v2_06\bin\framework\peripheral\PIC32MX130F064B_peripherals.a(peripheral.o)
 .text.PLIB_I2C_GeneralCallDisable
                0x00000000       0x10 ..\..\..\..\..\..\..\..\microchip\harmony\v2_06\bin\framework\peripheral\PIC32MX130F064B_peripherals.a(peripheral.o)
 .text.PLIB_I2C_ExistsGeneralCall
                0x00000000        0x8 ..\..\..\..\..\..\..\..\microchip\harmony\v2_06\bin\framework\peripheral\PIC32MX130F064B_peripherals.a(peripheral.o)
 .text.PLIB_I2C_SMBEnable
                0x00000000       0x10 ..\..\..\..\..\..\..\..\microchip\harmony\v2_06\bin\framework\peripheral\PIC32MX130F064B_peripherals.a(peripheral.o)
 .text.PLIB_I2C_SMBDisable
                0x00000000       0x10 ..\..\..\..\..\..\..\..\microchip\harmony\v2_06\bin\framework\peripheral\PIC32MX130F064B_peripherals.a(peripheral.o)
 .text.PLIB_I2C_ExistsSMBus
                0x00000000        0x8 ..\..\..\..\..\..\..\..\microchip\harmony\v2_06\bin\framework\peripheral\PIC32MX130F064B_peripherals.a(peripheral.o)
 .text.PLIB_I2C_HighFrequencyEnable
                0x00000000       0x10 ..\..\..\..\..\..\..\..\microchip\harmony\v2_06\bin\framework\peripheral\PIC32MX130F064B_peripherals.a(peripheral.o)
 .text.PLIB_I2C_HighFrequencyDisable
                0x00000000       0x10 ..\..\..\..\..\..\..\..\microchip\harmony\v2_06\bin\framework\peripheral\PIC32MX130F064B_peripherals.a(peripheral.o)
 .text.PLIB_I2C_ExistsHighFrequency
                0x00000000        0x8 ..\..\..\..\..\..\..\..\microchip\harmony\v2_06\bin\framework\peripheral\PIC32MX130F064B_peripherals.a(peripheral.o)
 .text.PLIB_I2C_ReservedAddressProtectEnable
                0x00000000       0x10 ..\..\..\..\..\..\..\..\microchip\harmony\v2_06\bin\framework\peripheral\PIC32MX130F064B_peripherals.a(peripheral.o)
 .text.PLIB_I2C_ReservedAddressProtectDisable
                0x00000000       0x10 ..\..\..\..\..\..\..\..\microchip\harmony\v2_06\bin\framework\peripheral\PIC32MX130F064B_peripherals.a(peripheral.o)
 .text.PLIB_I2C_ExistsReservedAddressProtect
                0x00000000        0x8 ..\..\..\..\..\..\..\..\microchip\harmony\v2_06\bin\framework\peripheral\PIC32MX130F064B_peripherals.a(peripheral.o)
 .text.PLIB_I2C_StopInIdleEnable
                0x00000000       0x10 ..\..\..\..\..\..\..\..\microchip\harmony\v2_06\bin\framework\peripheral\PIC32MX130F064B_peripherals.a(peripheral.o)
 .text.PLIB_I2C_StopInIdleDisable
                0x00000000       0x10 ..\..\..\..\..\..\..\..\microchip\harmony\v2_06\bin\framework\peripheral\PIC32MX130F064B_peripherals.a(peripheral.o)
 .text.PLIB_I2C_ExistsStopInIdle
                0x00000000        0x8 ..\..\..\..\..\..\..\..\microchip\harmony\v2_06\bin\framework\peripheral\PIC32MX130F064B_peripherals.a(peripheral.o)
 .text.PLIB_I2C_IPMIEnable
                0x00000000        0x8 ..\..\..\..\..\..\..\..\microchip\harmony\v2_06\bin\framework\peripheral\PIC32MX130F064B_peripherals.a(peripheral.o)
 .text.PLIB_I2C_IPMIDisable
                0x00000000        0x8 ..\..\..\..\..\..\..\..\microchip\harmony\v2_06\bin\framework\peripheral\PIC32MX130F064B_peripherals.a(peripheral.o)
 .text.PLIB_I2C_ExistsIPMI
                0x00000000        0x8 ..\..\..\..\..\..\..\..\microchip\harmony\v2_06\bin\framework\peripheral\PIC32MX130F064B_peripherals.a(peripheral.o)
 .text.PLIB_I2C_Enable
                0x00000000       0x10 ..\..\..\..\..\..\..\..\microchip\harmony\v2_06\bin\framework\peripheral\PIC32MX130F064B_peripherals.a(peripheral.o)
 .text.PLIB_I2C_Disable
                0x00000000       0x10 ..\..\..\..\..\..\..\..\microchip\harmony\v2_06\bin\framework\peripheral\PIC32MX130F064B_peripherals.a(peripheral.o)
 .text.PLIB_I2C_ExistsModuleEnable
                0x00000000        0x8 ..\..\..\..\..\..\..\..\microchip\harmony\v2_06\bin\framework\peripheral\PIC32MX130F064B_peripherals.a(peripheral.o)
 .text.PLIB_I2C_StartWasDetected
                0x00000000        0xc ..\..\..\..\..\..\..\..\microchip\harmony\v2_06\bin\framework\peripheral\PIC32MX130F064B_peripherals.a(peripheral.o)
 .text.PLIB_I2C_StartClear
                0x00000000       0x10 ..\..\..\..\..\..\..\..\microchip\harmony\v2_06\bin\framework\peripheral\PIC32MX130F064B_peripherals.a(peripheral.o)
 .text.PLIB_I2C_ExistsStartDetect
                0x00000000        0x8 ..\..\..\..\..\..\..\..\microchip\harmony\v2_06\bin\framework\peripheral\PIC32MX130F064B_peripherals.a(peripheral.o)
 .text.PLIB_I2C_StopWasDetected
                0x00000000        0xc ..\..\..\..\..\..\..\..\microchip\harmony\v2_06\bin\framework\peripheral\PIC32MX130F064B_peripherals.a(peripheral.o)
 .text.PLIB_I2C_StopClear
                0x00000000       0x10 ..\..\..\..\..\..\..\..\microchip\harmony\v2_06\bin\framework\peripheral\PIC32MX130F064B_peripherals.a(peripheral.o)
 .text.PLIB_I2C_ExistsStopDetect
                0x00000000        0x8 ..\..\..\..\..\..\..\..\microchip\harmony\v2_06\bin\framework\peripheral\PIC32MX130F064B_peripherals.a(peripheral.o)
 .text.PLIB_I2C_ArbitrationLossHasOccurred
                0x00000000        0xc ..\..\..\..\..\..\..\..\microchip\harmony\v2_06\bin\framework\peripheral\PIC32MX130F064B_peripherals.a(peripheral.o)
 .text.PLIB_I2C_ArbitrationLossClear
                0x00000000       0x10 ..\..\..\..\..\..\..\..\microchip\harmony\v2_06\bin\framework\peripheral\PIC32MX130F064B_peripherals.a(peripheral.o)
 .text.PLIB_I2C_ExistsArbitrationLoss
                0x00000000        0x8 ..\..\..\..\..\..\..\..\microchip\harmony\v2_06\bin\framework\peripheral\PIC32MX130F064B_peripherals.a(peripheral.o)
 .text.PLIB_I2C_BusIsIdle
                0x00000000       0x24 ..\..\..\..\..\..\..\..\microchip\harmony\v2_06\bin\framework\peripheral\PIC32MX130F064B_peripherals.a(peripheral.o)
 .text.PLIB_I2C_ExistsBusIsIdle
                0x00000000        0x8 ..\..\..\..\..\..\..\..\microchip\harmony\v2_06\bin\framework\peripheral\PIC32MX130F064B_peripherals.a(peripheral.o)
 .text.PLIB_I2C_BaudRateSet
                0x00000000       0x38 ..\..\..\..\..\..\..\..\microchip\harmony\v2_06\bin\framework\peripheral\PIC32MX130F064B_peripherals.a(peripheral.o)
 .text.PLIB_I2C_BaudRateGet
                0x00000000       0x34 ..\..\..\..\..\..\..\..\microchip\harmony\v2_06\bin\framework\peripheral\PIC32MX130F064B_peripherals.a(peripheral.o)
 .text.PLIB_I2C_ExistsBaudRate
                0x00000000        0x8 ..\..\..\..\..\..\..\..\microchip\harmony\v2_06\bin\framework\peripheral\PIC32MX130F064B_peripherals.a(peripheral.o)
 .text.PLIB_I2C_SlaveAddress7BitSet
                0x00000000       0x14 ..\..\..\..\..\..\..\..\microchip\harmony\v2_06\bin\framework\peripheral\PIC32MX130F064B_peripherals.a(peripheral.o)
 .text.PLIB_I2C_SlaveAddress7BitGet
                0x00000000        0xc ..\..\..\..\..\..\..\..\microchip\harmony\v2_06\bin\framework\peripheral\PIC32MX130F064B_peripherals.a(peripheral.o)
 .text.PLIB_I2C_ExistsSlaveAddress7Bit
                0x00000000        0x8 ..\..\..\..\..\..\..\..\microchip\harmony\v2_06\bin\framework\peripheral\PIC32MX130F064B_peripherals.a(peripheral.o)
 .text.PLIB_I2C_SlaveAddress10BitSet
                0x00000000       0x14 ..\..\..\..\..\..\..\..\microchip\harmony\v2_06\bin\framework\peripheral\PIC32MX130F064B_peripherals.a(peripheral.o)
 .text.PLIB_I2C_SlaveAddress10BitGet
                0x00000000        0xc ..\..\..\..\..\..\..\..\microchip\harmony\v2_06\bin\framework\peripheral\PIC32MX130F064B_peripherals.a(peripheral.o)
 .text.PLIB_I2C_SlaveAddressModeIs10Bits
                0x00000000        0xc ..\..\..\..\..\..\..\..\microchip\harmony\v2_06\bin\framework\peripheral\PIC32MX130F064B_peripherals.a(peripheral.o)
 .text.PLIB_I2C_ExistsSlaveAddress10Bit
                0x00000000        0x8 ..\..\..\..\..\..\..\..\microchip\harmony\v2_06\bin\framework\peripheral\PIC32MX130F064B_peripherals.a(peripheral.o)
 .text.PLIB_I2C_SlaveAddress10BitWasDetected
                0x00000000        0xc ..\..\..\..\..\..\..\..\microchip\harmony\v2_06\bin\framework\peripheral\PIC32MX130F064B_peripherals.a(peripheral.o)
 .text.PLIB_I2C_ExistsSlaveAddressDetect
                0x00000000        0x8 ..\..\..\..\..\..\..\..\microchip\harmony\v2_06\bin\framework\peripheral\PIC32MX130F064B_peripherals.a(peripheral.o)
 .text.PLIB_I2C_SlaveAddressIsGeneralCall
                0x00000000        0xc ..\..\..\..\..\..\..\..\microchip\harmony\v2_06\bin\framework\peripheral\PIC32MX130F064B_peripherals.a(peripheral.o)
 .text.PLIB_I2C_ExistsGeneralCallAddressDetect
                0x00000000        0x8 ..\..\..\..\..\..\..\..\microchip\harmony\v2_06\bin\framework\peripheral\PIC32MX130F064B_peripherals.a(peripheral.o)
 .text.PLIB_I2C_SlaveMask7BitSet
                0x00000000        0xc ..\..\..\..\..\..\..\..\microchip\harmony\v2_06\bin\framework\peripheral\PIC32MX130F064B_peripherals.a(peripheral.o)
 .text.PLIB_I2C_SlaveMask7BitGet
                0x00000000        0xc ..\..\..\..\..\..\..\..\microchip\harmony\v2_06\bin\framework\peripheral\PIC32MX130F064B_peripherals.a(peripheral.o)
 .text.PLIB_I2C_SlaveMask10BitSet
                0x00000000        0xc ..\..\..\..\..\..\..\..\microchip\harmony\v2_06\bin\framework\peripheral\PIC32MX130F064B_peripherals.a(peripheral.o)
 .text.PLIB_I2C_SlaveMask10BitGet
                0x00000000        0xc ..\..\..\..\..\..\..\..\microchip\harmony\v2_06\bin\framework\peripheral\PIC32MX130F064B_peripherals.a(peripheral.o)
 .text.PLIB_I2C_ExistsSlaveMask
                0x00000000        0x8 ..\..\..\..\..\..\..\..\microchip\harmony\v2_06\bin\framework\peripheral\PIC32MX130F064B_peripherals.a(peripheral.o)
 .text.PLIB_I2C_SlaveReadIsRequested
                0x00000000        0xc ..\..\..\..\..\..\..\..\microchip\harmony\v2_06\bin\framework\peripheral\PIC32MX130F064B_peripherals.a(peripheral.o)
 .text.PLIB_I2C_ExistsSlaveReadRequest
                0x00000000        0x8 ..\..\..\..\..\..\..\..\microchip\harmony\v2_06\bin\framework\peripheral\PIC32MX130F064B_peripherals.a(peripheral.o)
 .text.PLIB_I2C_SlaveDataIsDetected
                0x00000000        0xc ..\..\..\..\..\..\..\..\microchip\harmony\v2_06\bin\framework\peripheral\PIC32MX130F064B_peripherals.a(peripheral.o)
 .text.PLIB_I2C_SlaveAddressIsDetected
                0x00000000       0x10 ..\..\..\..\..\..\..\..\microchip\harmony\v2_06\bin\framework\peripheral\PIC32MX130F064B_peripherals.a(peripheral.o)
 .text.PLIB_I2C_ExistsSlaveDataDetect
                0x00000000        0x8 ..\..\..\..\..\..\..\..\microchip\harmony\v2_06\bin\framework\peripheral\PIC32MX130F064B_peripherals.a(peripheral.o)
 .text.PLIB_I2C_SlaveClockHold
                0x00000000       0x10 ..\..\..\..\..\..\..\..\microchip\harmony\v2_06\bin\framework\peripheral\PIC32MX130F064B_peripherals.a(peripheral.o)
 .text.PLIB_I2C_SlaveClockRelease
                0x00000000       0x10 ..\..\..\..\..\..\..\..\microchip\harmony\v2_06\bin\framework\peripheral\PIC32MX130F064B_peripherals.a(peripheral.o)
 .text.PLIB_I2C_ExistsSlaveClockHold
                0x00000000        0x8 ..\..\..\..\..\..\..\..\microchip\harmony\v2_06\bin\framework\peripheral\PIC32MX130F064B_peripherals.a(peripheral.o)
 .text.PLIB_I2C_MasterStart
                0x00000000       0x10 ..\..\..\..\..\..\..\..\microchip\harmony\v2_06\bin\framework\peripheral\PIC32MX130F064B_peripherals.a(peripheral.o)
 .text.PLIB_I2C_ExistsMasterStart
                0x00000000        0x8 ..\..\..\..\..\..\..\..\microchip\harmony\v2_06\bin\framework\peripheral\PIC32MX130F064B_peripherals.a(peripheral.o)
 .text.PLIB_I2C_MasterStartRepeat
                0x00000000       0x10 ..\..\..\..\..\..\..\..\microchip\harmony\v2_06\bin\framework\peripheral\PIC32MX130F064B_peripherals.a(peripheral.o)
 .text.PLIB_I2C_ExistsMasterStartRepeat
                0x00000000        0x8 ..\..\..\..\..\..\..\..\microchip\harmony\v2_06\bin\framework\peripheral\PIC32MX130F064B_peripherals.a(peripheral.o)
 .text.PLIB_I2C_MasterReceiverClock1Byte
                0x00000000       0x10 ..\..\..\..\..\..\..\..\microchip\harmony\v2_06\bin\framework\peripheral\PIC32MX130F064B_peripherals.a(peripheral.o)
 .text.PLIB_I2C_ExistsMasterReceiverClock1Byte
                0x00000000        0x8 ..\..\..\..\..\..\..\..\microchip\harmony\v2_06\bin\framework\peripheral\PIC32MX130F064B_peripherals.a(peripheral.o)
 .text.PLIB_I2C_MasterStop
                0x00000000       0x10 ..\..\..\..\..\..\..\..\microchip\harmony\v2_06\bin\framework\peripheral\PIC32MX130F064B_peripherals.a(peripheral.o)
 .text.PLIB_I2C_ExistsMasterStop
                0x00000000        0x8 ..\..\..\..\..\..\..\..\microchip\harmony\v2_06\bin\framework\peripheral\PIC32MX130F064B_peripherals.a(peripheral.o)
 .text.PLIB_I2C_TransmitterIsBusy
                0x00000000        0xc ..\..\..\..\..\..\..\..\microchip\harmony\v2_06\bin\framework\peripheral\PIC32MX130F064B_peripherals.a(peripheral.o)
 .text.PLIB_I2C_TransmitterIsReady
                0x00000000       0x10 ..\..\..\..\..\..\..\..\microchip\harmony\v2_06\bin\framework\peripheral\PIC32MX130F064B_peripherals.a(peripheral.o)
 .text.PLIB_I2C_ExistsTransmitterIsBusy
                0x00000000        0x8 ..\..\..\..\..\..\..\..\microchip\harmony\v2_06\bin\framework\peripheral\PIC32MX130F064B_peripherals.a(peripheral.o)
 .text.PLIB_I2C_TransmitterByteSend
                0x00000000        0xc ..\..\..\..\..\..\..\..\microchip\harmony\v2_06\bin\framework\peripheral\PIC32MX130F064B_peripherals.a(peripheral.o)
 .text.PLIB_I2C_ExistsTransmitterByteSend
                0x00000000        0x8 ..\..\..\..\..\..\..\..\microchip\harmony\v2_06\bin\framework\peripheral\PIC32MX130F064B_peripherals.a(peripheral.o)
 .text.PLIB_I2C_TransmitterByteHasCompleted
                0x00000000       0x10 ..\..\..\..\..\..\..\..\microchip\harmony\v2_06\bin\framework\peripheral\PIC32MX130F064B_peripherals.a(peripheral.o)
 .text.PLIB_I2C_ExistsTransmitterByteComplete
                0x00000000        0x8 ..\..\..\..\..\..\..\..\microchip\harmony\v2_06\bin\framework\peripheral\PIC32MX130F064B_peripherals.a(peripheral.o)
 .text.PLIB_I2C_TransmitterByteWasAcknowledged
                0x00000000       0x10 ..\..\..\..\..\..\..\..\microchip\harmony\v2_06\bin\framework\peripheral\PIC32MX130F064B_peripherals.a(peripheral.o)
 .text.PLIB_I2C_ExistsTransmitterByteAcknowledge
                0x00000000        0x8 ..\..\..\..\..\..\..\..\microchip\harmony\v2_06\bin\framework\peripheral\PIC32MX130F064B_peripherals.a(peripheral.o)
 .text.PLIB_I2C_TransmitterOverflowHasOccurred
                0x00000000        0xc ..\..\..\..\..\..\..\..\microchip\harmony\v2_06\bin\framework\peripheral\PIC32MX130F064B_peripherals.a(peripheral.o)
 .text.PLIB_I2C_TransmitterOverflowClear
                0x00000000       0x10 ..\..\..\..\..\..\..\..\microchip\harmony\v2_06\bin\framework\peripheral\PIC32MX130F064B_peripherals.a(peripheral.o)
 .text.PLIB_I2C_ExistsTransmitterOverflow
                0x00000000        0x8 ..\..\..\..\..\..\..\..\microchip\harmony\v2_06\bin\framework\peripheral\PIC32MX130F064B_peripherals.a(peripheral.o)
 .text.PLIB_I2C_ReceivedByteIsAvailable
                0x00000000        0xc ..\..\..\..\..\..\..\..\microchip\harmony\v2_06\bin\framework\peripheral\PIC32MX130F064B_peripherals.a(peripheral.o)
 .text.PLIB_I2C_ExistsReceivedByteAvailable
                0x00000000        0x8 ..\..\..\..\..\..\..\..\microchip\harmony\v2_06\bin\framework\peripheral\PIC32MX130F064B_peripherals.a(peripheral.o)
 .text.PLIB_I2C_ReceivedByteGet
                0x00000000        0xc ..\..\..\..\..\..\..\..\microchip\harmony\v2_06\bin\framework\peripheral\PIC32MX130F064B_peripherals.a(peripheral.o)
 .text.PLIB_I2C_ExistsReceivedByteGet
                0x00000000        0x8 ..\..\..\..\..\..\..\..\microchip\harmony\v2_06\bin\framework\peripheral\PIC32MX130F064B_peripherals.a(peripheral.o)
 .text.PLIB_I2C_ReceivedByteAcknowledge
                0x00000000       0x2c ..\..\..\..\..\..\..\..\microchip\harmony\v2_06\bin\framework\peripheral\PIC32MX130F064B_peripherals.a(peripheral.o)
 .text.PLIB_I2C_ReceiverByteAcknowledgeHasCompleted
                0x00000000       0x10 ..\..\..\..\..\..\..\..\microchip\harmony\v2_06\bin\framework\peripheral\PIC32MX130F064B_peripherals.a(peripheral.o)
 .text.PLIB_I2C_MasterReceiverReadyToAcknowledge
                0x00000000       0x10 ..\..\..\..\..\..\..\..\microchip\harmony\v2_06\bin\framework\peripheral\PIC32MX130F064B_peripherals.a(peripheral.o)
 .text.PLIB_I2C_ExistsReceivedByteAcknowledge
                0x00000000        0x8 ..\..\..\..\..\..\..\..\microchip\harmony\v2_06\bin\framework\peripheral\PIC32MX130F064B_peripherals.a(peripheral.o)
 .text.PLIB_I2C_ReceiverOverflowHasOccurred
                0x00000000        0xc ..\..\..\..\..\..\..\..\microchip\harmony\v2_06\bin\framework\peripheral\PIC32MX130F064B_peripherals.a(peripheral.o)
 .text.PLIB_I2C_ReceiverOverflowClear
                0x00000000       0x10 ..\..\..\..\..\..\..\..\microchip\harmony\v2_06\bin\framework\peripheral\PIC32MX130F064B_peripherals.a(peripheral.o)
 .text.PLIB_I2C_ExistsReceiverOverflow
                0x00000000        0x8 ..\..\..\..\..\..\..\..\microchip\harmony\v2_06\bin\framework\peripheral\PIC32MX130F064B_peripherals.a(peripheral.o)
 .text.PLIB_I2C_SlaveInterruptOnStopEnable
                0x00000000        0x8 ..\..\..\..\..\..\..\..\microchip\harmony\v2_06\bin\framework\peripheral\PIC32MX130F064B_peripherals.a(peripheral.o)
 .text.PLIB_I2C_SlaveInterruptOnStopDisable
                0x00000000        0x8 ..\..\..\..\..\..\..\..\microchip\harmony\v2_06\bin\framework\peripheral\PIC32MX130F064B_peripherals.a(peripheral.o)
 .text.PLIB_I2C_ExistsSlaveInterruptOnStop
                0x00000000        0x8 ..\..\..\..\..\..\..\..\microchip\harmony\v2_06\bin\framework\peripheral\PIC32MX130F064B_peripherals.a(peripheral.o)
 .text.PLIB_I2C_SlaveInterruptOnStartEnable
                0x00000000        0x8 ..\..\..\..\..\..\..\..\microchip\harmony\v2_06\bin\framework\peripheral\PIC32MX130F064B_peripherals.a(peripheral.o)
 .text.PLIB_I2C_SlaveInterruptOnStartDisable
                0x00000000        0x8 ..\..\..\..\..\..\..\..\microchip\harmony\v2_06\bin\framework\peripheral\PIC32MX130F064B_peripherals.a(peripheral.o)
 .text.PLIB_I2C_ExistsSlaveInterruptOnStart
                0x00000000        0x8 ..\..\..\..\..\..\..\..\microchip\harmony\v2_06\bin\framework\peripheral\PIC32MX130F064B_peripherals.a(peripheral.o)
 .text.PLIB_I2C_SlaveBufferOverwriteEnable
                0x00000000        0x8 ..\..\..\..\..\..\..\..\microchip\harmony\v2_06\bin\framework\peripheral\PIC32MX130F064B_peripherals.a(peripheral.o)
 .text.PLIB_I2C_SlaveBufferOverwriteDisable
                0x00000000        0x8 ..\..\..\..\..\..\..\..\microchip\harmony\v2_06\bin\framework\peripheral\PIC32MX130F064B_peripherals.a(peripheral.o)
 .text.PLIB_I2C_ExistsSlaveBufferOverwrite
                0x00000000        0x8 ..\..\..\..\..\..\..\..\microchip\harmony\v2_06\bin\framework\peripheral\PIC32MX130F064B_peripherals.a(peripheral.o)
 .text.PLIB_I2C_DataLineHoldTimeSet
                0x00000000        0x8 ..\..\..\..\..\..\..\..\microchip\harmony\v2_06\bin\framework\peripheral\PIC32MX130F064B_peripherals.a(peripheral.o)
 .text.PLIB_I2C_ExistsDataLineHoldTime
                0x00000000        0x8 ..\..\..\..\..\..\..\..\microchip\harmony\v2_06\bin\framework\peripheral\PIC32MX130F064B_peripherals.a(peripheral.o)
 .text.PLIB_I2C_SlaveBusCollisionDetectEnable
                0x00000000        0x8 ..\..\..\..\..\..\..\..\microchip\harmony\v2_06\bin\framework\peripheral\PIC32MX130F064B_peripherals.a(peripheral.o)
 .text.PLIB_I2C_SlaveBusCollisionDetectDisable
                0x00000000        0x8 ..\..\..\..\..\..\..\..\microchip\harmony\v2_06\bin\framework\peripheral\PIC32MX130F064B_peripherals.a(peripheral.o)
 .text.PLIB_I2C_ExistsSlaveBusCollisionDetect
                0x00000000        0x8 ..\..\..\..\..\..\..\..\microchip\harmony\v2_06\bin\framework\peripheral\PIC32MX130F064B_peripherals.a(peripheral.o)
 .text.PLIB_I2C_SlaveAddressHoldEnable
                0x00000000        0x8 ..\..\..\..\..\..\..\..\microchip\harmony\v2_06\bin\framework\peripheral\PIC32MX130F064B_peripherals.a(peripheral.o)
 .text.PLIB_I2C_SlaveAddressHoldDisable
                0x00000000        0x8 ..\..\..\..\..\..\..\..\microchip\harmony\v2_06\bin\framework\peripheral\PIC32MX130F064B_peripherals.a(peripheral.o)
 .text.PLIB_I2C_ExistsSlaveAddressHoldEnable
                0x00000000        0x8 ..\..\..\..\..\..\..\..\microchip\harmony\v2_06\bin\framework\peripheral\PIC32MX130F064B_peripherals.a(peripheral.o)
 .text.PLIB_I2C_SlaveDataHoldEnable
                0x00000000        0x8 ..\..\..\..\..\..\..\..\microchip\harmony\v2_06\bin\framework\peripheral\PIC32MX130F064B_peripherals.a(peripheral.o)
 .text.PLIB_I2C_SlaveDataHoldDisable
                0x00000000        0x8 ..\..\..\..\..\..\..\..\microchip\harmony\v2_06\bin\framework\peripheral\PIC32MX130F064B_peripherals.a(peripheral.o)
 .text.PLIB_I2C_ExistsSlaveDataHoldEnable
                0x00000000        0x8 ..\..\..\..\..\..\..\..\microchip\harmony\v2_06\bin\framework\peripheral\PIC32MX130F064B_peripherals.a(peripheral.o)
 .text.PLIB_I2C_AcksequenceIsInProgress
                0x00000000        0x8 ..\..\..\..\..\..\..\..\microchip\harmony\v2_06\bin\framework\peripheral\PIC32MX130F064B_peripherals.a(peripheral.o)
 .text.PLIB_I2C_ExistsAcksequenceProgress
                0x00000000        0x8 ..\..\..\..\..\..\..\..\microchip\harmony\v2_06\bin\framework\peripheral\PIC32MX130F064B_peripherals.a(peripheral.o)
 .text.PLIB_IC_Enable
                0x00000000       0x10 ..\..\..\..\..\..\..\..\microchip\harmony\v2_06\bin\framework\peripheral\PIC32MX130F064B_peripherals.a(peripheral.o)
 .text.PLIB_IC_Disable
                0x00000000       0x10 ..\..\..\..\..\..\..\..\microchip\harmony\v2_06\bin\framework\peripheral\PIC32MX130F064B_peripherals.a(peripheral.o)
 .text.PLIB_IC_ExistsEnable
                0x00000000        0x8 ..\..\..\..\..\..\..\..\microchip\harmony\v2_06\bin\framework\peripheral\PIC32MX130F064B_peripherals.a(peripheral.o)
 .text.PLIB_IC_StopInIdleEnable
                0x00000000       0x10 ..\..\..\..\..\..\..\..\microchip\harmony\v2_06\bin\framework\peripheral\PIC32MX130F064B_peripherals.a(peripheral.o)
 .text.PLIB_IC_StopInIdleDisable
                0x00000000       0x10 ..\..\..\..\..\..\..\..\microchip\harmony\v2_06\bin\framework\peripheral\PIC32MX130F064B_peripherals.a(peripheral.o)
 .text.PLIB_IC_ExistsStopInIdle
                0x00000000        0x8 ..\..\..\..\..\..\..\..\microchip\harmony\v2_06\bin\framework\peripheral\PIC32MX130F064B_peripherals.a(peripheral.o)
 .text.PLIB_IC_FirstCaptureEdgeSelect
                0x00000000       0x14 ..\..\..\..\..\..\..\..\microchip\harmony\v2_06\bin\framework\peripheral\PIC32MX130F064B_peripherals.a(peripheral.o)
 .text.PLIB_IC_ExistsEdgeCapture
                0x00000000        0x8 ..\..\..\..\..\..\..\..\microchip\harmony\v2_06\bin\framework\peripheral\PIC32MX130F064B_peripherals.a(peripheral.o)
 .text.PLIB_IC_EventsPerInterruptSelect
                0x00000000       0x14 ..\..\..\..\..\..\..\..\microchip\harmony\v2_06\bin\framework\peripheral\PIC32MX130F064B_peripherals.a(peripheral.o)
 .text.PLIB_IC_ExistsEventsPerInterruptSelect
                0x00000000        0x8 ..\..\..\..\..\..\..\..\microchip\harmony\v2_06\bin\framework\peripheral\PIC32MX130F064B_peripherals.a(peripheral.o)
 .text.PLIB_IC_Buffer32BitGet
                0x00000000        0xc ..\..\..\..\..\..\..\..\microchip\harmony\v2_06\bin\framework\peripheral\PIC32MX130F064B_peripherals.a(peripheral.o)
 .text.PLIB_IC_Buffer16BitGet
                0x00000000        0xc ..\..\..\..\..\..\..\..\microchip\harmony\v2_06\bin\framework\peripheral\PIC32MX130F064B_peripherals.a(peripheral.o)
 .text.PLIB_IC_ExistsBufferValue
                0x00000000        0x8 ..\..\..\..\..\..\..\..\microchip\harmony\v2_06\bin\framework\peripheral\PIC32MX130F064B_peripherals.a(peripheral.o)
 .text.PLIB_IC_BufferIsEmpty
                0x00000000       0x10 ..\..\..\..\..\..\..\..\microchip\harmony\v2_06\bin\framework\peripheral\PIC32MX130F064B_peripherals.a(peripheral.o)
 .text.PLIB_IC_ExistsBufferIsEmptyStatus
                0x00000000        0x8 ..\..\..\..\..\..\..\..\microchip\harmony\v2_06\bin\framework\peripheral\PIC32MX130F064B_peripherals.a(peripheral.o)
 .text.PLIB_IC_BufferOverflowHasOccurred
                0x00000000        0xc ..\..\..\..\..\..\..\..\microchip\harmony\v2_06\bin\framework\peripheral\PIC32MX130F064B_peripherals.a(peripheral.o)
 .text.PLIB_IC_ExistsBufferOverflowStatus
                0x00000000        0x8 ..\..\..\..\..\..\..\..\microchip\harmony\v2_06\bin\framework\peripheral\PIC32MX130F064B_peripherals.a(peripheral.o)
 .text.PLIB_IC_ModeSelect
                0x00000000       0x14 ..\..\..\..\..\..\..\..\microchip\harmony\v2_06\bin\framework\peripheral\PIC32MX130F064B_peripherals.a(peripheral.o)
 .text.PLIB_IC_ExistsCaptureMode
                0x00000000        0x8 ..\..\..\..\..\..\..\..\microchip\harmony\v2_06\bin\framework\peripheral\PIC32MX130F064B_peripherals.a(peripheral.o)
 .text.PLIB_IC_BufferSizeSelect
                0x00000000       0x14 ..\..\..\..\..\..\..\..\microchip\harmony\v2_06\bin\framework\peripheral\PIC32MX130F064B_peripherals.a(peripheral.o)
 .text.PLIB_IC_ExistsBufferSize
                0x00000000        0x8 ..\..\..\..\..\..\..\..\microchip\harmony\v2_06\bin\framework\peripheral\PIC32MX130F064B_peripherals.a(peripheral.o)
 .text.PLIB_IC_TimerSelect
                0x00000000       0x14 ..\..\..\..\..\..\..\..\microchip\harmony\v2_06\bin\framework\peripheral\PIC32MX130F064B_peripherals.a(peripheral.o)
 .text.PLIB_IC_ExistsTimerSelect
                0x00000000        0x8 ..\..\..\..\..\..\..\..\microchip\harmony\v2_06\bin\framework\peripheral\PIC32MX130F064B_peripherals.a(peripheral.o)
 .text.PLIB_IC_AlternateClockEnable
                0x00000000        0x8 ..\..\..\..\..\..\..\..\microchip\harmony\v2_06\bin\framework\peripheral\PIC32MX130F064B_peripherals.a(peripheral.o)
 .text.PLIB_IC_AlternateClockDisable
                0x00000000        0x8 ..\..\..\..\..\..\..\..\microchip\harmony\v2_06\bin\framework\peripheral\PIC32MX130F064B_peripherals.a(peripheral.o)
 .text.PLIB_IC_ExistsAlternateClock
                0x00000000        0x8 ..\..\..\..\..\..\..\..\microchip\harmony\v2_06\bin\framework\peripheral\PIC32MX130F064B_peripherals.a(peripheral.o)
 .text.PLIB_IC_AlternateTimerSelect
                0x00000000        0x8 ..\..\..\..\..\..\..\..\microchip\harmony\v2_06\bin\framework\peripheral\PIC32MX130F064B_peripherals.a(peripheral.o)
 .text.PLIB_IC_ExistsAlternateTimerSelect
                0x00000000        0x8 ..\..\..\..\..\..\..\..\microchip\harmony\v2_06\bin\framework\peripheral\PIC32MX130F064B_peripherals.a(peripheral.o)
 .text.PLIB_INT_ExistsSingleVectorShadowSet
                0x00000000        0x8 ..\..\..\..\..\..\..\..\microchip\harmony\v2_06\bin\framework\peripheral\PIC32MX130F064B_peripherals.a(peripheral.o)
 .text.PLIB_INT_SingleVectorShadowSetDisable
                0x00000000       0x14 ..\..\..\..\..\..\..\..\microchip\harmony\v2_06\bin\framework\peripheral\PIC32MX130F064B_peripherals.a(peripheral.o)
 .text.PLIB_INT_SingleVectorShadowSetEnable
                0x00000000       0x14 ..\..\..\..\..\..\..\..\microchip\harmony\v2_06\bin\framework\peripheral\PIC32MX130F064B_peripherals.a(peripheral.o)
 .text.PLIB_INT_ExistsVectorSelect
                0x00000000        0x8 ..\..\..\..\..\..\..\..\microchip\harmony\v2_06\bin\framework\peripheral\PIC32MX130F064B_peripherals.a(peripheral.o)
 .text.PLIB_INT_SingleVectorSelect
                0x00000000       0x14 ..\..\..\..\..\..\..\..\microchip\harmony\v2_06\bin\framework\peripheral\PIC32MX130F064B_peripherals.a(peripheral.o)
 .text.PLIB_INT_ExistsProximityTimerEnable
                0x00000000        0x8 ..\..\..\..\..\..\..\..\microchip\harmony\v2_06\bin\framework\peripheral\PIC32MX130F064B_peripherals.a(peripheral.o)
 .text.PLIB_INT_ProximityTimerEnable
                0x00000000       0x18 ..\..\..\..\..\..\..\..\microchip\harmony\v2_06\bin\framework\peripheral\PIC32MX130F064B_peripherals.a(peripheral.o)
 .text.PLIB_INT_ProximityTimerDisable
                0x00000000       0x14 ..\..\..\..\..\..\..\..\microchip\harmony\v2_06\bin\framework\peripheral\PIC32MX130F064B_peripherals.a(peripheral.o)
 .text.PLIB_INT_ExistsProximityTimerControl
                0x00000000        0x8 ..\..\..\..\..\..\..\..\microchip\harmony\v2_06\bin\framework\peripheral\PIC32MX130F064B_peripherals.a(peripheral.o)
 .text.PLIB_INT_ProximityTimerSet
                0x00000000       0x10 ..\..\..\..\..\..\..\..\microchip\harmony\v2_06\bin\framework\peripheral\PIC32MX130F064B_peripherals.a(peripheral.o)
 .text.PLIB_INT_ProximityTimerGet
                0x00000000       0x10 ..\..\..\..\..\..\..\..\microchip\harmony\v2_06\bin\framework\peripheral\PIC32MX130F064B_peripherals.a(peripheral.o)
 .text.PLIB_INT_ExistsExternalINTEdgeSelect
                0x00000000        0x8 ..\..\..\..\..\..\..\..\microchip\harmony\v2_06\bin\framework\peripheral\PIC32MX130F064B_peripherals.a(peripheral.o)
 .text.PLIB_INT_ExternalRisingEdgeSelect
                0x00000000       0x10 ..\..\..\..\..\..\..\..\microchip\harmony\v2_06\bin\framework\peripheral\PIC32MX130F064B_peripherals.a(peripheral.o)
 .text.PLIB_INT_ExternalFallingEdgeSelect
                0x00000000       0x10 ..\..\..\..\..\..\..\..\microchip\harmony\v2_06\bin\framework\peripheral\PIC32MX130F064B_peripherals.a(peripheral.o)
 .text.PLIB_INT_ExistsINTCPUPriority
                0x00000000        0x8 ..\..\..\..\..\..\..\..\microchip\harmony\v2_06\bin\framework\peripheral\PIC32MX130F064B_peripherals.a(peripheral.o)
 .text.PLIB_INT_PriorityGet
                0x00000000       0x10 ..\..\..\..\..\..\..\..\microchip\harmony\v2_06\bin\framework\peripheral\PIC32MX130F064B_peripherals.a(peripheral.o)
 .text.PLIB_INT_ExistsINTCPUVector
                0x00000000        0x8 ..\..\..\..\..\..\..\..\microchip\harmony\v2_06\bin\framework\peripheral\PIC32MX130F064B_peripherals.a(peripheral.o)
 .text.PLIB_INT_VectorGet
                0x00000000       0x10 ..\..\..\..\..\..\..\..\microchip\harmony\v2_06\bin\framework\peripheral\PIC32MX130F064B_peripherals.a(peripheral.o)
 .text.PLIB_INT_ExistsSourceFlag
                0x00000000        0x8 ..\..\..\..\..\..\..\..\microchip\harmony\v2_06\bin\framework\peripheral\PIC32MX130F064B_peripherals.a(peripheral.o)
 .text.PLIB_INT_SourceFlagGet
                0x00000000       0x24 ..\..\..\..\..\..\..\..\microchip\harmony\v2_06\bin\framework\peripheral\PIC32MX130F064B_peripherals.a(peripheral.o)
 .text.PLIB_INT_SourceFlagSet
                0x00000000       0x28 ..\..\..\..\..\..\..\..\microchip\harmony\v2_06\bin\framework\peripheral\PIC32MX130F064B_peripherals.a(peripheral.o)
 .text.PLIB_INT_SourceFlagClear
                0x00000000       0x28 ..\..\..\..\..\..\..\..\microchip\harmony\v2_06\bin\framework\peripheral\PIC32MX130F064B_peripherals.a(peripheral.o)
 .text.PLIB_INT_ExistsSourceControl
                0x00000000        0x8 ..\..\..\..\..\..\..\..\microchip\harmony\v2_06\bin\framework\peripheral\PIC32MX130F064B_peripherals.a(peripheral.o)
 .text.PLIB_INT_SourceEnable
                0x00000000       0x28 ..\..\..\..\..\..\..\..\microchip\harmony\v2_06\bin\framework\peripheral\PIC32MX130F064B_peripherals.a(peripheral.o)
 .text.PLIB_INT_SourceDisable
                0x00000000       0x28 ..\..\..\..\..\..\..\..\microchip\harmony\v2_06\bin\framework\peripheral\PIC32MX130F064B_peripherals.a(peripheral.o)
 .text.PLIB_INT_SourceIsEnabled
                0x00000000       0x24 ..\..\..\..\..\..\..\..\microchip\harmony\v2_06\bin\framework\peripheral\PIC32MX130F064B_peripherals.a(peripheral.o)
 .text.PLIB_INT_ExistsVectorPriority
                0x00000000        0x8 ..\..\..\..\..\..\..\..\microchip\harmony\v2_06\bin\framework\peripheral\PIC32MX130F064B_peripherals.a(peripheral.o)
 .text.PLIB_INT_VectorPrioritySet
                0x00000000       0x54 ..\..\..\..\..\..\..\..\microchip\harmony\v2_06\bin\framework\peripheral\PIC32MX130F064B_peripherals.a(peripheral.o)
 .text.PLIB_INT_VectorPriorityGet
                0x00000000       0x38 ..\..\..\..\..\..\..\..\microchip\harmony\v2_06\bin\framework\peripheral\PIC32MX130F064B_peripherals.a(peripheral.o)
 .text.PLIB_INT_VectorSubPrioritySet
                0x00000000       0x50 ..\..\..\..\..\..\..\..\microchip\harmony\v2_06\bin\framework\peripheral\PIC32MX130F064B_peripherals.a(peripheral.o)
 .text.PLIB_INT_VectorSubPriorityGet
                0x00000000       0x34 ..\..\..\..\..\..\..\..\microchip\harmony\v2_06\bin\framework\peripheral\PIC32MX130F064B_peripherals.a(peripheral.o)
 .text.PLIB_INT_ExistsCPUCurrentPriorityLevel
                0x00000000        0x8 ..\..\..\..\..\..\..\..\microchip\harmony\v2_06\bin\framework\peripheral\PIC32MX130F064B_peripherals.a(peripheral.o)
 .text.PLIB_INT_CPUCurrentPriorityLevelGet
                0x00000000       0x1c ..\..\..\..\..\..\..\..\microchip\harmony\v2_06\bin\framework\peripheral\PIC32MX130F064B_peripherals.a(peripheral.o)
 .text.PLIB_INT_ExistsEnableControl
                0x00000000        0x8 ..\..\..\..\..\..\..\..\microchip\harmony\v2_06\bin\framework\peripheral\PIC32MX130F064B_peripherals.a(peripheral.o)
 .text.PLIB_INT_Disable
                0x00000000       0x1c ..\..\..\..\..\..\..\..\microchip\harmony\v2_06\bin\framework\peripheral\PIC32MX130F064B_peripherals.a(peripheral.o)
 .text.PLIB_INT_IsEnabled
                0x00000000       0x1c ..\..\..\..\..\..\..\..\microchip\harmony\v2_06\bin\framework\peripheral\PIC32MX130F064B_peripherals.a(peripheral.o)
 .text.PLIB_INT_SetState
                0x00000000       0x1c ..\..\..\..\..\..\..\..\microchip\harmony\v2_06\bin\framework\peripheral\PIC32MX130F064B_peripherals.a(peripheral.o)
 .text.PLIB_INT_ExistsShadowRegisterAssign
                0x00000000        0x8 ..\..\..\..\..\..\..\..\microchip\harmony\v2_06\bin\framework\peripheral\PIC32MX130F064B_peripherals.a(peripheral.o)
 .text.PLIB_INT_ShadowRegisterAssign
                0x00000000        0x8 ..\..\..\..\..\..\..\..\microchip\harmony\v2_06\bin\framework\peripheral\PIC32MX130F064B_peripherals.a(peripheral.o)
 .text.PLIB_INT_ShadowRegisterGet
                0x00000000        0x8 ..\..\..\..\..\..\..\..\microchip\harmony\v2_06\bin\framework\peripheral\PIC32MX130F064B_peripherals.a(peripheral.o)
 .text.PLIB_INT_ExistsVariableOffset
                0x00000000        0x8 ..\..\..\..\..\..\..\..\microchip\harmony\v2_06\bin\framework\peripheral\PIC32MX130F064B_peripherals.a(peripheral.o)
 .text.PLIB_INT_VariableVectorOffsetSet
                0x00000000        0x8 ..\..\..\..\..\..\..\..\microchip\harmony\v2_06\bin\framework\peripheral\PIC32MX130F064B_peripherals.a(peripheral.o)
 .text.PLIB_INT_VariableVectorOffsetGet
                0x00000000        0x8 ..\..\..\..\..\..\..\..\microchip\harmony\v2_06\bin\framework\peripheral\PIC32MX130F064B_peripherals.a(peripheral.o)
 .text.PLIB_INT_ExistsSoftwareNMI
                0x00000000        0x8 ..\..\..\..\..\..\..\..\microchip\harmony\v2_06\bin\framework\peripheral\PIC32MX130F064B_peripherals.a(peripheral.o)
 .text.PLIB_INT_SoftwareNMITrigger
                0x00000000        0x8 ..\..\..\..\..\..\..\..\microchip\harmony\v2_06\bin\framework\peripheral\PIC32MX130F064B_peripherals.a(peripheral.o)
 .text.PLIB_MCPWM_Enable
                0x00000000        0x8 ..\..\..\..\..\..\..\..\microchip\harmony\v2_06\bin\framework\peripheral\PIC32MX130F064B_peripherals.a(peripheral.o)
 .text.PLIB_MCPWM_Disable
                0x00000000        0x8 ..\..\..\..\..\..\..\..\microchip\harmony\v2_06\bin\framework\peripheral\PIC32MX130F064B_peripherals.a(peripheral.o)
 .text.PLIB_MCPWM_StopInIdleEnable
                0x00000000        0x8 ..\..\..\..\..\..\..\..\microchip\harmony\v2_06\bin\framework\peripheral\PIC32MX130F064B_peripherals.a(peripheral.o)
 .text.PLIB_MCPWM_StopInIdleDisable
                0x00000000        0x8 ..\..\..\..\..\..\..\..\microchip\harmony\v2_06\bin\framework\peripheral\PIC32MX130F064B_peripherals.a(peripheral.o)
 .text.PLIB_MCPWM_ModuleIsReady
                0x00000000        0x8 ..\..\..\..\..\..\..\..\microchip\harmony\v2_06\bin\framework\peripheral\PIC32MX130F064B_peripherals.a(peripheral.o)
 .text.PLIB_MCPWM_ExistsModuleControl
                0x00000000        0x8 ..\..\..\..\..\..\..\..\microchip\harmony\v2_06\bin\framework\peripheral\PIC32MX130F064B_peripherals.a(peripheral.o)
 .text.PLIB_MCPWM_PrimarySpecialEventTriggerSetup
                0x00000000        0x8 ..\..\..\..\..\..\..\..\microchip\harmony\v2_06\bin\framework\peripheral\PIC32MX130F064B_peripherals.a(peripheral.o)
 .text.PLIB_MCPWM_PrimarySpecialEventTriggerInterruptIsPending
                0x00000000        0x8 ..\..\..\..\..\..\..\..\microchip\harmony\v2_06\bin\framework\peripheral\PIC32MX130F064B_peripherals.a(peripheral.o)
 .text.PLIB_MCPWM_PrimarySpecialEventTriggerInterruptEnable
                0x00000000        0x8 ..\..\..\..\..\..\..\..\microchip\harmony\v2_06\bin\framework\peripheral\PIC32MX130F064B_peripherals.a(peripheral.o)
 .text.PLIB_MCPWM_PrimarySpecialEventTriggerInterruptDisable
                0x00000000        0x8 ..\..\..\..\..\..\..\..\microchip\harmony\v2_06\bin\framework\peripheral\PIC32MX130F064B_peripherals.a(peripheral.o)
 .text.PLIB_MCPWM_ExistsPrimarySpecialEventTrigger
                0x00000000        0x8 ..\..\..\..\..\..\..\..\microchip\harmony\v2_06\bin\framework\peripheral\PIC32MX130F064B_peripherals.a(peripheral.o)
 .text.PLIB_MCPWM_SecondarySpecialEventTriggerSetup
                0x00000000        0x8 ..\..\..\..\..\..\..\..\microchip\harmony\v2_06\bin\framework\peripheral\PIC32MX130F064B_peripherals.a(peripheral.o)
 .text.PLIB_MCPWM_SecondarySpecialEventTriggerInterruptIsPending
                0x00000000        0x8 ..\..\..\..\..\..\..\..\microchip\harmony\v2_06\bin\framework\peripheral\PIC32MX130F064B_peripherals.a(peripheral.o)
 .text.PLIB_MCPWM_SecondarySpecialEventTriggerInterruptEnable
                0x00000000        0x8 ..\..\..\..\..\..\..\..\microchip\harmony\v2_06\bin\framework\peripheral\PIC32MX130F064B_peripherals.a(peripheral.o)
 .text.PLIB_MCPWM_SecondarySpecialEventTriggerInterruptDisable
                0x00000000        0x8 ..\..\..\..\..\..\..\..\microchip\harmony\v2_06\bin\framework\peripheral\PIC32MX130F064B_peripherals.a(peripheral.o)
 .text.PLIB_MCPWM_ExistsSecondarySpecialEventTrigger
                0x00000000        0x8 ..\..\..\..\..\..\..\..\microchip\harmony\v2_06\bin\framework\peripheral\PIC32MX130F064B_peripherals.a(peripheral.o)
 .text.PLIB_MCPWM_PrimaryTimerSetup
                0x00000000        0x8 ..\..\..\..\..\..\..\..\microchip\harmony\v2_06\bin\framework\peripheral\PIC32MX130F064B_peripherals.a(peripheral.o)
 .text.PLIB_MCPWM_PrimaryTimerCountRead
                0x00000000        0x8 ..\..\..\..\..\..\..\..\microchip\harmony\v2_06\bin\framework\peripheral\PIC32MX130F064B_peripherals.a(peripheral.o)
 .text.PLIB_MCPWM_ExistsPrimaryTimerSetup
                0x00000000        0x8 ..\..\..\..\..\..\..\..\microchip\harmony\v2_06\bin\framework\peripheral\PIC32MX130F064B_peripherals.a(peripheral.o)
 .text.PLIB_MCPWM_SecondaryTimerSetup
                0x00000000        0x8 ..\..\..\..\..\..\..\..\microchip\harmony\v2_06\bin\framework\peripheral\PIC32MX130F064B_peripherals.a(peripheral.o)
 .text.PLIB_MCPWM_SecondaryTimerCountRead
                0x00000000        0x8 ..\..\..\..\..\..\..\..\microchip\harmony\v2_06\bin\framework\peripheral\PIC32MX130F064B_peripherals.a(peripheral.o)
 .text.PLIB_MCPWM_ExistsSecondaryTimerSetup
                0x00000000        0x8 ..\..\..\..\..\..\..\..\microchip\harmony\v2_06\bin\framework\peripheral\PIC32MX130F064B_peripherals.a(peripheral.o)
 .text.PLIB_MCPWM_ChopClockSetup
                0x00000000        0x8 ..\..\..\..\..\..\..\..\microchip\harmony\v2_06\bin\framework\peripheral\PIC32MX130F064B_peripherals.a(peripheral.o)
 .text.PLIB_MCPWM_ExistsChopClockSetup
                0x00000000        0x8 ..\..\..\..\..\..\..\..\microchip\harmony\v2_06\bin\framework\peripheral\PIC32MX130F064B_peripherals.a(peripheral.o)
 .text.PLIB_MCPWM_ChannelSetup
                0x00000000        0x8 ..\..\..\..\..\..\..\..\microchip\harmony\v2_06\bin\framework\peripheral\PIC32MX130F064B_peripherals.a(peripheral.o)
 .text.PLIB_MCPWM_ExistsChannelSetup
                0x00000000        0x8 ..\..\..\..\..\..\..\..\microchip\harmony\v2_06\bin\framework\peripheral\PIC32MX130F064B_peripherals.a(peripheral.o)
 .text.PLIB_MCPWM_ChannelPrimaryDutyCycleSet
                0x00000000        0x8 ..\..\..\..\..\..\..\..\microchip\harmony\v2_06\bin\framework\peripheral\PIC32MX130F064B_peripherals.a(peripheral.o)
 .text.PLIB_MCPWM_ExistsChannelPrimaryDutyCycleSet
                0x00000000        0x8 ..\..\..\..\..\..\..\..\microchip\harmony\v2_06\bin\framework\peripheral\PIC32MX130F064B_peripherals.a(peripheral.o)
 .text.PLIB_MCPWM_ChannelSecondaryDutyCycleSet
                0x00000000        0x8 ..\..\..\..\..\..\..\..\microchip\harmony\v2_06\bin\framework\peripheral\PIC32MX130F064B_peripherals.a(peripheral.o)
 .text.PLIB_MCPWM_ExistsChannelSecondaryDutyCycleSet
                0x00000000        0x8 ..\..\..\..\..\..\..\..\microchip\harmony\v2_06\bin\framework\peripheral\PIC32MX130F064B_peripherals.a(peripheral.o)
 .text.PLIB_MCPWM_ChannelPhaseSet
                0x00000000        0x8 ..\..\..\..\..\..\..\..\microchip\harmony\v2_06\bin\framework\peripheral\PIC32MX130F064B_peripherals.a(peripheral.o)
 .text.PLIB_MCPWM_ExistsChannelPhaseSet
                0x00000000        0x8 ..\..\..\..\..\..\..\..\microchip\harmony\v2_06\bin\framework\peripheral\PIC32MX130F064B_peripherals.a(peripheral.o)
 .text.PLIB_MCPWM_ChannelPWMxHDeadtimeSet
                0x00000000        0x8 ..\..\..\..\..\..\..\..\microchip\harmony\v2_06\bin\framework\peripheral\PIC32MX130F064B_peripherals.a(peripheral.o)
 .text.PLIB_MCPWM_ChannelPWMxLDeadtimeSet
                0x00000000        0x8 ..\..\..\..\..\..\..\..\microchip\harmony\v2_06\bin\framework\peripheral\PIC32MX130F064B_peripherals.a(peripheral.o)
 .text.PLIB_MCPWM_ChannelDeadtimeCompSet
                0x00000000        0x8 ..\..\..\..\..\..\..\..\microchip\harmony\v2_06\bin\framework\peripheral\PIC32MX130F064B_peripherals.a(peripheral.o)
 .text.PLIB_MCPWM_ExistsChannelDeadtimeSetup
                0x00000000        0x8 ..\..\..\..\..\..\..\..\microchip\harmony\v2_06\bin\framework\peripheral\PIC32MX130F064B_peripherals.a(peripheral.o)
 .text.PLIB_MCPWM_ChannelTriggerSetup
                0x00000000        0x8 ..\..\..\..\..\..\..\..\microchip\harmony\v2_06\bin\framework\peripheral\PIC32MX130F064B_peripherals.a(peripheral.o)
 .text.PLIB_MCPWM_ChannelTriggerInterruptIsPending
                0x00000000        0x8 ..\..\..\..\..\..\..\..\microchip\harmony\v2_06\bin\framework\peripheral\PIC32MX130F064B_peripherals.a(peripheral.o)
 .text.PLIB_MCPWM_ChannelTriggerInterruptIsEnabled
                0x00000000        0x8 ..\..\..\..\..\..\..\..\microchip\harmony\v2_06\bin\framework\peripheral\PIC32MX130F064B_peripherals.a(peripheral.o)
 .text.PLIB_MCPWM_ChannelTriggerInterruptFlagClear
                0x00000000        0x8 ..\..\..\..\..\..\..\..\microchip\harmony\v2_06\bin\framework\peripheral\PIC32MX130F064B_peripherals.a(peripheral.o)
 .text.PLIB_MCPWM_ChannelTriggerInterruptEnable
                0x00000000        0x8 ..\..\..\..\..\..\..\..\microchip\harmony\v2_06\bin\framework\peripheral\PIC32MX130F064B_peripherals.a(peripheral.o)
 .text.PLIB_MCPWM_ChannelTriggerInterruptDisable
                0x00000000        0x8 ..\..\..\..\..\..\..\..\microchip\harmony\v2_06\bin\framework\peripheral\PIC32MX130F064B_peripherals.a(peripheral.o)
 .text.PLIB_MCPWM_ChannelPrimaryTriggerCompareSet
                0x00000000        0x8 ..\..\..\..\..\..\..\..\microchip\harmony\v2_06\bin\framework\peripheral\PIC32MX130F064B_peripherals.a(peripheral.o)
 .text.PLIB_MCPWM_ChannelSecondaryTriggerCompareSet
                0x00000000        0x8 ..\..\..\..\..\..\..\..\microchip\harmony\v2_06\bin\framework\peripheral\PIC32MX130F064B_peripherals.a(peripheral.o)
 .text.PLIB_MCPWM_ExistsChannelTrigger
                0x00000000        0x8 ..\..\..\..\..\..\..\..\microchip\harmony\v2_06\bin\framework\peripheral\PIC32MX130F064B_peripherals.a(peripheral.o)
 .text.PLIB_MCPWM_ChannelCurrentLimitSetup
                0x00000000        0x8 ..\..\..\..\..\..\..\..\microchip\harmony\v2_06\bin\framework\peripheral\PIC32MX130F064B_peripherals.a(peripheral.o)
 .text.PLIB_MCPWM_ChannelCurrentLimitInterruptIsPending
                0x00000000        0x8 ..\..\..\..\..\..\..\..\microchip\harmony\v2_06\bin\framework\peripheral\PIC32MX130F064B_peripherals.a(peripheral.o)
 .text.PLIB_MCPWM_ChannelCurrentLimitInterruptIsEnabled
                0x00000000        0x8 ..\..\..\..\..\..\..\..\microchip\harmony\v2_06\bin\framework\peripheral\PIC32MX130F064B_peripherals.a(peripheral.o)
 .text.PLIB_MCPWM_ChannelCurrentLimitInterruptFlagClear
                0x00000000        0x8 ..\..\..\..\..\..\..\..\microchip\harmony\v2_06\bin\framework\peripheral\PIC32MX130F064B_peripherals.a(peripheral.o)
 .text.PLIB_MCPWM_ChannelCurrentLimitInterruptEnable
                0x00000000        0x8 ..\..\..\..\..\..\..\..\microchip\harmony\v2_06\bin\framework\peripheral\PIC32MX130F064B_peripherals.a(peripheral.o)
 .text.PLIB_MCPWM_ChannelCurrentLimitInterruptDisable
                0x00000000        0x8 ..\..\..\..\..\..\..\..\microchip\harmony\v2_06\bin\framework\peripheral\PIC32MX130F064B_peripherals.a(peripheral.o)
 .text.PLIB_MCPWM_ChannelCurrentLimitCaptureRead
                0x00000000        0x8 ..\..\..\..\..\..\..\..\microchip\harmony\v2_06\bin\framework\peripheral\PIC32MX130F064B_peripherals.a(peripheral.o)
 .text.PLIB_MCPWM_ChannelCurrentLimitIsAsserted
                0x00000000        0x8 ..\..\..\..\..\..\..\..\microchip\harmony\v2_06\bin\framework\peripheral\PIC32MX130F064B_peripherals.a(peripheral.o)
 .text.PLIB_MCPWM_ExistsChannelCurrentLimit
                0x00000000        0x8 ..\..\..\..\..\..\..\..\microchip\harmony\v2_06\bin\framework\peripheral\PIC32MX130F064B_peripherals.a(peripheral.o)
 .text.PLIB_MCPWM_ChannelFaultSetup
                0x00000000        0x8 ..\..\..\..\..\..\..\..\microchip\harmony\v2_06\bin\framework\peripheral\PIC32MX130F064B_peripherals.a(peripheral.o)
 .text.PLIB_MCPWM_ChannelFaultInterruptIsPending
                0x00000000        0x8 ..\..\..\..\..\..\..\..\microchip\harmony\v2_06\bin\framework\peripheral\PIC32MX130F064B_peripherals.a(peripheral.o)
 .text.PLIB_MCPWM_ChannelFaultInterruptIsEnabled
                0x00000000        0x8 ..\..\..\..\..\..\..\..\microchip\harmony\v2_06\bin\framework\peripheral\PIC32MX130F064B_peripherals.a(peripheral.o)
 .text.PLIB_MCPWM_ChannelFaultInterruptFlagClear
                0x00000000        0x8 ..\..\..\..\..\..\..\..\microchip\harmony\v2_06\bin\framework\peripheral\PIC32MX130F064B_peripherals.a(peripheral.o)
 .text.PLIB_MCPWM_ChannelFaultInterruptEnable
                0x00000000        0x8 ..\..\..\..\..\..\..\..\microchip\harmony\v2_06\bin\framework\peripheral\PIC32MX130F064B_peripherals.a(peripheral.o)
 .text.PLIB_MCPWM_ChannelFaultInterruptDisable
                0x00000000        0x8 ..\..\..\..\..\..\..\..\microchip\harmony\v2_06\bin\framework\peripheral\PIC32MX130F064B_peripherals.a(peripheral.o)
 .text.PLIB_MCPWM_ChannelFaultIsAsserted
                0x00000000        0x8 ..\..\..\..\..\..\..\..\microchip\harmony\v2_06\bin\framework\peripheral\PIC32MX130F064B_peripherals.a(peripheral.o)
 .text.PLIB_MCPWM_ExistsChannelFault
                0x00000000        0x8 ..\..\..\..\..\..\..\..\microchip\harmony\v2_06\bin\framework\peripheral\PIC32MX130F064B_peripherals.a(peripheral.o)
 .text.PLIB_MCPWM_ChannelChopSetup
                0x00000000        0x8 ..\..\..\..\..\..\..\..\microchip\harmony\v2_06\bin\framework\peripheral\PIC32MX130F064B_peripherals.a(peripheral.o)
 .text.PLIB_MCPWM_ExistsChannelChopSetup
                0x00000000        0x8 ..\..\..\..\..\..\..\..\microchip\harmony\v2_06\bin\framework\peripheral\PIC32MX130F064B_peripherals.a(peripheral.o)
 .text.PLIB_MCPWM_ChannelLEBSetup
                0x00000000        0x8 ..\..\..\..\..\..\..\..\microchip\harmony\v2_06\bin\framework\peripheral\PIC32MX130F064B_peripherals.a(peripheral.o)
 .text.PLIB_MCPWM_ChannelLEBTriggerPWMxHRisingEdgeEnable
                0x00000000        0x8 ..\..\..\..\..\..\..\..\microchip\harmony\v2_06\bin\framework\peripheral\PIC32MX130F064B_peripherals.a(peripheral.o)
 .text.PLIB_MCPWM_ChannelLEBTriggerPWMxHFallingEdgeEnable
                0x00000000        0x8 ..\..\..\..\..\..\..\..\microchip\harmony\v2_06\bin\framework\peripheral\PIC32MX130F064B_peripherals.a(peripheral.o)
 .text.PLIB_MCPWM_ChannelLEBTriggerPWMxLRisingEdgeEnable
                0x00000000        0x8 ..\..\..\..\..\..\..\..\microchip\harmony\v2_06\bin\framework\peripheral\PIC32MX130F064B_peripherals.a(peripheral.o)
 .text.PLIB_MCPWM_ChannelLEBTriggerPWMxLFallingEdgeEnable
                0x00000000        0x8 ..\..\..\..\..\..\..\..\microchip\harmony\v2_06\bin\framework\peripheral\PIC32MX130F064B_peripherals.a(peripheral.o)
 .text.PLIB_MCPWM_ChannelLEBTriggerPWMxHRisingEdgeDisable
                0x00000000        0x8 ..\..\..\..\..\..\..\..\microchip\harmony\v2_06\bin\framework\peripheral\PIC32MX130F064B_peripherals.a(peripheral.o)
 .text.PLIB_MCPWM_ChannelLEBTriggerPWMxHFallingEdgeDisable
                0x00000000        0x8 ..\..\..\..\..\..\..\..\microchip\harmony\v2_06\bin\framework\peripheral\PIC32MX130F064B_peripherals.a(peripheral.o)
 .text.PLIB_MCPWM_ChannelLEBTriggerPWMxLRisingEdgeDisable
                0x00000000        0x8 ..\..\..\..\..\..\..\..\microchip\harmony\v2_06\bin\framework\peripheral\PIC32MX130F064B_peripherals.a(peripheral.o)
 .text.PLIB_MCPWM_ChannelLEBTriggerPWMxLFallingEdgeDisable
                0x00000000        0x8 ..\..\..\..\..\..\..\..\microchip\harmony\v2_06\bin\framework\peripheral\PIC32MX130F064B_peripherals.a(peripheral.o)
 .text.PLIB_MCPWM_ExistsChannelLEBSetup
                0x00000000        0x8 ..\..\..\..\..\..\..\..\microchip\harmony\v2_06\bin\framework\peripheral\PIC32MX130F064B_peripherals.a(peripheral.o)
 .text.PLIB_MCPWM_ChannelPeriodResetInterruptIsPending
                0x00000000        0x8 ..\..\..\..\..\..\..\..\microchip\harmony\v2_06\bin\framework\peripheral\PIC32MX130F064B_peripherals.a(peripheral.o)
 .text.PLIB_MCPWM_ChannelPeriodResetInterruptIsEnabled
                0x00000000        0x8 ..\..\..\..\..\..\..\..\microchip\harmony\v2_06\bin\framework\peripheral\PIC32MX130F064B_peripherals.a(peripheral.o)
 .text.PLIB_MCPWM_ChannelPeriodResetInterruptFlagClear
                0x00000000        0x8 ..\..\..\..\..\..\..\..\microchip\harmony\v2_06\bin\framework\peripheral\PIC32MX130F064B_peripherals.a(peripheral.o)
 .text.PLIB_MCPWM_ChannelPeriodResetInterruptEnable
                0x00000000        0x8 ..\..\..\..\..\..\..\..\microchip\harmony\v2_06\bin\framework\peripheral\PIC32MX130F064B_peripherals.a(peripheral.o)
 .text.PLIB_MCPWM_ChannelPeriodResetInterruptDisable
                0x00000000        0x8 ..\..\..\..\..\..\..\..\microchip\harmony\v2_06\bin\framework\peripheral\PIC32MX130F064B_peripherals.a(peripheral.o)
 .text.PLIB_MCPWM_ExistsChannelPeriodResetInterrupt
                0x00000000        0x8 ..\..\..\..\..\..\..\..\microchip\harmony\v2_06\bin\framework\peripheral\PIC32MX130F064B_peripherals.a(peripheral.o)
 .text.PLIB_MCPWM_ChannelPeriodMatchInterruptIsPending
                0x00000000        0x8 ..\..\..\..\..\..\..\..\microchip\harmony\v2_06\bin\framework\peripheral\PIC32MX130F064B_peripherals.a(peripheral.o)
 .text.PLIB_MCPWM_ChannelPeriodMatchInterruptIsEnabled
                0x00000000        0x8 ..\..\..\..\..\..\..\..\microchip\harmony\v2_06\bin\framework\peripheral\PIC32MX130F064B_peripherals.a(peripheral.o)
 .text.PLIB_MCPWM_ChannelPeriodMatchInterruptFlagClear
                0x00000000        0x8 ..\..\..\..\..\..\..\..\microchip\harmony\v2_06\bin\framework\peripheral\PIC32MX130F064B_peripherals.a(peripheral.o)
 .text.PLIB_MCPWM_ChannelPeriodMatchInterruptEnable
                0x00000000        0x8 ..\..\..\..\..\..\..\..\microchip\harmony\v2_06\bin\framework\peripheral\PIC32MX130F064B_peripherals.a(peripheral.o)
 .text.PLIB_MCPWM_ChannelPeriodMatchInterruptDisable
                0x00000000        0x8 ..\..\..\..\..\..\..\..\microchip\harmony\v2_06\bin\framework\peripheral\PIC32MX130F064B_peripherals.a(peripheral.o)
 .text.PLIB_MCPWM_ExistsChannelPeriodMatchInterrupt
                0x00000000        0x8 ..\..\..\..\..\..\..\..\microchip\harmony\v2_06\bin\framework\peripheral\PIC32MX130F064B_peripherals.a(peripheral.o)
 .text.PLIB_MCPWM_ChannelPWMxHOverrideEnable
                0x00000000        0x8 ..\..\..\..\..\..\..\..\microchip\harmony\v2_06\bin\framework\peripheral\PIC32MX130F064B_peripherals.a(peripheral.o)
 .text.PLIB_MCPWM_ChannelPWMxHOverrideDisable
                0x00000000        0x8 ..\..\..\..\..\..\..\..\microchip\harmony\v2_06\bin\framework\peripheral\PIC32MX130F064B_peripherals.a(peripheral.o)
 .text.PLIB_MCPWM_ChannelPWMxLOverrideEnable
                0x00000000        0x8 ..\..\..\..\..\..\..\..\microchip\harmony\v2_06\bin\framework\peripheral\PIC32MX130F064B_peripherals.a(peripheral.o)
 .text.PLIB_MCPWM_ChannelPWMxLOverrideDisable
                0x00000000        0x8 ..\..\..\..\..\..\..\..\microchip\harmony\v2_06\bin\framework\peripheral\PIC32MX130F064B_peripherals.a(peripheral.o)
 .text.PLIB_MCPWM_ChannelOverrideOutputSet
                0x00000000        0x8 ..\..\..\..\..\..\..\..\microchip\harmony\v2_06\bin\framework\peripheral\PIC32MX130F064B_peripherals.a(peripheral.o)
 .text.PLIB_MCPWM_ChannelSyncOverrideAtPeriodBoundary
                0x00000000        0x8 ..\..\..\..\..\..\..\..\microchip\harmony\v2_06\bin\framework\peripheral\PIC32MX130F064B_peripherals.a(peripheral.o)
 .text.PLIB_MCPWM_ChannelSyncOverrideAtCPUClockBoundary
                0x00000000        0x8 ..\..\..\..\..\..\..\..\microchip\harmony\v2_06\bin\framework\peripheral\PIC32MX130F064B_peripherals.a(peripheral.o)
 .text.PLIB_MCPWM_ExistsChannelOverrideSetup
                0x00000000        0x8 ..\..\..\..\..\..\..\..\microchip\harmony\v2_06\bin\framework\peripheral\PIC32MX130F064B_peripherals.a(peripheral.o)
 .text.PLIB_MCPWM_ChannelLocalPWMTimerCountRead
                0x00000000        0x8 ..\..\..\..\..\..\..\..\microchip\harmony\v2_06\bin\framework\peripheral\PIC32MX130F064B_peripherals.a(peripheral.o)
 .text.PLIB_MCPWM_IOCONxUnlock
                0x00000000        0x8 ..\..\..\..\..\..\..\..\microchip\harmony\v2_06\bin\framework\peripheral\PIC32MX130F064B_peripherals.a(peripheral.o)
 .text.PLIB_MCPWM_ChannelTimerDirectionGet
                0x00000000        0x8 ..\..\..\..\..\..\..\..\microchip\harmony\v2_06\bin\framework\peripheral\PIC32MX130F064B_peripherals.a(peripheral.o)
 .text.PLIB_MCPWM_ChannelPWMxHEnable
                0x00000000        0x8 ..\..\..\..\..\..\..\..\microchip\harmony\v2_06\bin\framework\peripheral\PIC32MX130F064B_peripherals.a(peripheral.o)
 .text.PLIB_MCPWM_ChannelPWMxHDisable
                0x00000000        0x8 ..\..\..\..\..\..\..\..\microchip\harmony\v2_06\bin\framework\peripheral\PIC32MX130F064B_peripherals.a(peripheral.o)
 .text.PLIB_MCPWM_ChannelPWMxLEnable
                0x00000000        0x8 ..\..\..\..\..\..\..\..\microchip\harmony\v2_06\bin\framework\peripheral\PIC32MX130F064B_peripherals.a(peripheral.o)
 .text.PLIB_MCPWM_ChannelPWMxLDisable
                0x00000000        0x8 ..\..\..\..\..\..\..\..\microchip\harmony\v2_06\bin\framework\peripheral\PIC32MX130F064B_peripherals.a(peripheral.o)
 .text.PLIB_MCPWM_ChannelSwapHighLowEnable
                0x00000000        0x8 ..\..\..\..\..\..\..\..\microchip\harmony\v2_06\bin\framework\peripheral\PIC32MX130F064B_peripherals.a(peripheral.o)
 .text.PLIB_MCPWM_ChannelSwapHighLowDisable
                0x00000000        0x8 ..\..\..\..\..\..\..\..\microchip\harmony\v2_06\bin\framework\peripheral\PIC32MX130F064B_peripherals.a(peripheral.o)
 .text.PLIB_MCPWM_ExistsChannelGeneralFunctions
                0x00000000        0x8 ..\..\..\..\..\..\..\..\microchip\harmony\v2_06\bin\framework\peripheral\PIC32MX130F064B_peripherals.a(peripheral.o)
 .text.PLIB_NVM_ExistsWriteErrorStatus
                0x00000000        0x8 ..\..\..\..\..\..\..\..\microchip\harmony\v2_06\bin\framework\peripheral\PIC32MX130F064B_peripherals.a(peripheral.o)
 .text.PLIB_NVM_WriteOperationHasTerminated
                0x00000000       0x10 ..\..\..\..\..\..\..\..\microchip\harmony\v2_06\bin\framework\peripheral\PIC32MX130F064B_peripherals.a(peripheral.o)
 .text.PLIB_NVM_ExistsMemoryModificationControl
                0x00000000        0x8 ..\..\..\..\..\..\..\..\microchip\harmony\v2_06\bin\framework\peripheral\PIC32MX130F064B_peripherals.a(peripheral.o)
 .text.PLIB_NVM_MemoryModifyEnable
                0x00000000       0x14 ..\..\..\..\..\..\..\..\microchip\harmony\v2_06\bin\framework\peripheral\PIC32MX130F064B_peripherals.a(peripheral.o)
 .text.PLIB_NVM_MemoryModifyInhibit
                0x00000000       0x14 ..\..\..\..\..\..\..\..\microchip\harmony\v2_06\bin\framework\peripheral\PIC32MX130F064B_peripherals.a(peripheral.o)
 .text.PLIB_NVM_ExistsOperationMode
                0x00000000        0x8 ..\..\..\..\..\..\..\..\microchip\harmony\v2_06\bin\framework\peripheral\PIC32MX130F064B_peripherals.a(peripheral.o)
 .text.PLIB_NVM_MemoryOperationSelect
                0x00000000       0x1c ..\..\..\..\..\..\..\..\microchip\harmony\v2_06\bin\framework\peripheral\PIC32MX130F064B_peripherals.a(peripheral.o)
 .text.PLIB_NVM_ExistsAddressModifyControl
                0x00000000        0x8 ..\..\..\..\..\..\..\..\microchip\harmony\v2_06\bin\framework\peripheral\PIC32MX130F064B_peripherals.a(peripheral.o)
 .text.PLIB_NVM_FlashAddressToModify
                0x00000000       0x10 ..\..\..\..\..\..\..\..\microchip\harmony\v2_06\bin\framework\peripheral\PIC32MX130F064B_peripherals.a(peripheral.o)
 .text.PLIB_NVM_ExistsProvideData
                0x00000000        0x8 ..\..\..\..\..\..\..\..\microchip\harmony\v2_06\bin\framework\peripheral\PIC32MX130F064B_peripherals.a(peripheral.o)
 .text.PLIB_NVM_FlashProvideData
                0x00000000       0x10 ..\..\..\..\..\..\..\..\microchip\harmony\v2_06\bin\framework\peripheral\PIC32MX130F064B_peripherals.a(peripheral.o)
 .text.PLIB_NVM_ExistsWriteOperation
                0x00000000        0x8 ..\..\..\..\..\..\..\..\microchip\harmony\v2_06\bin\framework\peripheral\PIC32MX130F064B_peripherals.a(peripheral.o)
 .text.PLIB_NVM_FlashRead
                0x00000000        0x8 ..\..\..\..\..\..\..\..\microchip\harmony\v2_06\bin\framework\peripheral\PIC32MX130F064B_peripherals.a(peripheral.o)
 .text.PLIB_NVM_FlashWriteStart
                0x00000000       0x14 ..\..\..\..\..\..\..\..\microchip\harmony\v2_06\bin\framework\peripheral\PIC32MX130F064B_peripherals.a(peripheral.o)
 .text.PLIB_NVM_FlashEraseStart
                0x00000000       0x14 ..\..\..\..\..\..\..\..\microchip\harmony\v2_06\bin\framework\peripheral\PIC32MX130F064B_peripherals.a(peripheral.o)
 .text.PLIB_NVM_FlashWriteCycleHasCompleted
                0x00000000       0x14 ..\..\..\..\..\..\..\..\microchip\harmony\v2_06\bin\framework\peripheral\PIC32MX130F064B_peripherals.a(peripheral.o)
 .text.PLIB_NVM_ExistsKeySequence
                0x00000000        0x8 ..\..\..\..\..\..\..\..\microchip\harmony\v2_06\bin\framework\peripheral\PIC32MX130F064B_peripherals.a(peripheral.o)
 .text.PLIB_NVM_FlashWriteKeySequence
                0x00000000       0x10 ..\..\..\..\..\..\..\..\microchip\harmony\v2_06\bin\framework\peripheral\PIC32MX130F064B_peripherals.a(peripheral.o)
 .text.PLIB_NVM_ExistsSourceAddress
                0x00000000        0x8 ..\..\..\..\..\..\..\..\microchip\harmony\v2_06\bin\framework\peripheral\PIC32MX130F064B_peripherals.a(peripheral.o)
 .text.PLIB_NVM_DataBlockSourceAddress
                0x00000000       0x10 ..\..\..\..\..\..\..\..\microchip\harmony\v2_06\bin\framework\peripheral\PIC32MX130F064B_peripherals.a(peripheral.o)
 .text.PLIB_NVM_ExistsLowVoltageStatus
                0x00000000        0x8 ..\..\..\..\..\..\..\..\microchip\harmony\v2_06\bin\framework\peripheral\PIC32MX130F064B_peripherals.a(peripheral.o)
 .text.PLIB_NVM_LowVoltageEventIsActive
                0x00000000       0x10 ..\..\..\..\..\..\..\..\microchip\harmony\v2_06\bin\framework\peripheral\PIC32MX130F064B_peripherals.a(peripheral.o)
 .text.PLIB_NVM_ExistsLowVoltageError
                0x00000000        0x8 ..\..\..\..\..\..\..\..\microchip\harmony\v2_06\bin\framework\peripheral\PIC32MX130F064B_peripherals.a(peripheral.o)
 .text.PLIB_NVM_LowVoltageIsDetected
                0x00000000       0x10 ..\..\..\..\..\..\..\..\microchip\harmony\v2_06\bin\framework\peripheral\PIC32MX130F064B_peripherals.a(peripheral.o)
 .text.PLIB_NVM_ExistsFlashBankRegionSelect
                0x00000000        0x8 ..\..\..\..\..\..\..\..\microchip\harmony\v2_06\bin\framework\peripheral\PIC32MX130F064B_peripherals.a(peripheral.o)
 .text.PLIB_NVM_ProgramFlashBank1LowerRegion
                0x00000000        0x8 ..\..\..\..\..\..\..\..\microchip\harmony\v2_06\bin\framework\peripheral\PIC32MX130F064B_peripherals.a(peripheral.o)
 .text.PLIB_NVM_ProgramFlashBank2LowerRegion
                0x00000000        0x8 ..\..\..\..\..\..\..\..\microchip\harmony\v2_06\bin\framework\peripheral\PIC32MX130F064B_peripherals.a(peripheral.o)
 .text.PLIB_NVM_ProgramFlashBank2IsLowerRegion
                0x00000000        0x8 ..\..\..\..\..\..\..\..\microchip\harmony\v2_06\bin\framework\peripheral\PIC32MX130F064B_peripherals.a(peripheral.o)
 .text.PLIB_NVM_ExistsBootFlashBankRegion
                0x00000000        0x8 ..\..\..\..\..\..\..\..\microchip\harmony\v2_06\bin\framework\peripheral\PIC32MX130F064B_peripherals.a(peripheral.o)
 .text.PLIB_NVM_BootFlashBank1LowerRegion
                0x00000000        0x8 ..\..\..\..\..\..\..\..\microchip\harmony\v2_06\bin\framework\peripheral\PIC32MX130F064B_peripherals.a(peripheral.o)
 .text.PLIB_NVM_BootFlashBank2LowerRegion
                0x00000000        0x8 ..\..\..\..\..\..\..\..\microchip\harmony\v2_06\bin\framework\peripheral\PIC32MX130F064B_peripherals.a(peripheral.o)
 .text.PLIB_NVM_BootFlashBank2IsLowerRegion
                0x00000000        0x8 ..\..\..\..\..\..\..\..\microchip\harmony\v2_06\bin\framework\peripheral\PIC32MX130F064B_peripherals.a(peripheral.o)
 .text.PLIB_NVM_ExistsProvideQuadData
                0x00000000        0x8 ..\..\..\..\..\..\..\..\microchip\harmony\v2_06\bin\framework\peripheral\PIC32MX130F064B_peripherals.a(peripheral.o)
 .text.PLIB_NVM_FlashProvideQuadData
                0x00000000        0x8 ..\..\..\..\..\..\..\..\microchip\harmony\v2_06\bin\framework\peripheral\PIC32MX130F064B_peripherals.a(peripheral.o)
 .text.PLIB_NVM_ExistsLockPFMSelect
                0x00000000        0x8 ..\..\..\..\..\..\..\..\microchip\harmony\v2_06\bin\framework\peripheral\PIC32MX130F064B_peripherals.a(peripheral.o)
 .text.PLIB_NVM_LockProgramFlashMemory
                0x00000000        0x8 ..\..\..\..\..\..\..\..\microchip\harmony\v2_06\bin\framework\peripheral\PIC32MX130F064B_peripherals.a(peripheral.o)
 .text.PLIB_NVM_IsProgramFlashMemoryLocked
                0x00000000        0x8 ..\..\..\..\..\..\..\..\microchip\harmony\v2_06\bin\framework\peripheral\PIC32MX130F064B_peripherals.a(peripheral.o)
 .text.PLIB_NVM_ExistsFlashWPMemoryRangeProvide
                0x00000000        0x8 ..\..\..\..\..\..\..\..\microchip\harmony\v2_06\bin\framework\peripheral\PIC32MX130F064B_peripherals.a(peripheral.o)
 .text.PLIB_NVM_FlashWriteProtectMemoryAreaRange
                0x00000000        0x8 ..\..\..\..\..\..\..\..\microchip\harmony\v2_06\bin\framework\peripheral\PIC32MX130F064B_peripherals.a(peripheral.o)
 .text.PLIB_NVM_ExistsLockBootSelect
                0x00000000        0x8 ..\..\..\..\..\..\..\..\microchip\harmony\v2_06\bin\framework\peripheral\PIC32MX130F064B_peripherals.a(peripheral.o)
 .text.PLIB_NVM_LockBootMemory
                0x00000000        0x8 ..\..\..\..\..\..\..\..\microchip\harmony\v2_06\bin\framework\peripheral\PIC32MX130F064B_peripherals.a(peripheral.o)
 .text.PLIB_NVM_IsBootMemoryLocked
                0x00000000        0x8 ..\..\..\..\..\..\..\..\microchip\harmony\v2_06\bin\framework\peripheral\PIC32MX130F064B_peripherals.a(peripheral.o)
 .text.PLIB_NVM_ExistsBootPageWriteProtect
                0x00000000        0x8 ..\..\..\..\..\..\..\..\microchip\harmony\v2_06\bin\framework\peripheral\PIC32MX130F064B_peripherals.a(peripheral.o)
 .text.PLIB_NVM_BootPageWriteProtectionEnable
                0x00000000        0x8 ..\..\..\..\..\..\..\..\microchip\harmony\v2_06\bin\framework\peripheral\PIC32MX130F064B_peripherals.a(peripheral.o)
 .text.PLIB_NVM_BootPageWriteProtectionDisable
                0x00000000        0x8 ..\..\..\..\..\..\..\..\microchip\harmony\v2_06\bin\framework\peripheral\PIC32MX130F064B_peripherals.a(peripheral.o)
 .text.PLIB_NVM_IsBootPageWriteProtected
                0x00000000        0x8 ..\..\..\..\..\..\..\..\microchip\harmony\v2_06\bin\framework\peripheral\PIC32MX130F064B_peripherals.a(peripheral.o)
 .text.PLIB_NVM_ExistsSwapLockControl
                0x00000000        0x8 ..\..\..\..\..\..\..\..\microchip\harmony\v2_06\bin\framework\peripheral\PIC32MX130F064B_peripherals.a(peripheral.o)
 .text.PLIB_NVM_FlashSwapLockSelect
                0x00000000        0x8 ..\..\..\..\..\..\..\..\microchip\harmony\v2_06\bin\framework\peripheral\PIC32MX130F064B_peripherals.a(peripheral.o)
 .text.PLIB_NVM_FlashSwapLockStatusGet
                0x00000000        0x8 ..\..\..\..\..\..\..\..\microchip\harmony\v2_06\bin\framework\peripheral\PIC32MX130F064B_peripherals.a(peripheral.o)
 .text.PLIB_NVM_ExistsEEPROMEnableControl
                0x00000000        0x8 ..\..\..\..\..\..\..\..\microchip\harmony\v2_06\bin\framework\peripheral\PIC32MX130F064B_peripherals.a(peripheral.o)
 .text.PLIB_NVM_EEPROMEnable
                0x00000000        0x8 ..\..\..\..\..\..\..\..\microchip\harmony\v2_06\bin\framework\peripheral\PIC32MX130F064B_peripherals.a(peripheral.o)
 .text.PLIB_NVM_EEPROMDisable
                0x00000000        0x8 ..\..\..\..\..\..\..\..\microchip\harmony\v2_06\bin\framework\peripheral\PIC32MX130F064B_peripherals.a(peripheral.o)
 .text.PLIB_NVM_EEPROMIsReady
                0x00000000        0x8 ..\..\..\..\..\..\..\..\microchip\harmony\v2_06\bin\framework\peripheral\PIC32MX130F064B_peripherals.a(peripheral.o)
 .text.PLIB_NVM_ExistsEEPROMStopInIdleControl
                0x00000000        0x8 ..\..\..\..\..\..\..\..\microchip\harmony\v2_06\bin\framework\peripheral\PIC32MX130F064B_peripherals.a(peripheral.o)
 .text.PLIB_NVM_EEPROMStopInIdleEnable
                0x00000000        0x8 ..\..\..\..\..\..\..\..\microchip\harmony\v2_06\bin\framework\peripheral\PIC32MX130F064B_peripherals.a(peripheral.o)
 .text.PLIB_NVM_EEPROMStopInIdleDisable
                0x00000000        0x8 ..\..\..\..\..\..\..\..\microchip\harmony\v2_06\bin\framework\peripheral\PIC32MX130F064B_peripherals.a(peripheral.o)
 .text.PLIB_NVM_EEPROMStopInIdleIsEnabled
                0x00000000        0x8 ..\..\..\..\..\..\..\..\microchip\harmony\v2_06\bin\framework\peripheral\PIC32MX130F064B_peripherals.a(peripheral.o)
 .text.PLIB_NVM_ExistsEEPROMOperationModeControl
                0x00000000        0x8 ..\..\..\..\..\..\..\..\microchip\harmony\v2_06\bin\framework\peripheral\PIC32MX130F064B_peripherals.a(peripheral.o)
 .text.PLIB_NVM_EEPROMOperationSelect
                0x00000000        0x8 ..\..\..\..\..\..\..\..\microchip\harmony\v2_06\bin\framework\peripheral\PIC32MX130F064B_peripherals.a(peripheral.o)
 .text.PLIB_NVM_ExistsEEPROMAddressControl
                0x00000000        0x8 ..\..\..\..\..\..\..\..\microchip\harmony\v2_06\bin\framework\peripheral\PIC32MX130F064B_peripherals.a(peripheral.o)
 .text.PLIB_NVM_EEPROMAddress
                0x00000000        0x8 ..\..\..\..\..\..\..\..\microchip\harmony\v2_06\bin\framework\peripheral\PIC32MX130F064B_peripherals.a(peripheral.o)
 .text.PLIB_NVM_ExistsEEPROMDataControl
                0x00000000        0x8 ..\..\..\..\..\..\..\..\microchip\harmony\v2_06\bin\framework\peripheral\PIC32MX130F064B_peripherals.a(peripheral.o)
 .text.PLIB_NVM_EEPROMDataToWrite
                0x00000000        0x8 ..\..\..\..\..\..\..\..\microchip\harmony\v2_06\bin\framework\peripheral\PIC32MX130F064B_peripherals.a(peripheral.o)
 .text.PLIB_NVM_EEPROMRead
                0x00000000        0x8 ..\..\..\..\..\..\..\..\microchip\harmony\v2_06\bin\framework\peripheral\PIC32MX130F064B_peripherals.a(peripheral.o)
 .text.PLIB_NVM_ExistsEEPROMKeySequence
                0x00000000        0x8 ..\..\..\..\..\..\..\..\microchip\harmony\v2_06\bin\framework\peripheral\PIC32MX130F064B_peripherals.a(peripheral.o)
 .text.PLIB_NVM_EEPROMKeySequenceWrite
                0x00000000        0x8 ..\..\..\..\..\..\..\..\microchip\harmony\v2_06\bin\framework\peripheral\PIC32MX130F064B_peripherals.a(peripheral.o)
 .text.PLIB_NVM_ExistsEEPROMEnableOperationControl
                0x00000000        0x8 ..\..\..\..\..\..\..\..\microchip\harmony\v2_06\bin\framework\peripheral\PIC32MX130F064B_peripherals.a(peripheral.o)
 .text.PLIB_NVM_EEPROMWriteEnable
                0x00000000        0x8 ..\..\..\..\..\..\..\..\microchip\harmony\v2_06\bin\framework\peripheral\PIC32MX130F064B_peripherals.a(peripheral.o)
 .text.PLIB_NVM_EEPROMWriteIsEnabled
                0x00000000        0x8 ..\..\..\..\..\..\..\..\microchip\harmony\v2_06\bin\framework\peripheral\PIC32MX130F064B_peripherals.a(peripheral.o)
 .text.PLIB_NVM_EEPROMReadEnable
                0x00000000        0x8 ..\..\..\..\..\..\..\..\microchip\harmony\v2_06\bin\framework\peripheral\PIC32MX130F064B_peripherals.a(peripheral.o)
 .text.PLIB_NVM_EEPROMReadIsEnabled
                0x00000000        0x8 ..\..\..\..\..\..\..\..\microchip\harmony\v2_06\bin\framework\peripheral\PIC32MX130F064B_peripherals.a(peripheral.o)
 .text.PLIB_NVM_ExistsEEPROMStartOperationControl
                0x00000000        0x8 ..\..\..\..\..\..\..\..\microchip\harmony\v2_06\bin\framework\peripheral\PIC32MX130F064B_peripherals.a(peripheral.o)
 .text.PLIB_NVM_EEPROMReadStart
                0x00000000        0x8 ..\..\..\..\..\..\..\..\microchip\harmony\v2_06\bin\framework\peripheral\PIC32MX130F064B_peripherals.a(peripheral.o)
 .text.PLIB_NVM_EEPROMWriteStart
                0x00000000        0x8 ..\..\..\..\..\..\..\..\microchip\harmony\v2_06\bin\framework\peripheral\PIC32MX130F064B_peripherals.a(peripheral.o)
 .text.PLIB_NVM_EEPROMEraseStart
                0x00000000        0x8 ..\..\..\..\..\..\..\..\microchip\harmony\v2_06\bin\framework\peripheral\PIC32MX130F064B_peripherals.a(peripheral.o)
 .text.PLIB_NVM_EEPROMOperationHasCompleted
                0x00000000        0x8 ..\..\..\..\..\..\..\..\microchip\harmony\v2_06\bin\framework\peripheral\PIC32MX130F064B_peripherals.a(peripheral.o)
 .text.PLIB_NVM_ExistsEEPROMLongWriteStatus
                0x00000000        0x8 ..\..\..\..\..\..\..\..\microchip\harmony\v2_06\bin\framework\peripheral\PIC32MX130F064B_peripherals.a(peripheral.o)
 .text.PLIB_NVM_EEPROMNextWriteCycleIsLong
                0x00000000        0x8 ..\..\..\..\..\..\..\..\microchip\harmony\v2_06\bin\framework\peripheral\PIC32MX130F064B_peripherals.a(peripheral.o)
 .text.PLIB_NVM_ExistsEEPROMOperationAbortControl
                0x00000000        0x8 ..\..\..\..\..\..\..\..\microchip\harmony\v2_06\bin\framework\peripheral\PIC32MX130F064B_peripherals.a(peripheral.o)
 .text.PLIB_NVM_EEPROMOperationAbort
                0x00000000        0x8 ..\..\..\..\..\..\..\..\microchip\harmony\v2_06\bin\framework\peripheral\PIC32MX130F064B_peripherals.a(peripheral.o)
 .text.PLIB_NVM_ExistsEEPROMErrorStatus
                0x00000000        0x8 ..\..\..\..\..\..\..\..\microchip\harmony\v2_06\bin\framework\peripheral\PIC32MX130F064B_peripherals.a(peripheral.o)
 .text.PLIB_NVM_EEPROMErrorGet
                0x00000000        0x8 ..\..\..\..\..\..\..\..\microchip\harmony\v2_06\bin\framework\peripheral\PIC32MX130F064B_peripherals.a(peripheral.o)
 .text.PLIB_NVM_EEPROMErrorClear
                0x00000000        0x8 ..\..\..\..\..\..\..\..\microchip\harmony\v2_06\bin\framework\peripheral\PIC32MX130F064B_peripherals.a(peripheral.o)
 .text.PLIB_NVM_ExistsEEPROMCalibrationData
                0x00000000        0x8 ..\..\..\..\..\..\..\..\microchip\harmony\v2_06\bin\framework\peripheral\PIC32MX130F064B_peripherals.a(peripheral.o)
 .text.PLIB_NVM_EEPROMReadCalibrationData
                0x00000000        0x8 ..\..\..\..\..\..\..\..\microchip\harmony\v2_06\bin\framework\peripheral\PIC32MX130F064B_peripherals.a(peripheral.o)
 .text.PLIB_NVM_ExistsEEPROMWaitStates
                0x00000000        0x8 ..\..\..\..\..\..\..\..\microchip\harmony\v2_06\bin\framework\peripheral\PIC32MX130F064B_peripherals.a(peripheral.o)
 .text.PLIB_NVM_EEPROMWaitStatesGet
                0x00000000        0x8 ..\..\..\..\..\..\..\..\microchip\harmony\v2_06\bin\framework\peripheral\PIC32MX130F064B_peripherals.a(peripheral.o)
 .text.PLIB_NVM_EEPROMWaitStatesSet
                0x00000000        0x8 ..\..\..\..\..\..\..\..\microchip\harmony\v2_06\bin\framework\peripheral\PIC32MX130F064B_peripherals.a(peripheral.o)
 .text.PLIB_OC_Enable
                0x00000000       0x10 ..\..\..\..\..\..\..\..\microchip\harmony\v2_06\bin\framework\peripheral\PIC32MX130F064B_peripherals.a(peripheral.o)
 .text.PLIB_OC_Disable
                0x00000000       0x10 ..\..\..\..\..\..\..\..\microchip\harmony\v2_06\bin\framework\peripheral\PIC32MX130F064B_peripherals.a(peripheral.o)
 .text.PLIB_OC_IsEnabled
                0x00000000        0xc ..\..\..\..\..\..\..\..\microchip\harmony\v2_06\bin\framework\peripheral\PIC32MX130F064B_peripherals.a(peripheral.o)
 .text.PLIB_OC_ExistsEnableControl
                0x00000000        0x8 ..\..\..\..\..\..\..\..\microchip\harmony\v2_06\bin\framework\peripheral\PIC32MX130F064B_peripherals.a(peripheral.o)
 .text.PLIB_OC_StopInIdleEnable
                0x00000000       0x10 ..\..\..\..\..\..\..\..\microchip\harmony\v2_06\bin\framework\peripheral\PIC32MX130F064B_peripherals.a(peripheral.o)
 .text.PLIB_OC_StopInIdleDisable
                0x00000000       0x10 ..\..\..\..\..\..\..\..\microchip\harmony\v2_06\bin\framework\peripheral\PIC32MX130F064B_peripherals.a(peripheral.o)
 .text.PLIB_OC_ExistsStopInIdle
                0x00000000        0x8 ..\..\..\..\..\..\..\..\microchip\harmony\v2_06\bin\framework\peripheral\PIC32MX130F064B_peripherals.a(peripheral.o)
 .text.PLIB_OC_FaultInputSelect
                0x00000000       0x14 ..\..\..\..\..\..\..\..\microchip\harmony\v2_06\bin\framework\peripheral\PIC32MX130F064B_peripherals.a(peripheral.o)
 .text.PLIB_OC_ExistsFaultInput
                0x00000000        0x8 ..\..\..\..\..\..\..\..\microchip\harmony\v2_06\bin\framework\peripheral\PIC32MX130F064B_peripherals.a(peripheral.o)
 .text.PLIB_OC_FaultHasOccurred
                0x00000000        0xc ..\..\..\..\..\..\..\..\microchip\harmony\v2_06\bin\framework\peripheral\PIC32MX130F064B_peripherals.a(peripheral.o)
 .text.PLIB_OC_ExistsFaultStatus
                0x00000000        0x8 ..\..\..\..\..\..\..\..\microchip\harmony\v2_06\bin\framework\peripheral\PIC32MX130F064B_peripherals.a(peripheral.o)
 .text.PLIB_OC_TimerSelect
                0x00000000       0x14 ..\..\..\..\..\..\..\..\microchip\harmony\v2_06\bin\framework\peripheral\PIC32MX130F064B_peripherals.a(peripheral.o)
 .text.PLIB_OC_ExistsTimerSelect
                0x00000000        0x8 ..\..\..\..\..\..\..\..\microchip\harmony\v2_06\bin\framework\peripheral\PIC32MX130F064B_peripherals.a(peripheral.o)
 .text.PLIB_OC_AlternateClockEnable
                0x00000000        0x8 ..\..\..\..\..\..\..\..\microchip\harmony\v2_06\bin\framework\peripheral\PIC32MX130F064B_peripherals.a(peripheral.o)
 .text.PLIB_OC_AlternateClockDisable
                0x00000000        0x8 ..\..\..\..\..\..\..\..\microchip\harmony\v2_06\bin\framework\peripheral\PIC32MX130F064B_peripherals.a(peripheral.o)
 .text.PLIB_OC_ExistsAlternateClock
                0x00000000        0x8 ..\..\..\..\..\..\..\..\microchip\harmony\v2_06\bin\framework\peripheral\PIC32MX130F064B_peripherals.a(peripheral.o)
 .text.PLIB_OC_AlternateTimerSelect
                0x00000000        0x8 ..\..\..\..\..\..\..\..\microchip\harmony\v2_06\bin\framework\peripheral\PIC32MX130F064B_peripherals.a(peripheral.o)
 .text.PLIB_OC_ExistsAlternateTimerSelect
                0x00000000        0x8 ..\..\..\..\..\..\..\..\microchip\harmony\v2_06\bin\framework\peripheral\PIC32MX130F064B_peripherals.a(peripheral.o)
 .text.PLIB_OC_Buffer32BitSet
                0x00000000        0xc ..\..\..\..\..\..\..\..\microchip\harmony\v2_06\bin\framework\peripheral\PIC32MX130F064B_peripherals.a(peripheral.o)
 .text.PLIB_OC_Buffer16BitSet
                0x00000000        0xc ..\..\..\..\..\..\..\..\microchip\harmony\v2_06\bin\framework\peripheral\PIC32MX130F064B_peripherals.a(peripheral.o)
 .text.PLIB_OC_ExistsBufferValue
                0x00000000        0x8 ..\..\..\..\..\..\..\..\microchip\harmony\v2_06\bin\framework\peripheral\PIC32MX130F064B_peripherals.a(peripheral.o)
 .text.PLIB_OC_PulseWidth32BitSet
                0x00000000        0xc ..\..\..\..\..\..\..\..\microchip\harmony\v2_06\bin\framework\peripheral\PIC32MX130F064B_peripherals.a(peripheral.o)
 .text.PLIB_OC_PulseWidth16BitSet
                0x00000000        0xc ..\..\..\..\..\..\..\..\microchip\harmony\v2_06\bin\framework\peripheral\PIC32MX130F064B_peripherals.a(peripheral.o)
 .text.PLIB_OC_ExistsPulseWidth
                0x00000000        0x8 ..\..\..\..\..\..\..\..\microchip\harmony\v2_06\bin\framework\peripheral\PIC32MX130F064B_peripherals.a(peripheral.o)
 .text.PLIB_OC_BufferSizeSelect
                0x00000000       0x14 ..\..\..\..\..\..\..\..\microchip\harmony\v2_06\bin\framework\peripheral\PIC32MX130F064B_peripherals.a(peripheral.o)
 .text.PLIB_OC_ExistsBufferSize
                0x00000000        0x8 ..\..\..\..\..\..\..\..\microchip\harmony\v2_06\bin\framework\peripheral\PIC32MX130F064B_peripherals.a(peripheral.o)
 .text.PLIB_OC_ModeSelect
                0x00000000       0x14 ..\..\..\..\..\..\..\..\microchip\harmony\v2_06\bin\framework\peripheral\PIC32MX130F064B_peripherals.a(peripheral.o)
 .text.PLIB_OC_ExistsCompareModeSelect
                0x00000000        0x8 ..\..\..\..\..\..\..\..\microchip\harmony\v2_06\bin\framework\peripheral\PIC32MX130F064B_peripherals.a(peripheral.o)
 .text.PLIB_OSC_ExistsOnWaitAction
                0x00000000        0x8 ..\..\..\..\..\..\..\..\microchip\harmony\v2_06\bin\framework\peripheral\PIC32MX130F064B_peripherals.a(peripheral.o)
 .text.PLIB_OSC_OnWaitActionSet
                0x00000000       0x18 ..\..\..\..\..\..\..\..\microchip\harmony\v2_06\bin\framework\peripheral\PIC32MX130F064B_peripherals.a(peripheral.o)
 .text.PLIB_OSC_OnWaitActionGet
                0x00000000       0x10 ..\..\..\..\..\..\..\..\microchip\harmony\v2_06\bin\framework\peripheral\PIC32MX130F064B_peripherals.a(peripheral.o)
 .text.PLIB_OSC_ExistsSecondaryEnable
                0x00000000        0x8 ..\..\..\..\..\..\..\..\microchip\harmony\v2_06\bin\framework\peripheral\PIC32MX130F064B_peripherals.a(peripheral.o)
 .text.PLIB_OSC_SecondaryEnable
                0x00000000       0x14 ..\..\..\..\..\..\..\..\microchip\harmony\v2_06\bin\framework\peripheral\PIC32MX130F064B_peripherals.a(peripheral.o)
 .text.PLIB_OSC_SecondaryDisable
                0x00000000       0x14 ..\..\..\..\..\..\..\..\microchip\harmony\v2_06\bin\framework\peripheral\PIC32MX130F064B_peripherals.a(peripheral.o)
 .text.PLIB_OSC_SecondaryIsEnabled
                0x00000000       0x10 ..\..\..\..\..\..\..\..\microchip\harmony\v2_06\bin\framework\peripheral\PIC32MX130F064B_peripherals.a(peripheral.o)
 .text.PLIB_OSC_ExistsSecondaryReady
                0x00000000        0x8 ..\..\..\..\..\..\..\..\microchip\harmony\v2_06\bin\framework\peripheral\PIC32MX130F064B_peripherals.a(peripheral.o)
 .text.PLIB_OSC_SecondaryIsReady
                0x00000000       0x10 ..\..\..\..\..\..\..\..\microchip\harmony\v2_06\bin\framework\peripheral\PIC32MX130F064B_peripherals.a(peripheral.o)
 .text.PLIB_OSC_ExistsFRCDivisor
                0x00000000        0x8 ..\..\..\..\..\..\..\..\microchip\harmony\v2_06\bin\framework\peripheral\PIC32MX130F064B_peripherals.a(peripheral.o)
 .text.PLIB_OSC_FRCDivisorGet
                0x00000000       0x34 ..\..\..\..\..\..\..\..\microchip\harmony\v2_06\bin\framework\peripheral\PIC32MX130F064B_peripherals.a(peripheral.o)
 .text.PLIB_OSC_ExistsOscSelect
                0x00000000        0x8 ..\..\..\..\..\..\..\..\microchip\harmony\v2_06\bin\framework\peripheral\PIC32MX130F064B_peripherals.a(peripheral.o)
 .text.PLIB_OSC_SysClockSelect
                0x00000000       0x28 ..\..\..\..\..\..\..\..\microchip\harmony\v2_06\bin\framework\peripheral\PIC32MX130F064B_peripherals.a(peripheral.o)
 .text.PLIB_OSC_ExistsOscSwitchInit
                0x00000000        0x8 ..\..\..\..\..\..\..\..\microchip\harmony\v2_06\bin\framework\peripheral\PIC32MX130F064B_peripherals.a(peripheral.o)
 .text.PLIB_OSC_ClockSwitchingAbort
                0x00000000       0x14 ..\..\..\..\..\..\..\..\microchip\harmony\v2_06\bin\framework\peripheral\PIC32MX130F064B_peripherals.a(peripheral.o)
 .text.PLIB_OSC_ClockSwitchingIsComplete
                0x00000000       0x14 ..\..\..\..\..\..\..\..\microchip\harmony\v2_06\bin\framework\peripheral\PIC32MX130F064B_peripherals.a(peripheral.o)
 .text.PLIB_OSC_ExistsOscCurrentGet
                0x00000000        0x8 ..\..\..\..\..\..\..\..\microchip\harmony\v2_06\bin\framework\peripheral\PIC32MX130F064B_peripherals.a(peripheral.o)
 .text.PLIB_OSC_CurrentSysClockGet
                0x00000000       0x10 ..\..\..\..\..\..\..\..\microchip\harmony\v2_06\bin\framework\peripheral\PIC32MX130F064B_peripherals.a(peripheral.o)
 .text.PLIB_OSC_ExistsPBClockDivisor
                0x00000000        0x8 ..\..\..\..\..\..\..\..\microchip\harmony\v2_06\bin\framework\peripheral\PIC32MX130F064B_peripherals.a(peripheral.o)
 .text.PLIB_OSC_PBClockDivisorGet
                0x00000000       0x18 ..\..\..\..\..\..\..\..\microchip\harmony\v2_06\bin\framework\peripheral\PIC32MX130F064B_peripherals.a(peripheral.o)
 .text.PLIB_OSC_ExistsPBClockReady
                0x00000000        0x8 ..\..\..\..\..\..\..\..\microchip\harmony\v2_06\bin\framework\peripheral\PIC32MX130F064B_peripherals.a(peripheral.o)
 .text.PLIB_OSC_PBClockDivisorIsReady
                0x00000000       0x10 ..\..\..\..\..\..\..\..\microchip\harmony\v2_06\bin\framework\peripheral\PIC32MX130F064B_peripherals.a(peripheral.o)
 .text.PLIB_OSC_ExistsUsbClockSource
                0x00000000        0x8 ..\..\..\..\..\..\..\..\microchip\harmony\v2_06\bin\framework\peripheral\PIC32MX130F064B_peripherals.a(peripheral.o)
 .text.PLIB_OSC_UsbClockSourceSelect
                0x00000000       0x18 ..\..\..\..\..\..\..\..\microchip\harmony\v2_06\bin\framework\peripheral\PIC32MX130F064B_peripherals.a(peripheral.o)
 .text.PLIB_OSC_UsbClockSourceGet
                0x00000000       0x10 ..\..\..\..\..\..\..\..\microchip\harmony\v2_06\bin\framework\peripheral\PIC32MX130F064B_peripherals.a(peripheral.o)
 .text.PLIB_OSC_ExistsPLLLockStatus
                0x00000000        0x8 ..\..\..\..\..\..\..\..\microchip\harmony\v2_06\bin\framework\peripheral\PIC32MX130F064B_peripherals.a(peripheral.o)
 .text.PLIB_OSC_PLLIsLocked
                0x00000000       0x24 ..\..\..\..\..\..\..\..\microchip\harmony\v2_06\bin\framework\peripheral\PIC32MX130F064B_peripherals.a(peripheral.o)
 .text.PLIB_OSC_ExistsPLLClockLock
                0x00000000        0x8 ..\..\..\..\..\..\..\..\microchip\harmony\v2_06\bin\framework\peripheral\PIC32MX130F064B_peripherals.a(peripheral.o)
 .text.PLIB_OSC_PLLClockLock
                0x00000000       0x14 ..\..\..\..\..\..\..\..\microchip\harmony\v2_06\bin\framework\peripheral\PIC32MX130F064B_peripherals.a(peripheral.o)
 .text.PLIB_OSC_PLLClockUnlock
                0x00000000       0x14 ..\..\..\..\..\..\..\..\microchip\harmony\v2_06\bin\framework\peripheral\PIC32MX130F064B_peripherals.a(peripheral.o)
 .text.PLIB_OSC_PLLClockIsLocked
                0x00000000       0x10 ..\..\..\..\..\..\..\..\microchip\harmony\v2_06\bin\framework\peripheral\PIC32MX130F064B_peripherals.a(peripheral.o)
 .text.PLIB_OSC_ExistsSysPLLMultiplier
                0x00000000        0x8 ..\..\..\..\..\..\..\..\microchip\harmony\v2_06\bin\framework\peripheral\PIC32MX130F064B_peripherals.a(peripheral.o)
 .text.PLIB_OSC_SysPLLMultiplierSelect
                0x00000000       0x5c ..\..\..\..\..\..\..\..\microchip\harmony\v2_06\bin\framework\peripheral\PIC32MX130F064B_peripherals.a(peripheral.o)
 .text.PLIB_OSC_SysPLLMultiplierGet
                0x00000000       0x44 ..\..\..\..\..\..\..\..\microchip\harmony\v2_06\bin\framework\peripheral\PIC32MX130F064B_peripherals.a(peripheral.o)
 .text.PLIB_OSC_ExistsUPLLMultiplier
                0x00000000        0x8 ..\..\..\..\..\..\..\..\microchip\harmony\v2_06\bin\framework\peripheral\PIC32MX130F064B_peripherals.a(peripheral.o)
 .text.PLIB_OSC_UPLLMultiplierSelect
                0x00000000       0x10 ..\..\..\..\..\..\..\..\microchip\harmony\v2_06\bin\framework\peripheral\PIC32MX130F064B_peripherals.a(peripheral.o)
 .text.PLIB_OSC_UPLLMultiplierGet
                0x00000000        0x8 ..\..\..\..\..\..\..\..\microchip\harmony\v2_06\bin\framework\peripheral\PIC32MX130F064B_peripherals.a(peripheral.o)
 .text.PLIB_OSC_ExistsBTPLLMultiplier
                0x00000000        0x8 ..\..\..\..\..\..\..\..\microchip\harmony\v2_06\bin\framework\peripheral\PIC32MX130F064B_peripherals.a(peripheral.o)
 .text.PLIB_OSC_BTPLLMultiplierSelect
                0x00000000       0x10 ..\..\..\..\..\..\..\..\microchip\harmony\v2_06\bin\framework\peripheral\PIC32MX130F064B_peripherals.a(peripheral.o)
 .text.PLIB_OSC_BTPLLMultiplierGet
                0x00000000        0x8 ..\..\..\..\..\..\..\..\microchip\harmony\v2_06\bin\framework\peripheral\PIC32MX130F064B_peripherals.a(peripheral.o)
 .text.PLIB_OSC_ExistsSysPLLOutputDivisor
                0x00000000        0x8 ..\..\..\..\..\..\..\..\microchip\harmony\v2_06\bin\framework\peripheral\PIC32MX130F064B_peripherals.a(peripheral.o)
 .text.PLIB_OSC_SysPLLOutputDivisorSet
                0x00000000       0x18 ..\..\..\..\..\..\..\..\microchip\harmony\v2_06\bin\framework\peripheral\PIC32MX130F064B_peripherals.a(peripheral.o)
 .text.PLIB_OSC_SysPLLOutputDivisorGet
                0x00000000       0x34 ..\..\..\..\..\..\..\..\microchip\harmony\v2_06\bin\framework\peripheral\PIC32MX130F064B_peripherals.a(peripheral.o)
 .text.PLIB_OSC_ExistsUPLLOutputDivisor
                0x00000000        0x8 ..\..\..\..\..\..\..\..\microchip\harmony\v2_06\bin\framework\peripheral\PIC32MX130F064B_peripherals.a(peripheral.o)
 .text.PLIB_OSC_UPLLOutputDivisorSet
                0x00000000        0x8 ..\..\..\..\..\..\..\..\microchip\harmony\v2_06\bin\framework\peripheral\PIC32MX130F064B_peripherals.a(peripheral.o)
 .text.PLIB_OSC_UPLLOutputDivisorGet
                0x00000000        0x8 ..\..\..\..\..\..\..\..\microchip\harmony\v2_06\bin\framework\peripheral\PIC32MX130F064B_peripherals.a(peripheral.o)
 .text.PLIB_OSC_ExistsBTPLLOutputDivisor
                0x00000000        0x8 ..\..\..\..\..\..\..\..\microchip\harmony\v2_06\bin\framework\peripheral\PIC32MX130F064B_peripherals.a(peripheral.o)
 .text.PLIB_OSC_BTPLLOutputDivisorSet
                0x00000000        0x8 ..\..\..\..\..\..\..\..\microchip\harmony\v2_06\bin\framework\peripheral\PIC32MX130F064B_peripherals.a(peripheral.o)
 .text.PLIB_OSC_BTPLLOutputDivisorGet
                0x00000000        0x8 ..\..\..\..\..\..\..\..\microchip\harmony\v2_06\bin\framework\peripheral\PIC32MX130F064B_peripherals.a(peripheral.o)
 .text.PLIB_OSC_ExistsClockFail
                0x00000000        0x8 ..\..\..\..\..\..\..\..\microchip\harmony\v2_06\bin\framework\peripheral\PIC32MX130F064B_peripherals.a(peripheral.o)
 .text.PLIB_OSC_ClockHasFailed
                0x00000000       0x10 ..\..\..\..\..\..\..\..\microchip\harmony\v2_06\bin\framework\peripheral\PIC32MX130F064B_peripherals.a(peripheral.o)
 .text.PLIB_OSC_ExistsFRCTuning
                0x00000000        0x8 ..\..\..\..\..\..\..\..\microchip\harmony\v2_06\bin\framework\peripheral\PIC32MX130F064B_peripherals.a(peripheral.o)
 .text.PLIB_OSC_FRCTuningSelect
                0x00000000       0x20 ..\..\..\..\..\..\..\..\microchip\harmony\v2_06\bin\framework\peripheral\PIC32MX130F064B_peripherals.a(peripheral.o)
 .text.PLIB_OSC_ExistsReferenceOscBaseClock
                0x00000000        0x8 ..\..\..\..\..\..\..\..\microchip\harmony\v2_06\bin\framework\peripheral\PIC32MX130F064B_peripherals.a(peripheral.o)
 .text.PLIB_OSC_ReferenceOscBaseClockSelect
                0x00000000       0x20 ..\..\..\..\..\..\..\..\microchip\harmony\v2_06\bin\framework\peripheral\PIC32MX130F064B_peripherals.a(peripheral.o)
 .text.PLIB_OSC_ExistsReferenceOscChange
                0x00000000        0x8 ..\..\..\..\..\..\..\..\microchip\harmony\v2_06\bin\framework\peripheral\PIC32MX130F064B_peripherals.a(peripheral.o)
 .text.PLIB_OSC_ReferenceOscSwitchIsComplete
                0x00000000       0x14 ..\..\..\..\..\..\..\..\microchip\harmony\v2_06\bin\framework\peripheral\PIC32MX130F064B_peripherals.a(peripheral.o)
 .text.PLIB_OSC_ExistsReferenceOscChangeActive
                0x00000000        0x8 ..\..\..\..\..\..\..\..\microchip\harmony\v2_06\bin\framework\peripheral\PIC32MX130F064B_peripherals.a(peripheral.o)
 .text.PLIB_OSC_ReferenceOscSourceChangeIsActive
                0x00000000       0x10 ..\..\..\..\..\..\..\..\microchip\harmony\v2_06\bin\framework\peripheral\PIC32MX130F064B_peripherals.a(peripheral.o)
 .text.PLIB_OSC_ExistsReferenceOscStopInSleep
                0x00000000        0x8 ..\..\..\..\..\..\..\..\microchip\harmony\v2_06\bin\framework\peripheral\PIC32MX130F064B_peripherals.a(peripheral.o)
 .text.PLIB_OSC_ReferenceOscStopInSleepEnable
                0x00000000       0x14 ..\..\..\..\..\..\..\..\microchip\harmony\v2_06\bin\framework\peripheral\PIC32MX130F064B_peripherals.a(peripheral.o)
 .text.PLIB_OSC_ReferenceOscStopInSleepDisable
                0x00000000       0x14 ..\..\..\..\..\..\..\..\microchip\harmony\v2_06\bin\framework\peripheral\PIC32MX130F064B_peripherals.a(peripheral.o)
 .text.PLIB_OSC_ReferenceOscStopInSleepIsEnabled
                0x00000000       0x14 ..\..\..\..\..\..\..\..\microchip\harmony\v2_06\bin\framework\peripheral\PIC32MX130F064B_peripherals.a(peripheral.o)
 .text.PLIB_OSC_ExistsReferenceOutputEnable
                0x00000000        0x8 ..\..\..\..\..\..\..\..\microchip\harmony\v2_06\bin\framework\peripheral\PIC32MX130F064B_peripherals.a(peripheral.o)
 .text.PLIB_OSC_ReferenceOutputEnable
                0x00000000       0x14 ..\..\..\..\..\..\..\..\microchip\harmony\v2_06\bin\framework\peripheral\PIC32MX130F064B_peripherals.a(peripheral.o)
 .text.PLIB_OSC_ReferenceOutputIsEnabled
                0x00000000       0x10 ..\..\..\..\..\..\..\..\microchip\harmony\v2_06\bin\framework\peripheral\PIC32MX130F064B_peripherals.a(peripheral.o)
 .text.PLIB_OSC_ExistsReferenceOscStopInIdleEnable
                0x00000000        0x8 ..\..\..\..\..\..\..\..\microchip\harmony\v2_06\bin\framework\peripheral\PIC32MX130F064B_peripherals.a(peripheral.o)
 .text.PLIB_OSC_ReferenceOscStopInIdleEnable
                0x00000000       0x14 ..\..\..\..\..\..\..\..\microchip\harmony\v2_06\bin\framework\peripheral\PIC32MX130F064B_peripherals.a(peripheral.o)
 .text.PLIB_OSC_ReferenceOscStopInIdleDisable
                0x00000000       0x14 ..\..\..\..\..\..\..\..\microchip\harmony\v2_06\bin\framework\peripheral\PIC32MX130F064B_peripherals.a(peripheral.o)
 .text.PLIB_OSC_ReferenceOscStopInIdleIsEnabled
                0x00000000       0x10 ..\..\..\..\..\..\..\..\microchip\harmony\v2_06\bin\framework\peripheral\PIC32MX130F064B_peripherals.a(peripheral.o)
 .text.PLIB_OSC_ExistsReferenceOscEnable
                0x00000000        0x8 ..\..\..\..\..\..\..\..\microchip\harmony\v2_06\bin\framework\peripheral\PIC32MX130F064B_peripherals.a(peripheral.o)
 .text.PLIB_OSC_ReferenceOscEnable
                0x00000000       0x14 ..\..\..\..\..\..\..\..\microchip\harmony\v2_06\bin\framework\peripheral\PIC32MX130F064B_peripherals.a(peripheral.o)
 .text.PLIB_OSC_ReferenceOscIsEnabled
                0x00000000       0x10 ..\..\..\..\..\..\..\..\microchip\harmony\v2_06\bin\framework\peripheral\PIC32MX130F064B_peripherals.a(peripheral.o)
 .text.PLIB_OSC_ExistsReferenceOscDivisor
                0x00000000        0x8 ..\..\..\..\..\..\..\..\microchip\harmony\v2_06\bin\framework\peripheral\PIC32MX130F064B_peripherals.a(peripheral.o)
 .text.PLIB_OSC_ReferenceOscDivisorValueSet
                0x00000000       0x20 ..\..\..\..\..\..\..\..\microchip\harmony\v2_06\bin\framework\peripheral\PIC32MX130F064B_peripherals.a(peripheral.o)
 .text.PLIB_OSC_ExistsReferenceOscTrim
                0x00000000        0x8 ..\..\..\..\..\..\..\..\microchip\harmony\v2_06\bin\framework\peripheral\PIC32MX130F064B_peripherals.a(peripheral.o)
 .text.PLIB_OSC_ReferenceOscTrimSet
                0x00000000       0x20 ..\..\..\..\..\..\..\..\microchip\harmony\v2_06\bin\framework\peripheral\PIC32MX130F064B_peripherals.a(peripheral.o)
 .text.PLIB_OSC_ExistsPBClockOutputEnable
                0x00000000        0x8 ..\..\..\..\..\..\..\..\microchip\harmony\v2_06\bin\framework\peripheral\PIC32MX130F064B_peripherals.a(peripheral.o)
 .text.PLIB_OSC_PBOutputClockEnable
                0x00000000        0x8 ..\..\..\..\..\..\..\..\microchip\harmony\v2_06\bin\framework\peripheral\PIC32MX130F064B_peripherals.a(peripheral.o)
 .text.PLIB_OSC_PBOutputClockDisable
                0x00000000        0x8 ..\..\..\..\..\..\..\..\microchip\harmony\v2_06\bin\framework\peripheral\PIC32MX130F064B_peripherals.a(peripheral.o)
 .text.PLIB_OSC_PBOutputClockIsEnabled
                0x00000000        0x8 ..\..\..\..\..\..\..\..\microchip\harmony\v2_06\bin\framework\peripheral\PIC32MX130F064B_peripherals.a(peripheral.o)
 .text.PLIB_OSC_ExistsSysPLLInputDivisor
                0x00000000        0x8 ..\..\..\..\..\..\..\..\microchip\harmony\v2_06\bin\framework\peripheral\PIC32MX130F064B_peripherals.a(peripheral.o)
 .text.PLIB_OSC_SysPLLInputDivisorSet
                0x00000000        0x8 ..\..\..\..\..\..\..\..\microchip\harmony\v2_06\bin\framework\peripheral\PIC32MX130F064B_peripherals.a(peripheral.o)
 .text.PLIB_OSC_SysPLLInputDivisorGet
                0x00000000        0x8 ..\..\..\..\..\..\..\..\microchip\harmony\v2_06\bin\framework\peripheral\PIC32MX130F064B_peripherals.a(peripheral.o)
 .text.PLIB_OSC_ExistsUPLLInputDivisor
                0x00000000        0x8 ..\..\..\..\..\..\..\..\microchip\harmony\v2_06\bin\framework\peripheral\PIC32MX130F064B_peripherals.a(peripheral.o)
 .text.PLIB_OSC_UPLLInputDivisorSet
                0x00000000        0x8 ..\..\..\..\..\..\..\..\microchip\harmony\v2_06\bin\framework\peripheral\PIC32MX130F064B_peripherals.a(peripheral.o)
 .text.PLIB_OSC_UPLLInputDivisorGet
                0x00000000        0x8 ..\..\..\..\..\..\..\..\microchip\harmony\v2_06\bin\framework\peripheral\PIC32MX130F064B_peripherals.a(peripheral.o)
 .text.PLIB_OSC_ExistsBTPLLInputDivisor
                0x00000000        0x8 ..\..\..\..\..\..\..\..\microchip\harmony\v2_06\bin\framework\peripheral\PIC32MX130F064B_peripherals.a(peripheral.o)
 .text.PLIB_OSC_BTPLLInputDivisorSet
                0x00000000        0x8 ..\..\..\..\..\..\..\..\microchip\harmony\v2_06\bin\framework\peripheral\PIC32MX130F064B_peripherals.a(peripheral.o)
 .text.PLIB_OSC_BTPLLInputDivisorGet
                0x00000000        0x8 ..\..\..\..\..\..\..\..\microchip\harmony\v2_06\bin\framework\peripheral\PIC32MX130F064B_peripherals.a(peripheral.o)
 .text.PLIB_OSC_ExistsSysPLLInputClockSource
                0x00000000        0x8 ..\..\..\..\..\..\..\..\microchip\harmony\v2_06\bin\framework\peripheral\PIC32MX130F064B_peripherals.a(peripheral.o)
 .text.PLIB_OSC_SysPLLInputClockSourceSet
                0x00000000        0x8 ..\..\..\..\..\..\..\..\microchip\harmony\v2_06\bin\framework\peripheral\PIC32MX130F064B_peripherals.a(peripheral.o)
 .text.PLIB_OSC_SysPLLInputClockSourceGet
                0x00000000        0x8 ..\..\..\..\..\..\..\..\microchip\harmony\v2_06\bin\framework\peripheral\PIC32MX130F064B_peripherals.a(peripheral.o)
 .text.PLIB_OSC_ExistsBTPLLInputClockSource
                0x00000000        0x8 ..\..\..\..\..\..\..\..\microchip\harmony\v2_06\bin\framework\peripheral\PIC32MX130F064B_peripherals.a(peripheral.o)
 .text.PLIB_OSC_BTPLLInputClockSourceSet
                0x00000000        0x8 ..\..\..\..\..\..\..\..\microchip\harmony\v2_06\bin\framework\peripheral\PIC32MX130F064B_peripherals.a(peripheral.o)
 .text.PLIB_OSC_BTPLLInputClockSourceGet
                0x00000000        0x8 ..\..\..\..\..\..\..\..\microchip\harmony\v2_06\bin\framework\peripheral\PIC32MX130F064B_peripherals.a(peripheral.o)
 .text.PLIB_OSC_ExistsSysPLLFrequencyRange
                0x00000000        0x8 ..\..\..\..\..\..\..\..\microchip\harmony\v2_06\bin\framework\peripheral\PIC32MX130F064B_peripherals.a(peripheral.o)
 .text.PLIB_OSC_SysPLLFrequencyRangeSet
                0x00000000        0x8 ..\..\..\..\..\..\..\..\microchip\harmony\v2_06\bin\framework\peripheral\PIC32MX130F064B_peripherals.a(peripheral.o)
 .text.PLIB_OSC_SysPLLFrequencyRangeGet
                0x00000000        0x8 ..\..\..\..\..\..\..\..\microchip\harmony\v2_06\bin\framework\peripheral\PIC32MX130F064B_peripherals.a(peripheral.o)
 .text.PLIB_OSC_ExistsBTPLLFrequencyRange
                0x00000000        0x8 ..\..\..\..\..\..\..\..\microchip\harmony\v2_06\bin\framework\peripheral\PIC32MX130F064B_peripherals.a(peripheral.o)
 .text.PLIB_OSC_BTPLLFrequencyRangeSet
                0x00000000        0x8 ..\..\..\..\..\..\..\..\microchip\harmony\v2_06\bin\framework\peripheral\PIC32MX130F064B_peripherals.a(peripheral.o)
 .text.PLIB_OSC_BTPLLFrequencyRangeGet
                0x00000000        0x8 ..\..\..\..\..\..\..\..\microchip\harmony\v2_06\bin\framework\peripheral\PIC32MX130F064B_peripherals.a(peripheral.o)
 .text.PLIB_OSC_ExistsUPLLFrequencyRange
                0x00000000        0x8 ..\..\..\..\..\..\..\..\microchip\harmony\v2_06\bin\framework\peripheral\PIC32MX130F064B_peripherals.a(peripheral.o)
 .text.PLIB_OSC_UPLLFrequencyRangeSet
                0x00000000        0x8 ..\..\..\..\..\..\..\..\microchip\harmony\v2_06\bin\framework\peripheral\PIC32MX130F064B_peripherals.a(peripheral.o)
 .text.PLIB_OSC_UPLLFrequencyRangeGet
                0x00000000        0x8 ..\..\..\..\..\..\..\..\microchip\harmony\v2_06\bin\framework\peripheral\PIC32MX130F064B_peripherals.a(peripheral.o)
 .text.PLIB_OSC_ExistsSleepToStartupClock
                0x00000000        0x8 ..\..\..\..\..\..\..\..\microchip\harmony\v2_06\bin\framework\peripheral\PIC32MX130F064B_peripherals.a(peripheral.o)
 .text.PLIB_OSC_SleepToStartupClockSelect
                0x00000000        0x8 ..\..\..\..\..\..\..\..\microchip\harmony\v2_06\bin\framework\peripheral\PIC32MX130F064B_peripherals.a(peripheral.o)
 .text.PLIB_OSC_SleepToStartupClockGet
                0x00000000        0x8 ..\..\..\..\..\..\..\..\microchip\harmony\v2_06\bin\framework\peripheral\PIC32MX130F064B_peripherals.a(peripheral.o)
 .text.PLIB_OSC_ExistsClockReadyStatus
                0x00000000        0x8 ..\..\..\..\..\..\..\..\microchip\harmony\v2_06\bin\framework\peripheral\PIC32MX130F064B_peripherals.a(peripheral.o)
 .text.PLIB_OSC_ClockIsReady
                0x00000000        0x8 ..\..\..\..\..\..\..\..\microchip\harmony\v2_06\bin\framework\peripheral\PIC32MX130F064B_peripherals.a(peripheral.o)
 .text.PLIB_OSC_ExistsClockDiagStatus
                0x00000000        0x8 ..\..\..\..\..\..\..\..\microchip\harmony\v2_06\bin\framework\peripheral\PIC32MX130F064B_peripherals.a(peripheral.o)
 .text.PLIB_OSC_ClockStop
                0x00000000        0x8 ..\..\..\..\..\..\..\..\microchip\harmony\v2_06\bin\framework\peripheral\PIC32MX130F064B_peripherals.a(peripheral.o)
 .text.PLIB_OSC_ClockStart
                0x00000000        0x8 ..\..\..\..\..\..\..\..\microchip\harmony\v2_06\bin\framework\peripheral\PIC32MX130F064B_peripherals.a(peripheral.o)
 .text.PLIB_OSC_ClockStopStatus
                0x00000000        0x8 ..\..\..\..\..\..\..\..\microchip\harmony\v2_06\bin\framework\peripheral\PIC32MX130F064B_peripherals.a(peripheral.o)
 .text.PLIB_OSC_ExistsClockSlewingStatus
                0x00000000        0x8 ..\..\..\..\..\..\..\..\microchip\harmony\v2_06\bin\framework\peripheral\PIC32MX130F064B_peripherals.a(peripheral.o)
 .text.PLIB_OSC_ClockSlewingIsActive
                0x00000000        0x8 ..\..\..\..\..\..\..\..\microchip\harmony\v2_06\bin\framework\peripheral\PIC32MX130F064B_peripherals.a(peripheral.o)
 .text.PLIB_OSC_ExistsSlewEnableControl
                0x00000000        0x8 ..\..\..\..\..\..\..\..\microchip\harmony\v2_06\bin\framework\peripheral\PIC32MX130F064B_peripherals.a(peripheral.o)
 .text.PLIB_OSC_SlewEnable
                0x00000000        0x8 ..\..\..\..\..\..\..\..\microchip\harmony\v2_06\bin\framework\peripheral\PIC32MX130F064B_peripherals.a(peripheral.o)
 .text.PLIB_OSC_SlewDisable
                0x00000000        0x8 ..\..\..\..\..\..\..\..\microchip\harmony\v2_06\bin\framework\peripheral\PIC32MX130F064B_peripherals.a(peripheral.o)
 .text.PLIB_OSC_SlewIsEnabled
                0x00000000        0x8 ..\..\..\..\..\..\..\..\microchip\harmony\v2_06\bin\framework\peripheral\PIC32MX130F064B_peripherals.a(peripheral.o)
 .text.PLIB_OSC_ExistsSlewDivisorStepControl
                0x00000000        0x8 ..\..\..\..\..\..\..\..\microchip\harmony\v2_06\bin\framework\peripheral\PIC32MX130F064B_peripherals.a(peripheral.o)
 .text.PLIB_OSC_SlewDivisorStepSelect
                0x00000000        0x8 ..\..\..\..\..\..\..\..\microchip\harmony\v2_06\bin\framework\peripheral\PIC32MX130F064B_peripherals.a(peripheral.o)
 .text.PLIB_OSC_SlewDivisorStepGet
                0x00000000        0x8 ..\..\..\..\..\..\..\..\microchip\harmony\v2_06\bin\framework\peripheral\PIC32MX130F064B_peripherals.a(peripheral.o)
 .text.PLIB_OSC_ExistsSystemClockDivisorControl
                0x00000000        0x8 ..\..\..\..\..\..\..\..\microchip\harmony\v2_06\bin\framework\peripheral\PIC32MX130F064B_peripherals.a(peripheral.o)
 .text.PLIB_OSC_SystemClockDivisorSelect
                0x00000000        0x8 ..\..\..\..\..\..\..\..\microchip\harmony\v2_06\bin\framework\peripheral\PIC32MX130F064B_peripherals.a(peripheral.o)
 .text.PLIB_OSC_SystemClockDivisorGet
                0x00000000        0x8 ..\..\..\..\..\..\..\..\microchip\harmony\v2_06\bin\framework\peripheral\PIC32MX130F064B_peripherals.a(peripheral.o)
 .text.PLIB_OSC_ExistsDreamModeControl
                0x00000000        0x8 ..\..\..\..\..\..\..\..\microchip\harmony\v2_06\bin\framework\peripheral\PIC32MX130F064B_peripherals.a(peripheral.o)
 .text.PLIB_OSC_DreamModeEnable
                0x00000000        0x8 ..\..\..\..\..\..\..\..\microchip\harmony\v2_06\bin\framework\peripheral\PIC32MX130F064B_peripherals.a(peripheral.o)
 .text.PLIB_OSC_DreamModeDisable
                0x00000000        0x8 ..\..\..\..\..\..\..\..\microchip\harmony\v2_06\bin\framework\peripheral\PIC32MX130F064B_peripherals.a(peripheral.o)
 .text.PLIB_OSC_DreamModeStatus
                0x00000000        0x8 ..\..\..\..\..\..\..\..\microchip\harmony\v2_06\bin\framework\peripheral\PIC32MX130F064B_peripherals.a(peripheral.o)
 .text.PLIB_OSC_ExistsForceLock
                0x00000000        0x8 ..\..\..\..\..\..\..\..\microchip\harmony\v2_06\bin\framework\peripheral\PIC32MX130F064B_peripherals.a(peripheral.o)
 .text.PLIB_OSC_ForceSPLLLockEnable
                0x00000000        0x8 ..\..\..\..\..\..\..\..\microchip\harmony\v2_06\bin\framework\peripheral\PIC32MX130F064B_peripherals.a(peripheral.o)
 .text.PLIB_OSC_ForceSPLLLockDisable
                0x00000000        0x8 ..\..\..\..\..\..\..\..\microchip\harmony\v2_06\bin\framework\peripheral\PIC32MX130F064B_peripherals.a(peripheral.o)
 .text.PLIB_OSC_ForceSPLLLockStatus
                0x00000000        0x8 ..\..\..\..\..\..\..\..\microchip\harmony\v2_06\bin\framework\peripheral\PIC32MX130F064B_peripherals.a(peripheral.o)
 .text.PLIB_OSC_ExistsResetPLL
                0x00000000        0x8 ..\..\..\..\..\..\..\..\microchip\harmony\v2_06\bin\framework\peripheral\PIC32MX130F064B_peripherals.a(peripheral.o)
 .text.PLIB_OSC_ResetPLLAssert
                0x00000000        0x8 ..\..\..\..\..\..\..\..\microchip\harmony\v2_06\bin\framework\peripheral\PIC32MX130F064B_peripherals.a(peripheral.o)
 .text.PLIB_OSC_ResetPLLDeassert
                0x00000000        0x8 ..\..\..\..\..\..\..\..\microchip\harmony\v2_06\bin\framework\peripheral\PIC32MX130F064B_peripherals.a(peripheral.o)
 .text.PLIB_OSC_ResetPLLStatus
                0x00000000        0x8 ..\..\..\..\..\..\..\..\microchip\harmony\v2_06\bin\framework\peripheral\PIC32MX130F064B_peripherals.a(peripheral.o)
 .text.PLIB_OSC_ExistsPLLBypass
                0x00000000        0x8 ..\..\..\..\..\..\..\..\microchip\harmony\v2_06\bin\framework\peripheral\PIC32MX130F064B_peripherals.a(peripheral.o)
 .text.PLIB_OSC_PLLBypassEnable
                0x00000000        0x8 ..\..\..\..\..\..\..\..\microchip\harmony\v2_06\bin\framework\peripheral\PIC32MX130F064B_peripherals.a(peripheral.o)
 .text.PLIB_OSC_PLLBypassDisable
                0x00000000        0x8 ..\..\..\..\..\..\..\..\microchip\harmony\v2_06\bin\framework\peripheral\PIC32MX130F064B_peripherals.a(peripheral.o)
 .text.PLIB_OSC_PLLBypassStatus
                0x00000000        0x8 ..\..\..\..\..\..\..\..\microchip\harmony\v2_06\bin\framework\peripheral\PIC32MX130F064B_peripherals.a(peripheral.o)
 .text.PLIB_OSC_ExistsBTPLLClockOut
                0x00000000        0x8 ..\..\..\..\..\..\..\..\microchip\harmony\v2_06\bin\framework\peripheral\PIC32MX130F064B_peripherals.a(peripheral.o)
 .text.PLIB_OSC_BTPLLClockOutEnable
                0x00000000        0x8 ..\..\..\..\..\..\..\..\microchip\harmony\v2_06\bin\framework\peripheral\PIC32MX130F064B_peripherals.a(peripheral.o)
 .text.PLIB_OSC_BTPLLClockOutDisable
                0x00000000        0x8 ..\..\..\..\..\..\..\..\microchip\harmony\v2_06\bin\framework\peripheral\PIC32MX130F064B_peripherals.a(peripheral.o)
 .text.PLIB_OSC_BTPLLClockOutStatus
                0x00000000        0x8 ..\..\..\..\..\..\..\..\microchip\harmony\v2_06\bin\framework\peripheral\PIC32MX130F064B_peripherals.a(peripheral.o)
 .text.PLIB_PCACHE_ExistsWaitState
                0x00000000        0x8 ..\..\..\..\..\..\..\..\microchip\harmony\v2_06\bin\framework\peripheral\PIC32MX130F064B_peripherals.a(peripheral.o)
 .text.PLIB_PCACHE_WaitStateSet
                0x00000000        0x8 ..\..\..\..\..\..\..\..\microchip\harmony\v2_06\bin\framework\peripheral\PIC32MX130F064B_peripherals.a(peripheral.o)
 .text.PLIB_PCACHE_WaitStateGet
                0x00000000        0x8 ..\..\..\..\..\..\..\..\microchip\harmony\v2_06\bin\framework\peripheral\PIC32MX130F064B_peripherals.a(peripheral.o)
 .text.PLIB_PCACHE_ExistsPFMAddressWaitStateEnable
                0x00000000        0x8 ..\..\..\..\..\..\..\..\microchip\harmony\v2_06\bin\framework\peripheral\PIC32MX130F064B_peripherals.a(peripheral.o)
 .text.PLIB_PCACHE_PFMAddressWaitStateEnable
                0x00000000        0x8 ..\..\..\..\..\..\..\..\microchip\harmony\v2_06\bin\framework\peripheral\PIC32MX130F064B_peripherals.a(peripheral.o)
 .text.PLIB_PCACHE_PFMAddressWaitStateDisable
                0x00000000        0x8 ..\..\..\..\..\..\..\..\microchip\harmony\v2_06\bin\framework\peripheral\PIC32MX130F064B_peripherals.a(peripheral.o)
 .text.PLIB_PCACHE_PFMAddressWaitStateIsEnabled
                0x00000000        0x8 ..\..\..\..\..\..\..\..\microchip\harmony\v2_06\bin\framework\peripheral\PIC32MX130F064B_peripherals.a(peripheral.o)
 .text.PLIB_PCACHE_ExistsCachePerformanceCountersEnable
                0x00000000        0x8 ..\..\..\..\..\..\..\..\microchip\harmony\v2_06\bin\framework\peripheral\PIC32MX130F064B_peripherals.a(peripheral.o)
 .text.PLIB_PCACHE_CachePerformanceCountersEnable
                0x00000000        0x8 ..\..\..\..\..\..\..\..\microchip\harmony\v2_06\bin\framework\peripheral\PIC32MX130F064B_peripherals.a(peripheral.o)
 .text.PLIB_PCACHE_CachePerformanceCountersDisable
                0x00000000        0x8 ..\..\..\..\..\..\..\..\microchip\harmony\v2_06\bin\framework\peripheral\PIC32MX130F064B_peripherals.a(peripheral.o)
 .text.PLIB_PCACHE_CachePerformanceCountersIsEnabled
                0x00000000        0x8 ..\..\..\..\..\..\..\..\microchip\harmony\v2_06\bin\framework\peripheral\PIC32MX130F064B_peripherals.a(peripheral.o)
 .text.PLIB_PCACHE_ExistsPrefetchEnable
                0x00000000        0x8 ..\..\..\..\..\..\..\..\microchip\harmony\v2_06\bin\framework\peripheral\PIC32MX130F064B_peripherals.a(peripheral.o)
 .text.PLIB_PCACHE_PrefetchEnableSet
                0x00000000        0x8 ..\..\..\..\..\..\..\..\microchip\harmony\v2_06\bin\framework\peripheral\PIC32MX130F064B_peripherals.a(peripheral.o)
 .text.PLIB_PCACHE_PrefetchEnableGet
                0x00000000        0x8 ..\..\..\..\..\..\..\..\microchip\harmony\v2_06\bin\framework\peripheral\PIC32MX130F064B_peripherals.a(peripheral.o)
 .text.PLIB_PCACHE_ExistsDataCacheEnable
                0x00000000        0x8 ..\..\..\..\..\..\..\..\microchip\harmony\v2_06\bin\framework\peripheral\PIC32MX130F064B_peripherals.a(peripheral.o)
 .text.PLIB_PCACHE_DataCacheEnableSet
                0x00000000        0x8 ..\..\..\..\..\..\..\..\microchip\harmony\v2_06\bin\framework\peripheral\PIC32MX130F064B_peripherals.a(peripheral.o)
 .text.PLIB_PCACHE_DataCacheEnableGet
                0x00000000        0x8 ..\..\..\..\..\..\..\..\microchip\harmony\v2_06\bin\framework\peripheral\PIC32MX130F064B_peripherals.a(peripheral.o)
 .text.PLIB_PCACHE_ExistsCacheEnable
                0x00000000        0x8 ..\..\..\..\..\..\..\..\microchip\harmony\v2_06\bin\framework\peripheral\PIC32MX130F064B_peripherals.a(peripheral.o)
 .text.PLIB_PCACHE_CacheEnable
                0x00000000        0x8 ..\..\..\..\..\..\..\..\microchip\harmony\v2_06\bin\framework\peripheral\PIC32MX130F064B_peripherals.a(peripheral.o)
 .text.PLIB_PCACHE_CacheDisable
                0x00000000        0x8 ..\..\..\..\..\..\..\..\microchip\harmony\v2_06\bin\framework\peripheral\PIC32MX130F064B_peripherals.a(peripheral.o)
 .text.PLIB_PCACHE_CacheIsEnabled
                0x00000000        0x8 ..\..\..\..\..\..\..\..\microchip\harmony\v2_06\bin\framework\peripheral\PIC32MX130F064B_peripherals.a(peripheral.o)
 .text.PLIB_PCACHE_ExistsFlashSECInt
                0x00000000        0x8 ..\..\..\..\..\..\..\..\microchip\harmony\v2_06\bin\framework\peripheral\PIC32MX130F064B_peripherals.a(peripheral.o)
 .text.PLIB_PCACHE_FlashSECIntEnable
                0x00000000        0x8 ..\..\..\..\..\..\..\..\microchip\harmony\v2_06\bin\framework\peripheral\PIC32MX130F064B_peripherals.a(peripheral.o)
 .text.PLIB_PCACHE_FlashSECIntDisable
                0x00000000        0x8 ..\..\..\..\..\..\..\..\microchip\harmony\v2_06\bin\framework\peripheral\PIC32MX130F064B_peripherals.a(peripheral.o)
 .text.PLIB_PCACHE_ExistsFlashDEDStatus
                0x00000000        0x8 ..\..\..\..\..\..\..\..\microchip\harmony\v2_06\bin\framework\peripheral\PIC32MX130F064B_peripherals.a(peripheral.o)
 .text.PLIB_PCACHE_FlashDEDStatusGet
                0x00000000        0x8 ..\..\..\..\..\..\..\..\microchip\harmony\v2_06\bin\framework\peripheral\PIC32MX130F064B_peripherals.a(peripheral.o)
 .text.PLIB_PCACHE_FlashDEDStatusClear
                0x00000000        0x8 ..\..\..\..\..\..\..\..\microchip\harmony\v2_06\bin\framework\peripheral\PIC32MX130F064B_peripherals.a(peripheral.o)
 .text.PLIB_PCACHE_ExistsFlashSECStatus
                0x00000000        0x8 ..\..\..\..\..\..\..\..\microchip\harmony\v2_06\bin\framework\peripheral\PIC32MX130F064B_peripherals.a(peripheral.o)
 .text.PLIB_PCACHE_FlashSECStatusGet
                0x00000000        0x8 ..\..\..\..\..\..\..\..\microchip\harmony\v2_06\bin\framework\peripheral\PIC32MX130F064B_peripherals.a(peripheral.o)
 .text.PLIB_PCACHE_FlashSECStatusSet
                0x00000000        0x8 ..\..\..\..\..\..\..\..\microchip\harmony\v2_06\bin\framework\peripheral\PIC32MX130F064B_peripherals.a(peripheral.o)
 .text.PLIB_PCACHE_FlashSECStatusClear
                0x00000000        0x8 ..\..\..\..\..\..\..\..\microchip\harmony\v2_06\bin\framework\peripheral\PIC32MX130F064B_peripherals.a(peripheral.o)
 .text.PLIB_PCACHE_ExistsFlashSECCount
                0x00000000        0x8 ..\..\..\..\..\..\..\..\microchip\harmony\v2_06\bin\framework\peripheral\PIC32MX130F064B_peripherals.a(peripheral.o)
 .text.PLIB_PCACHE_FlashSECCountSet
                0x00000000        0x8 ..\..\..\..\..\..\..\..\microchip\harmony\v2_06\bin\framework\peripheral\PIC32MX130F064B_peripherals.a(peripheral.o)
 .text.PLIB_PCACHE_FlashSECCountGet
                0x00000000        0x8 ..\..\..\..\..\..\..\..\microchip\harmony\v2_06\bin\framework\peripheral\PIC32MX130F064B_peripherals.a(peripheral.o)
 .text.PLIB_PCACHE_ExistsInvalidateOnPFMProgram
                0x00000000        0x8 ..\..\..\..\..\..\..\..\microchip\harmony\v2_06\bin\framework\peripheral\PIC32MX130F064B_peripherals.a(peripheral.o)
 .text.PLIB_PCACHE_InvalidateOnPFMProgramAll
                0x00000000        0x8 ..\..\..\..\..\..\..\..\microchip\harmony\v2_06\bin\framework\peripheral\PIC32MX130F064B_peripherals.a(peripheral.o)
 .text.PLIB_PCACHE_InvalidateOnPFMProgramUnlocked
                0x00000000        0x8 ..\..\..\..\..\..\..\..\microchip\harmony\v2_06\bin\framework\peripheral\PIC32MX130F064B_peripherals.a(peripheral.o)
 .text.PLIB_PCACHE_ExistsInvalidateCache
                0x00000000        0x8 ..\..\..\..\..\..\..\..\microchip\harmony\v2_06\bin\framework\peripheral\PIC32MX130F064B_peripherals.a(peripheral.o)
 .text.PLIB_PCACHE_ForceInvalidateCacheEnable
                0x00000000        0x8 ..\..\..\..\..\..\..\..\microchip\harmony\v2_06\bin\framework\peripheral\PIC32MX130F064B_peripherals.a(peripheral.o)
 .text.PLIB_PCACHE_ForceInvalidateCacheIsEnabled
                0x00000000        0x8 ..\..\..\..\..\..\..\..\microchip\harmony\v2_06\bin\framework\peripheral\PIC32MX130F064B_peripherals.a(peripheral.o)
 .text.PLIB_PCACHE_AutoInvalidateCacheEnable
                0x00000000        0x8 ..\..\..\..\..\..\..\..\microchip\harmony\v2_06\bin\framework\peripheral\PIC32MX130F064B_peripherals.a(peripheral.o)
 .text.PLIB_PCACHE_AutoInvalidateCacheDisable
                0x00000000        0x8 ..\..\..\..\..\..\..\..\microchip\harmony\v2_06\bin\framework\peripheral\PIC32MX130F064B_peripherals.a(peripheral.o)
 .text.PLIB_PCACHE_AutoInvalidateCacheIsEnabled
                0x00000000        0x8 ..\..\..\..\..\..\..\..\microchip\harmony\v2_06\bin\framework\peripheral\PIC32MX130F064B_peripherals.a(peripheral.o)
 .text.PLIB_PCACHE_ExistsCacheLine
                0x00000000        0x8 ..\..\..\..\..\..\..\..\microchip\harmony\v2_06\bin\framework\peripheral\PIC32MX130F064B_peripherals.a(peripheral.o)
 .text.PLIB_PCACHE_CacheLineSelect
                0x00000000        0x8 ..\..\..\..\..\..\..\..\microchip\harmony\v2_06\bin\framework\peripheral\PIC32MX130F064B_peripherals.a(peripheral.o)
 .text.PLIB_PCACHE_CacheLineDeselect
                0x00000000        0x8 ..\..\..\..\..\..\..\..\microchip\harmony\v2_06\bin\framework\peripheral\PIC32MX130F064B_peripherals.a(peripheral.o)
 .text.PLIB_PCACHE_CacheLineData
                0x00000000        0x8 ..\..\..\..\..\..\..\..\microchip\harmony\v2_06\bin\framework\peripheral\PIC32MX130F064B_peripherals.a(peripheral.o)
 .text.PLIB_PCACHE_CacheLineInst
                0x00000000        0x8 ..\..\..\..\..\..\..\..\microchip\harmony\v2_06\bin\framework\peripheral\PIC32MX130F064B_peripherals.a(peripheral.o)
 .text.PLIB_PCACHE_CacheLineIsInst
                0x00000000        0x8 ..\..\..\..\..\..\..\..\microchip\harmony\v2_06\bin\framework\peripheral\PIC32MX130F064B_peripherals.a(peripheral.o)
 .text.PLIB_PCACHE_ExistsCacheLineType
                0x00000000        0x8 ..\..\..\..\..\..\..\..\microchip\harmony\v2_06\bin\framework\peripheral\PIC32MX130F064B_peripherals.a(peripheral.o)
 .text.PLIB_PCACHE_CacheLineLock
                0x00000000        0x8 ..\..\..\..\..\..\..\..\microchip\harmony\v2_06\bin\framework\peripheral\PIC32MX130F064B_peripherals.a(peripheral.o)
 .text.PLIB_PCACHE_CacheLineUnlock
                0x00000000        0x8 ..\..\..\..\..\..\..\..\microchip\harmony\v2_06\bin\framework\peripheral\PIC32MX130F064B_peripherals.a(peripheral.o)
 .text.PLIB_PCACHE_CacheLineIsLocked
                0x00000000        0x8 ..\..\..\..\..\..\..\..\microchip\harmony\v2_06\bin\framework\peripheral\PIC32MX130F064B_peripherals.a(peripheral.o)
 .text.PLIB_PCACHE_ExistsCacheLineLock
                0x00000000        0x8 ..\..\..\..\..\..\..\..\microchip\harmony\v2_06\bin\framework\peripheral\PIC32MX130F064B_peripherals.a(peripheral.o)
 .text.PLIB_PCACHE_CacheLineValid
                0x00000000        0x8 ..\..\..\..\..\..\..\..\microchip\harmony\v2_06\bin\framework\peripheral\PIC32MX130F064B_peripherals.a(peripheral.o)
 .text.PLIB_PCACHE_CacheLineInvalid
                0x00000000        0x8 ..\..\..\..\..\..\..\..\microchip\harmony\v2_06\bin\framework\peripheral\PIC32MX130F064B_peripherals.a(peripheral.o)
 .text.PLIB_PCACHE_CacheLineIsValid
                0x00000000        0x8 ..\..\..\..\..\..\..\..\microchip\harmony\v2_06\bin\framework\peripheral\PIC32MX130F064B_peripherals.a(peripheral.o)
 .text.PLIB_PCACHE_ExistsCacheLineValid
                0x00000000        0x8 ..\..\..\..\..\..\..\..\microchip\harmony\v2_06\bin\framework\peripheral\PIC32MX130F064B_peripherals.a(peripheral.o)
 .text.PLIB_PCACHE_CacheLineAddrSet
                0x00000000        0x8 ..\..\..\..\..\..\..\..\microchip\harmony\v2_06\bin\framework\peripheral\PIC32MX130F064B_peripherals.a(peripheral.o)
 .text.PLIB_PCACHE_CacheLineAddrGet
                0x00000000        0x8 ..\..\..\..\..\..\..\..\microchip\harmony\v2_06\bin\framework\peripheral\PIC32MX130F064B_peripherals.a(peripheral.o)
 .text.PLIB_PCACHE_ExistsCacheLineAddr
                0x00000000        0x8 ..\..\..\..\..\..\..\..\microchip\harmony\v2_06\bin\framework\peripheral\PIC32MX130F064B_peripherals.a(peripheral.o)
 .text.PLIB_PCACHE_CacheLineFlashTypeBoot
                0x00000000        0x8 ..\..\..\..\..\..\..\..\microchip\harmony\v2_06\bin\framework\peripheral\PIC32MX130F064B_peripherals.a(peripheral.o)
 .text.PLIB_PCACHE_CacheLineFlashTypeInst
                0x00000000        0x8 ..\..\..\..\..\..\..\..\microchip\harmony\v2_06\bin\framework\peripheral\PIC32MX130F064B_peripherals.a(peripheral.o)
 .text.PLIB_PCACHE_CacheLineFlashTypeIsInst
                0x00000000        0x8 ..\..\..\..\..\..\..\..\microchip\harmony\v2_06\bin\framework\peripheral\PIC32MX130F064B_peripherals.a(peripheral.o)
 .text.PLIB_PCACHE_ExistsCacheLineFlashType
                0x00000000        0x8 ..\..\..\..\..\..\..\..\microchip\harmony\v2_06\bin\framework\peripheral\PIC32MX130F064B_peripherals.a(peripheral.o)
 .text.PLIB_PCACHE_CacheLineMaskSet
                0x00000000        0x8 ..\..\..\..\..\..\..\..\microchip\harmony\v2_06\bin\framework\peripheral\PIC32MX130F064B_peripherals.a(peripheral.o)
 .text.PLIB_PCACHE_CacheLineMaskGet
                0x00000000        0x8 ..\..\..\..\..\..\..\..\microchip\harmony\v2_06\bin\framework\peripheral\PIC32MX130F064B_peripherals.a(peripheral.o)
 .text.PLIB_PCACHE_ExistsCacheLineMask
                0x00000000        0x8 ..\..\..\..\..\..\..\..\microchip\harmony\v2_06\bin\framework\peripheral\PIC32MX130F064B_peripherals.a(peripheral.o)
 .text.PLIB_PCACHE_WordRead
                0x00000000        0x8 ..\..\..\..\..\..\..\..\microchip\harmony\v2_06\bin\framework\peripheral\PIC32MX130F064B_peripherals.a(peripheral.o)
 .text.PLIB_PCACHE_WordWrite
                0x00000000        0x8 ..\..\..\..\..\..\..\..\microchip\harmony\v2_06\bin\framework\peripheral\PIC32MX130F064B_peripherals.a(peripheral.o)
 .text.PLIB_PCACHE_ExistsWord
                0x00000000        0x8 ..\..\..\..\..\..\..\..\microchip\harmony\v2_06\bin\framework\peripheral\PIC32MX130F064B_peripherals.a(peripheral.o)
 .text.PLIB_PCACHE_LeastRecentlyUsedStateRead
                0x00000000        0x8 ..\..\..\..\..\..\..\..\microchip\harmony\v2_06\bin\framework\peripheral\PIC32MX130F064B_peripherals.a(peripheral.o)
 .text.PLIB_PCACHE_ExistsLeastRecentlyUsedState
                0x00000000        0x8 ..\..\..\..\..\..\..\..\microchip\harmony\v2_06\bin\framework\peripheral\PIC32MX130F064B_peripherals.a(peripheral.o)
 .text.PLIB_PCACHE_CacheHitRead
                0x00000000        0x8 ..\..\..\..\..\..\..\..\microchip\harmony\v2_06\bin\framework\peripheral\PIC32MX130F064B_peripherals.a(peripheral.o)
 .text.PLIB_PCACHE_CacheHitWrite
                0x00000000        0x8 ..\..\..\..\..\..\..\..\microchip\harmony\v2_06\bin\framework\peripheral\PIC32MX130F064B_peripherals.a(peripheral.o)
 .text.PLIB_PCACHE_ExistsCacheHit
                0x00000000        0x8 ..\..\..\..\..\..\..\..\microchip\harmony\v2_06\bin\framework\peripheral\PIC32MX130F064B_peripherals.a(peripheral.o)
 .text.PLIB_PCACHE_CacheMissRead
                0x00000000        0x8 ..\..\..\..\..\..\..\..\microchip\harmony\v2_06\bin\framework\peripheral\PIC32MX130F064B_peripherals.a(peripheral.o)
 .text.PLIB_PCACHE_CacheMissWrite
                0x00000000        0x8 ..\..\..\..\..\..\..\..\microchip\harmony\v2_06\bin\framework\peripheral\PIC32MX130F064B_peripherals.a(peripheral.o)
 .text.PLIB_PCACHE_ExistsCacheMiss
                0x00000000        0x8 ..\..\..\..\..\..\..\..\microchip\harmony\v2_06\bin\framework\peripheral\PIC32MX130F064B_peripherals.a(peripheral.o)
 .text.PLIB_PCACHE_PrefetchAbortRead
                0x00000000        0x8 ..\..\..\..\..\..\..\..\microchip\harmony\v2_06\bin\framework\peripheral\PIC32MX130F064B_peripherals.a(peripheral.o)
 .text.PLIB_PCACHE_PrefetchAbortWrite
                0x00000000        0x8 ..\..\..\..\..\..\..\..\microchip\harmony\v2_06\bin\framework\peripheral\PIC32MX130F064B_peripherals.a(peripheral.o)
 .text.PLIB_PCACHE_ExistsPrefetchAbort
                0x00000000        0x8 ..\..\..\..\..\..\..\..\microchip\harmony\v2_06\bin\framework\peripheral\PIC32MX130F064B_peripherals.a(peripheral.o)
 .text.PLIB_PMP_ExistsStartReadControl
                0x00000000        0x8 ..\..\..\..\..\..\..\..\microchip\harmony\v2_06\bin\framework\peripheral\PIC32MX130F064B_peripherals.a(peripheral.o)
 .text.PLIB_PMP_ReadCycleStart
                0x00000000        0x8 ..\..\..\..\..\..\..\..\microchip\harmony\v2_06\bin\framework\peripheral\PIC32MX130F064B_peripherals.a(peripheral.o)
 .text.PLIB_PMP_ReadCycleIsStarted
                0x00000000        0x8 ..\..\..\..\..\..\..\..\microchip\harmony\v2_06\bin\framework\peripheral\PIC32MX130F064B_peripherals.a(peripheral.o)
 .text.PLIB_PMP_ExistsDualBufferControl
                0x00000000        0x8 ..\..\..\..\..\..\..\..\microchip\harmony\v2_06\bin\framework\peripheral\PIC32MX130F064B_peripherals.a(peripheral.o)
 .text.PLIB_PMP_DualBufferDisable
                0x00000000        0x8 ..\..\..\..\..\..\..\..\microchip\harmony\v2_06\bin\framework\peripheral\PIC32MX130F064B_peripherals.a(peripheral.o)
 .text.PLIB_PMP_DualBufferEnable
                0x00000000        0x8 ..\..\..\..\..\..\..\..\microchip\harmony\v2_06\bin\framework\peripheral\PIC32MX130F064B_peripherals.a(peripheral.o)
 .text.PLIB_PMP_DualBufferIsEnabled
                0x00000000        0x8 ..\..\..\..\..\..\..\..\microchip\harmony\v2_06\bin\framework\peripheral\PIC32MX130F064B_peripherals.a(peripheral.o)
 .text.PLIB_PMP_ExistsEnableControl
                0x00000000        0x8 ..\..\..\..\..\..\..\..\microchip\harmony\v2_06\bin\framework\peripheral\PIC32MX130F064B_peripherals.a(peripheral.o)
 .text.PLIB_PMP_Disable
                0x00000000       0x14 ..\..\..\..\..\..\..\..\microchip\harmony\v2_06\bin\framework\peripheral\PIC32MX130F064B_peripherals.a(peripheral.o)
 .text.PLIB_PMP_Enable
                0x00000000       0x14 ..\..\..\..\..\..\..\..\microchip\harmony\v2_06\bin\framework\peripheral\PIC32MX130F064B_peripherals.a(peripheral.o)
 .text.PLIB_PMP_IsEnabled
                0x00000000       0x10 ..\..\..\..\..\..\..\..\microchip\harmony\v2_06\bin\framework\peripheral\PIC32MX130F064B_peripherals.a(peripheral.o)
 .text.PLIB_PMP_ExistsStopInIdleControl
                0x00000000        0x8 ..\..\..\..\..\..\..\..\microchip\harmony\v2_06\bin\framework\peripheral\PIC32MX130F064B_peripherals.a(peripheral.o)
 .text.PLIB_PMP_StopInIdleEnable
                0x00000000       0x14 ..\..\..\..\..\..\..\..\microchip\harmony\v2_06\bin\framework\peripheral\PIC32MX130F064B_peripherals.a(peripheral.o)
 .text.PLIB_PMP_StopInIdleDisable
                0x00000000       0x14 ..\..\..\..\..\..\..\..\microchip\harmony\v2_06\bin\framework\peripheral\PIC32MX130F064B_peripherals.a(peripheral.o)
 .text.PLIB_PMP_ExistsMUXModeSelect
                0x00000000        0x8 ..\..\..\..\..\..\..\..\microchip\harmony\v2_06\bin\framework\peripheral\PIC32MX130F064B_peripherals.a(peripheral.o)
 .text.PLIB_PMP_MultiplexModeSelect
                0x00000000       0x18 ..\..\..\..\..\..\..\..\microchip\harmony\v2_06\bin\framework\peripheral\PIC32MX130F064B_peripherals.a(peripheral.o)
 .text.PLIB_PMP_MultiplexModeGet
                0x00000000       0x10 ..\..\..\..\..\..\..\..\microchip\harmony\v2_06\bin\framework\peripheral\PIC32MX130F064B_peripherals.a(peripheral.o)
 .text.PLIB_PMP_ExistsBufferType
                0x00000000        0x8 ..\..\..\..\..\..\..\..\microchip\harmony\v2_06\bin\framework\peripheral\PIC32MX130F064B_peripherals.a(peripheral.o)
 .text.PLIB_PMP_InputBufferTypeSelect
                0x00000000       0x18 ..\..\..\..\..\..\..\..\microchip\harmony\v2_06\bin\framework\peripheral\PIC32MX130F064B_peripherals.a(peripheral.o)
 .text.PLIB_PMP_ExistsWriteEnablePortControl
                0x00000000        0x8 ..\..\..\..\..\..\..\..\microchip\harmony\v2_06\bin\framework\peripheral\PIC32MX130F064B_peripherals.a(peripheral.o)
 .text.PLIB_PMP_WriteEnableStrobePortEnable
                0x00000000       0x14 ..\..\..\..\..\..\..\..\microchip\harmony\v2_06\bin\framework\peripheral\PIC32MX130F064B_peripherals.a(peripheral.o)
 .text.PLIB_PMP_WriteEnableStrobePortDisable
                0x00000000       0x14 ..\..\..\..\..\..\..\..\microchip\harmony\v2_06\bin\framework\peripheral\PIC32MX130F064B_peripherals.a(peripheral.o)
 .text.PLIB_PMP_ExistsReadWriteStrobePortControl
                0x00000000        0x8 ..\..\..\..\..\..\..\..\microchip\harmony\v2_06\bin\framework\peripheral\PIC32MX130F064B_peripherals.a(peripheral.o)
 .text.PLIB_PMP_ReadWriteStrobePortEnable
                0x00000000       0x14 ..\..\..\..\..\..\..\..\microchip\harmony\v2_06\bin\framework\peripheral\PIC32MX130F064B_peripherals.a(peripheral.o)
 .text.PLIB_PMP_ReadWriteStrobePortDisable
                0x00000000       0x14 ..\..\..\..\..\..\..\..\microchip\harmony\v2_06\bin\framework\peripheral\PIC32MX130F064B_peripherals.a(peripheral.o)
 .text.PLIB_PMP_ExistsChipSelectoperation
                0x00000000        0x8 ..\..\..\..\..\..\..\..\microchip\harmony\v2_06\bin\framework\peripheral\PIC32MX130F064B_peripherals.a(peripheral.o)
 .text.PLIB_PMP_ChipSelectFunctionSelect
                0x00000000       0x18 ..\..\..\..\..\..\..\..\microchip\harmony\v2_06\bin\framework\peripheral\PIC32MX130F064B_peripherals.a(peripheral.o)
 .text.PLIB_PMP_ExistsAddressLatchPolarity
                0x00000000        0x8 ..\..\..\..\..\..\..\..\microchip\harmony\v2_06\bin\framework\peripheral\PIC32MX130F064B_peripherals.a(peripheral.o)
 .text.PLIB_PMP_AddressLatchPolaritySelect
                0x00000000       0x18 ..\..\..\..\..\..\..\..\microchip\harmony\v2_06\bin\framework\peripheral\PIC32MX130F064B_peripherals.a(peripheral.o)
 .text.PLIB_PMP_ExistsChipXPolarity
                0x00000000        0x8 ..\..\..\..\..\..\..\..\microchip\harmony\v2_06\bin\framework\peripheral\PIC32MX130F064B_peripherals.a(peripheral.o)
 .text.PLIB_PMP_ChipSelectXPolaritySelect
                0x00000000       0x34 ..\..\..\..\..\..\..\..\microchip\harmony\v2_06\bin\framework\peripheral\PIC32MX130F064B_peripherals.a(peripheral.o)
 .text.PLIB_PMP_ExistsWriteEnablePolarity
                0x00000000        0x8 ..\..\..\..\..\..\..\..\microchip\harmony\v2_06\bin\framework\peripheral\PIC32MX130F064B_peripherals.a(peripheral.o)
 .text.PLIB_PMP_WriteEnableStrobePolaritySelect
                0x00000000       0x18 ..\..\..\..\..\..\..\..\microchip\harmony\v2_06\bin\framework\peripheral\PIC32MX130F064B_peripherals.a(peripheral.o)
 .text.PLIB_PMP_ExistsReadWritePolarity
                0x00000000        0x8 ..\..\..\..\..\..\..\..\microchip\harmony\v2_06\bin\framework\peripheral\PIC32MX130F064B_peripherals.a(peripheral.o)
 .text.PLIB_PMP_ReadWriteStrobePolaritySelect
                0x00000000       0x18 ..\..\..\..\..\..\..\..\microchip\harmony\v2_06\bin\framework\peripheral\PIC32MX130F064B_peripherals.a(peripheral.o)
 .text.PLIB_PMP_ExistsBusyStatus
                0x00000000        0x8 ..\..\..\..\..\..\..\..\microchip\harmony\v2_06\bin\framework\peripheral\PIC32MX130F064B_peripherals.a(peripheral.o)
 .text.PLIB_PMP_PortIsBusy
                0x00000000       0x10 ..\..\..\..\..\..\..\..\microchip\harmony\v2_06\bin\framework\peripheral\PIC32MX130F064B_peripherals.a(peripheral.o)
 .text.PLIB_PMP_ExistsInterruptMode
                0x00000000        0x8 ..\..\..\..\..\..\..\..\microchip\harmony\v2_06\bin\framework\peripheral\PIC32MX130F064B_peripherals.a(peripheral.o)
 .text.PLIB_PMP_InterruptModeSelect
                0x00000000       0x18 ..\..\..\..\..\..\..\..\microchip\harmony\v2_06\bin\framework\peripheral\PIC32MX130F064B_peripherals.a(peripheral.o)
 .text.PLIB_PMP_InterruptModeGet
                0x00000000       0x10 ..\..\..\..\..\..\..\..\microchip\harmony\v2_06\bin\framework\peripheral\PIC32MX130F064B_peripherals.a(peripheral.o)
 .text.PLIB_PMP_ExistsIncrementMode
                0x00000000        0x8 ..\..\..\..\..\..\..\..\microchip\harmony\v2_06\bin\framework\peripheral\PIC32MX130F064B_peripherals.a(peripheral.o)
 .text.PLIB_PMP_AddressIncrementModeSelect
                0x00000000       0x18 ..\..\..\..\..\..\..\..\microchip\harmony\v2_06\bin\framework\peripheral\PIC32MX130F064B_peripherals.a(peripheral.o)
 .text.PLIB_PMP_AddressIncrementModeGet
                0x00000000       0x10 ..\..\..\..\..\..\..\..\microchip\harmony\v2_06\bin\framework\peripheral\PIC32MX130F064B_peripherals.a(peripheral.o)
 .text.PLIB_PMP_ExistsDataTransferSize
                0x00000000        0x8 ..\..\..\..\..\..\..\..\microchip\harmony\v2_06\bin\framework\peripheral\PIC32MX130F064B_peripherals.a(peripheral.o)
 .text.PLIB_PMP_DataSizeSelect
                0x00000000        0x8 ..\..\..\..\..\..\..\..\microchip\harmony\v2_06\bin\framework\peripheral\PIC32MX130F064B_peripherals.a(peripheral.o)
 .text.PLIB_PMP_ExistsOperationMode
                0x00000000        0x8 ..\..\..\..\..\..\..\..\microchip\harmony\v2_06\bin\framework\peripheral\PIC32MX130F064B_peripherals.a(peripheral.o)
 .text.PLIB_PMP_OperationModeSelect
                0x00000000       0x18 ..\..\..\..\..\..\..\..\microchip\harmony\v2_06\bin\framework\peripheral\PIC32MX130F064B_peripherals.a(peripheral.o)
 .text.PLIB_PMP_OperationModeGet
                0x00000000       0x10 ..\..\..\..\..\..\..\..\microchip\harmony\v2_06\bin\framework\peripheral\PIC32MX130F064B_peripherals.a(peripheral.o)
 .text.PLIB_PMP_ExistsDataSetUpWaitStates
                0x00000000        0x8 ..\..\..\..\..\..\..\..\microchip\harmony\v2_06\bin\framework\peripheral\PIC32MX130F064B_peripherals.a(peripheral.o)
 .text.PLIB_PMP_WaitStatesDataSetUpSelect
                0x00000000       0x18 ..\..\..\..\..\..\..\..\microchip\harmony\v2_06\bin\framework\peripheral\PIC32MX130F064B_peripherals.a(peripheral.o)
 .text.PLIB_PMP_ExistsDataStrobeWaitStates
                0x00000000        0x8 ..\..\..\..\..\..\..\..\microchip\harmony\v2_06\bin\framework\peripheral\PIC32MX130F064B_peripherals.a(peripheral.o)
 .text.PLIB_PMP_WaitStatesStrobeSelect
                0x00000000       0x18 ..\..\..\..\..\..\..\..\microchip\harmony\v2_06\bin\framework\peripheral\PIC32MX130F064B_peripherals.a(peripheral.o)
 .text.PLIB_PMP_ExistsDataHoldWaitStates
                0x00000000        0x8 ..\..\..\..\..\..\..\..\microchip\harmony\v2_06\bin\framework\peripheral\PIC32MX130F064B_peripherals.a(peripheral.o)
 .text.PLIB_PMP_WaitStatesDataHoldSelect
                0x00000000       0x18 ..\..\..\..\..\..\..\..\microchip\harmony\v2_06\bin\framework\peripheral\PIC32MX130F064B_peripherals.a(peripheral.o)
 .text.PLIB_PMP_ExistsChipSelectEnable
                0x00000000        0x8 ..\..\..\..\..\..\..\..\microchip\harmony\v2_06\bin\framework\peripheral\PIC32MX130F064B_peripherals.a(peripheral.o)
 .text.PLIB_PMP_ChipSelectXEnable
                0x00000000       0x18 ..\..\..\..\..\..\..\..\microchip\harmony\v2_06\bin\framework\peripheral\PIC32MX130F064B_peripherals.a(peripheral.o)
 .text.PLIB_PMP_ChipSelectXDisable
                0x00000000       0x18 ..\..\..\..\..\..\..\..\microchip\harmony\v2_06\bin\framework\peripheral\PIC32MX130F064B_peripherals.a(peripheral.o)
 .text.PLIB_PMP_ExistsWriteChipSelectEnable
                0x00000000        0x8 ..\..\..\..\..\..\..\..\microchip\harmony\v2_06\bin\framework\peripheral\PIC32MX130F064B_peripherals.a(peripheral.o)
 .text.PLIB_PMP_WriteChipSelectXEnable
                0x00000000        0x8 ..\..\..\..\..\..\..\..\microchip\harmony\v2_06\bin\framework\peripheral\PIC32MX130F064B_peripherals.a(peripheral.o)
 .text.PLIB_PMP_WriteChipSelectXDisable
                0x00000000        0x8 ..\..\..\..\..\..\..\..\microchip\harmony\v2_06\bin\framework\peripheral\PIC32MX130F064B_peripherals.a(peripheral.o)
 .text.PLIB_PMP_ExistsReadChipSelectEnable
                0x00000000        0x8 ..\..\..\..\..\..\..\..\microchip\harmony\v2_06\bin\framework\peripheral\PIC32MX130F064B_peripherals.a(peripheral.o)
 .text.PLIB_PMP_ReadChipSelectXEnable
                0x00000000        0x8 ..\..\..\..\..\..\..\..\microchip\harmony\v2_06\bin\framework\peripheral\PIC32MX130F064B_peripherals.a(peripheral.o)
 .text.PLIB_PMP_ReadChipSelectXDisable
                0x00000000        0x8 ..\..\..\..\..\..\..\..\microchip\harmony\v2_06\bin\framework\peripheral\PIC32MX130F064B_peripherals.a(peripheral.o)
 .text.PLIB_PMP_ExistsAddressControl
                0x00000000        0x8 ..\..\..\..\..\..\..\..\microchip\harmony\v2_06\bin\framework\peripheral\PIC32MX130F064B_peripherals.a(peripheral.o)
 .text.PLIB_PMP_AddressSet
                0x00000000       0x10 ..\..\..\..\..\..\..\..\microchip\harmony\v2_06\bin\framework\peripheral\PIC32MX130F064B_peripherals.a(peripheral.o)
 .text.PLIB_PMP_AddressGet
                0x00000000       0x10 ..\..\..\..\..\..\..\..\microchip\harmony\v2_06\bin\framework\peripheral\PIC32MX130F064B_peripherals.a(peripheral.o)
 .text.PLIB_PMP_AddressLinesA0A1Set
                0x00000000       0x20 ..\..\..\..\..\..\..\..\microchip\harmony\v2_06\bin\framework\peripheral\PIC32MX130F064B_peripherals.a(peripheral.o)
 .text.PLIB_PMP_AddressLinesA0A1Get
                0x00000000       0x10 ..\..\..\..\..\..\..\..\microchip\harmony\v2_06\bin\framework\peripheral\PIC32MX130F064B_peripherals.a(peripheral.o)
 .text.PLIB_PMP_ExistsDualModeWriteAddressControl
                0x00000000        0x8 ..\..\..\..\..\..\..\..\microchip\harmony\v2_06\bin\framework\peripheral\PIC32MX130F064B_peripherals.a(peripheral.o)
 .text.PLIB_PMP_DualModeWriteAddressSet
                0x00000000        0x8 ..\..\..\..\..\..\..\..\microchip\harmony\v2_06\bin\framework\peripheral\PIC32MX130F064B_peripherals.a(peripheral.o)
 .text.PLIB_PMP_DualModeWriteAddressGet
                0x00000000        0x8 ..\..\..\..\..\..\..\..\microchip\harmony\v2_06\bin\framework\peripheral\PIC32MX130F064B_peripherals.a(peripheral.o)
 .text.PLIB_PMP_ExistsDualModeReadAddressControl
                0x00000000        0x8 ..\..\..\..\..\..\..\..\microchip\harmony\v2_06\bin\framework\peripheral\PIC32MX130F064B_peripherals.a(peripheral.o)
 .text.PLIB_PMP_DualModeReadAddressSet
                0x00000000        0x8 ..\..\..\..\..\..\..\..\microchip\harmony\v2_06\bin\framework\peripheral\PIC32MX130F064B_peripherals.a(peripheral.o)
 .text.PLIB_PMP_DualModeReadAddressGet
                0x00000000        0x8 ..\..\..\..\..\..\..\..\microchip\harmony\v2_06\bin\framework\peripheral\PIC32MX130F064B_peripherals.a(peripheral.o)
 .text.PLIB_PMP_ExistsAddressPortPinControl
                0x00000000        0x8 ..\..\..\..\..\..\..\..\microchip\harmony\v2_06\bin\framework\peripheral\PIC32MX130F064B_peripherals.a(peripheral.o)
 .text.PLIB_PMP_AddressPortEnable
                0x00000000       0x14 ..\..\..\..\..\..\..\..\microchip\harmony\v2_06\bin\framework\peripheral\PIC32MX130F064B_peripherals.a(peripheral.o)
 .text.PLIB_PMP_AddressPortDisable
                0x00000000       0x14 ..\..\..\..\..\..\..\..\microchip\harmony\v2_06\bin\framework\peripheral\PIC32MX130F064B_peripherals.a(peripheral.o)
 .text.PLIB_PMP_ExistsAddressLatchStrobePortControl
                0x00000000        0x8 ..\..\..\..\..\..\..\..\microchip\harmony\v2_06\bin\framework\peripheral\PIC32MX130F064B_peripherals.a(peripheral.o)
 .text.PLIB_PMP_AddressLatchStrobeEnable
                0x00000000       0x14 ..\..\..\..\..\..\..\..\microchip\harmony\v2_06\bin\framework\peripheral\PIC32MX130F064B_peripherals.a(peripheral.o)
 .text.PLIB_PMP_AddressLatchStrobeDisable
                0x00000000       0x14 ..\..\..\..\..\..\..\..\microchip\harmony\v2_06\bin\framework\peripheral\PIC32MX130F064B_peripherals.a(peripheral.o)
 .text.PLIB_PMP_ExistsInputBufferFull
                0x00000000        0x8 ..\..\..\..\..\..\..\..\microchip\harmony\v2_06\bin\framework\peripheral\PIC32MX130F064B_peripherals.a(peripheral.o)
 .text.PLIB_PMP_InputBuffersAreFull
                0x00000000       0x10 ..\..\..\..\..\..\..\..\microchip\harmony\v2_06\bin\framework\peripheral\PIC32MX130F064B_peripherals.a(peripheral.o)
 .text.PLIB_PMP_ExistsBufferOverFlow
                0x00000000        0x8 ..\..\..\..\..\..\..\..\microchip\harmony\v2_06\bin\framework\peripheral\PIC32MX130F064B_peripherals.a(peripheral.o)
 .text.PLIB_PMP_InputOverflowHasOccurred
                0x00000000       0x10 ..\..\..\..\..\..\..\..\microchip\harmony\v2_06\bin\framework\peripheral\PIC32MX130F064B_peripherals.a(peripheral.o)
 .text.PLIB_PMP_InputOverflowClear
                0x00000000       0x14 ..\..\..\..\..\..\..\..\microchip\harmony\v2_06\bin\framework\peripheral\PIC32MX130F064B_peripherals.a(peripheral.o)
 .text.PLIB_PMP_ExistsInputBufferXStatus
                0x00000000        0x8 ..\..\..\..\..\..\..\..\microchip\harmony\v2_06\bin\framework\peripheral\PIC32MX130F064B_peripherals.a(peripheral.o)
 .text.PLIB_PMP_InputBufferXIsFull
                0x00000000       0x24 ..\..\..\..\..\..\..\..\microchip\harmony\v2_06\bin\framework\peripheral\PIC32MX130F064B_peripherals.a(peripheral.o)
 .text.PLIB_PMP_IsDataReceived
                0x00000000       0x24 ..\..\..\..\..\..\..\..\microchip\harmony\v2_06\bin\framework\peripheral\PIC32MX130F064B_peripherals.a(peripheral.o)
 .text.PLIB_PMP_ExistsOutPutBufferEmpty
                0x00000000        0x8 ..\..\..\..\..\..\..\..\microchip\harmony\v2_06\bin\framework\peripheral\PIC32MX130F064B_peripherals.a(peripheral.o)
 .text.PLIB_PMP_OutputBuffersAreEmpty
                0x00000000       0x10 ..\..\..\..\..\..\..\..\microchip\harmony\v2_06\bin\framework\peripheral\PIC32MX130F064B_peripherals.a(peripheral.o)
 .text.PLIB_PMP_ExistsBufferUnderFlow
                0x00000000        0x8 ..\..\..\..\..\..\..\..\microchip\harmony\v2_06\bin\framework\peripheral\PIC32MX130F064B_peripherals.a(peripheral.o)
 .text.PLIB_PMP_OutputUnderflowHasOccurred
                0x00000000       0x10 ..\..\..\..\..\..\..\..\microchip\harmony\v2_06\bin\framework\peripheral\PIC32MX130F064B_peripherals.a(peripheral.o)
 .text.PLIB_PMP_OutputUnderflowClear
                0x00000000       0x14 ..\..\..\..\..\..\..\..\microchip\harmony\v2_06\bin\framework\peripheral\PIC32MX130F064B_peripherals.a(peripheral.o)
 .text.PLIB_PMP_ExistsOutputBufferXStatus
                0x00000000        0x8 ..\..\..\..\..\..\..\..\microchip\harmony\v2_06\bin\framework\peripheral\PIC32MX130F064B_peripherals.a(peripheral.o)
 .text.PLIB_PMP_OutputBufferXIsEmpty
                0x00000000       0x14 ..\..\..\..\..\..\..\..\microchip\harmony\v2_06\bin\framework\peripheral\PIC32MX130F064B_peripherals.a(peripheral.o)
 .text.PLIB_PMP_IsDataTransmitted
                0x00000000       0x14 ..\..\..\..\..\..\..\..\microchip\harmony\v2_06\bin\framework\peripheral\PIC32MX130F064B_peripherals.a(peripheral.o)
 .text.PLIB_PMP_ExistsBufferRead
                0x00000000        0x8 ..\..\..\..\..\..\..\..\microchip\harmony\v2_06\bin\framework\peripheral\PIC32MX130F064B_peripherals.a(peripheral.o)
 .text.PLIB_PMP_InputBufferXByteReceive
                0x00000000       0x24 ..\..\..\..\..\..\..\..\microchip\harmony\v2_06\bin\framework\peripheral\PIC32MX130F064B_peripherals.a(peripheral.o)
 .text.PLIB_PMP_ExistsBufferWrite
                0x00000000        0x8 ..\..\..\..\..\..\..\..\microchip\harmony\v2_06\bin\framework\peripheral\PIC32MX130F064B_peripherals.a(peripheral.o)
 .text.PLIB_PMP_OutputBufferXByteSend
                0x00000000       0x34 ..\..\..\..\..\..\..\..\microchip\harmony\v2_06\bin\framework\peripheral\PIC32MX130F064B_peripherals.a(peripheral.o)
 .text.PLIB_PMP_ExistsMasterRXTX
                0x00000000        0x8 ..\..\..\..\..\..\..\..\microchip\harmony\v2_06\bin\framework\peripheral\PIC32MX130F064B_peripherals.a(peripheral.o)
 .text.PLIB_PMP_MasterSend
                0x00000000       0x10 ..\..\..\..\..\..\..\..\microchip\harmony\v2_06\bin\framework\peripheral\PIC32MX130F064B_peripherals.a(peripheral.o)
 .text.PLIB_PMP_MasterReceive
                0x00000000       0x10 ..\..\..\..\..\..\..\..\microchip\harmony\v2_06\bin\framework\peripheral\PIC32MX130F064B_peripherals.a(peripheral.o)
 .text.PLIB_PMP_ExistsDualModeMasterRXTX
                0x00000000        0x8 ..\..\..\..\..\..\..\..\microchip\harmony\v2_06\bin\framework\peripheral\PIC32MX130F064B_peripherals.a(peripheral.o)
 .text.PLIB_PMP_DualModeMasterSend
                0x00000000        0x8 ..\..\..\..\..\..\..\..\microchip\harmony\v2_06\bin\framework\peripheral\PIC32MX130F064B_peripherals.a(peripheral.o)
 .text.PLIB_PMP_DualModeMasterReceive
                0x00000000        0x8 ..\..\..\..\..\..\..\..\microchip\harmony\v2_06\bin\framework\peripheral\PIC32MX130F064B_peripherals.a(peripheral.o)
 .text.PLIB_PMP_ExistsSlaveTX
                0x00000000        0x8 ..\..\..\..\..\..\..\..\microchip\harmony\v2_06\bin\framework\peripheral\PIC32MX130F064B_peripherals.a(peripheral.o)
 .text.PLIB_PMP_SlaveSend
                0x00000000       0x10 ..\..\..\..\..\..\..\..\microchip\harmony\v2_06\bin\framework\peripheral\PIC32MX130F064B_peripherals.a(peripheral.o)
 .text.PLIB_PMP_ExistsSlaveRX
                0x00000000        0x8 ..\..\..\..\..\..\..\..\microchip\harmony\v2_06\bin\framework\peripheral\PIC32MX130F064B_peripherals.a(peripheral.o)
 .text.PLIB_PMP_SlaveReceive
                0x00000000       0x10 ..\..\..\..\..\..\..\..\microchip\harmony\v2_06\bin\framework\peripheral\PIC32MX130F064B_peripherals.a(peripheral.o)
 .text.PLIB_PMP_ExistsCSXActiveStatus
                0x00000000        0x8 ..\..\..\..\..\..\..\..\microchip\harmony\v2_06\bin\framework\peripheral\PIC32MX130F064B_peripherals.a(peripheral.o)
 .text.PLIB_PMP_ChipSelectXIsActive
                0x00000000       0x1c ..\..\..\..\..\..\..\..\microchip\harmony\v2_06\bin\framework\peripheral\PIC32MX130F064B_peripherals.a(peripheral.o)
 .text.PLIB_PORTS_ExistsRemapInput
                0x00000000        0x8 ..\..\..\..\..\..\..\..\microchip\harmony\v2_06\bin\framework\peripheral\PIC32MX130F064B_peripherals.a(peripheral.o)
 .text.PLIB_PORTS_ExistsRemapOutput
                0x00000000        0x8 ..\..\..\..\..\..\..\..\microchip\harmony\v2_06\bin\framework\peripheral\PIC32MX130F064B_peripherals.a(peripheral.o)
 .text.PLIB_PORTS_PinModeSelect
                0x00000000       0x54 ..\..\..\..\..\..\..\..\microchip\harmony\v2_06\bin\framework\peripheral\PIC32MX130F064B_peripherals.a(peripheral.o)
 .text.PLIB_PORTS_ExistsPinMode
                0x00000000        0x8 ..\..\..\..\..\..\..\..\microchip\harmony\v2_06\bin\framework\peripheral\PIC32MX130F064B_peripherals.a(peripheral.o)
 .text.PLIB_PORTS_AnPinsModeSelect
                0x00000000        0x8 ..\..\..\..\..\..\..\..\microchip\harmony\v2_06\bin\framework\peripheral\PIC32MX130F064B_peripherals.a(peripheral.o)
 .text.PLIB_PORTS_ExistsAnPinsMode
                0x00000000        0x8 ..\..\..\..\..\..\..\..\microchip\harmony\v2_06\bin\framework\peripheral\PIC32MX130F064B_peripherals.a(peripheral.o)
 .text.PLIB_PORTS_PinGet
                0x00000000       0x24 ..\..\..\..\..\..\..\..\microchip\harmony\v2_06\bin\framework\peripheral\PIC32MX130F064B_peripherals.a(peripheral.o)
 .text.PLIB_PORTS_Read
                0x00000000       0x20 ..\..\..\..\..\..\..\..\microchip\harmony\v2_06\bin\framework\peripheral\PIC32MX130F064B_peripherals.a(peripheral.o)
 .text.PLIB_PORTS_ExistsPortsRead
                0x00000000        0x8 ..\..\..\..\..\..\..\..\microchip\harmony\v2_06\bin\framework\peripheral\PIC32MX130F064B_peripherals.a(peripheral.o)
 .text.PLIB_PORTS_PinGetLatched
                0x00000000       0x24 ..\..\..\..\..\..\..\..\microchip\harmony\v2_06\bin\framework\peripheral\PIC32MX130F064B_peripherals.a(peripheral.o)
 .text.PLIB_PORTS_ReadLatched
                0x00000000       0x20 ..\..\..\..\..\..\..\..\microchip\harmony\v2_06\bin\framework\peripheral\PIC32MX130F064B_peripherals.a(peripheral.o)
 .text.PLIB_PORTS_ExistsLatchRead
                0x00000000        0x8 ..\..\..\..\..\..\..\..\microchip\harmony\v2_06\bin\framework\peripheral\PIC32MX130F064B_peripherals.a(peripheral.o)
 .text.PLIB_PORTS_PinWrite
                0x00000000       0x50 ..\..\..\..\..\..\..\..\microchip\harmony\v2_06\bin\framework\peripheral\PIC32MX130F064B_peripherals.a(peripheral.o)
 .text.PLIB_PORTS_PinSet
                0x00000000       0x28 ..\..\..\..\..\..\..\..\microchip\harmony\v2_06\bin\framework\peripheral\PIC32MX130F064B_peripherals.a(peripheral.o)
 .text.PLIB_PORTS_PinClear
                0x00000000       0x28 ..\..\..\..\..\..\..\..\microchip\harmony\v2_06\bin\framework\peripheral\PIC32MX130F064B_peripherals.a(peripheral.o)
 .text.PLIB_PORTS_PinToggle
                0x00000000       0x28 ..\..\..\..\..\..\..\..\microchip\harmony\v2_06\bin\framework\peripheral\PIC32MX130F064B_peripherals.a(peripheral.o)
 .text.PLIB_PORTS_Set
                0x00000000       0x24 ..\..\..\..\..\..\..\..\microchip\harmony\v2_06\bin\framework\peripheral\PIC32MX130F064B_peripherals.a(peripheral.o)
 .text.PLIB_PORTS_Toggle
                0x00000000       0x20 ..\..\..\..\..\..\..\..\microchip\harmony\v2_06\bin\framework\peripheral\PIC32MX130F064B_peripherals.a(peripheral.o)
 .text.PLIB_PORTS_Clear
                0x00000000       0x20 ..\..\..\..\..\..\..\..\microchip\harmony\v2_06\bin\framework\peripheral\PIC32MX130F064B_peripherals.a(peripheral.o)
 .text.PLIB_PORTS_ExistsPortsWrite
                0x00000000        0x8 ..\..\..\..\..\..\..\..\microchip\harmony\v2_06\bin\framework\peripheral\PIC32MX130F064B_peripherals.a(peripheral.o)
 .text.PLIB_PORTS_PinDirectionInputSet
                0x00000000       0x28 ..\..\..\..\..\..\..\..\microchip\harmony\v2_06\bin\framework\peripheral\PIC32MX130F064B_peripherals.a(peripheral.o)
 .text.PLIB_PORTS_PinDirectionOutputSet
                0x00000000       0x28 ..\..\..\..\..\..\..\..\microchip\harmony\v2_06\bin\framework\peripheral\PIC32MX130F064B_peripherals.a(peripheral.o)
 .text.PLIB_PORTS_DirectionInputSet
                0x00000000       0x20 ..\..\..\..\..\..\..\..\microchip\harmony\v2_06\bin\framework\peripheral\PIC32MX130F064B_peripherals.a(peripheral.o)
 .text.PLIB_PORTS_DirectionGet
                0x00000000       0x20 ..\..\..\..\..\..\..\..\microchip\harmony\v2_06\bin\framework\peripheral\PIC32MX130F064B_peripherals.a(peripheral.o)
 .text.PLIB_PORTS_ExistsPortsDirection
                0x00000000        0x8 ..\..\..\..\..\..\..\..\microchip\harmony\v2_06\bin\framework\peripheral\PIC32MX130F064B_peripherals.a(peripheral.o)
 .text.PLIB_PORTS_PinOpenDrainEnable
                0x00000000       0x28 ..\..\..\..\..\..\..\..\microchip\harmony\v2_06\bin\framework\peripheral\PIC32MX130F064B_peripherals.a(peripheral.o)
 .text.PLIB_PORTS_PinOpenDrainDisable
                0x00000000       0x28 ..\..\..\..\..\..\..\..\microchip\harmony\v2_06\bin\framework\peripheral\PIC32MX130F064B_peripherals.a(peripheral.o)
 .text.PLIB_PORTS_OpenDrainDisable
                0x00000000       0x20 ..\..\..\..\..\..\..\..\microchip\harmony\v2_06\bin\framework\peripheral\PIC32MX130F064B_peripherals.a(peripheral.o)
 .text.PLIB_PORTS_ExistsPortsOpenDrain
                0x00000000        0x8 ..\..\..\..\..\..\..\..\microchip\harmony\v2_06\bin\framework\peripheral\PIC32MX130F064B_peripherals.a(peripheral.o)
 .text.PLIB_PORTS_ChangeNoticeEnable
                0x00000000        0x8 ..\..\..\..\..\..\..\..\microchip\harmony\v2_06\bin\framework\peripheral\PIC32MX130F064B_peripherals.a(peripheral.o)
 .text.PLIB_PORTS_ChangeNoticeDisable
                0x00000000        0x8 ..\..\..\..\..\..\..\..\microchip\harmony\v2_06\bin\framework\peripheral\PIC32MX130F064B_peripherals.a(peripheral.o)
 .text.PLIB_PORTS_ExistsChangeNotice
                0x00000000        0x8 ..\..\..\..\..\..\..\..\microchip\harmony\v2_06\bin\framework\peripheral\PIC32MX130F064B_peripherals.a(peripheral.o)
 .text.PLIB_PORTS_PinChangeNoticeEnable
                0x00000000        0x8 ..\..\..\..\..\..\..\..\microchip\harmony\v2_06\bin\framework\peripheral\PIC32MX130F064B_peripherals.a(peripheral.o)
 .text.PLIB_PORTS_PinChangeNoticeDisable
                0x00000000        0x8 ..\..\..\..\..\..\..\..\microchip\harmony\v2_06\bin\framework\peripheral\PIC32MX130F064B_peripherals.a(peripheral.o)
 .text.PLIB_PORTS_CnPinsEnable
                0x00000000        0x8 ..\..\..\..\..\..\..\..\microchip\harmony\v2_06\bin\framework\peripheral\PIC32MX130F064B_peripherals.a(peripheral.o)
 .text.PLIB_PORTS_CnPinsDisable
                0x00000000        0x8 ..\..\..\..\..\..\..\..\microchip\harmony\v2_06\bin\framework\peripheral\PIC32MX130F064B_peripherals.a(peripheral.o)
 .text.PLIB_PORTS_ExistsPinChangeNotice
                0x00000000        0x8 ..\..\..\..\..\..\..\..\microchip\harmony\v2_06\bin\framework\peripheral\PIC32MX130F064B_peripherals.a(peripheral.o)
 .text.PLIB_PORTS_ChangeNoticeInIdleEnable
                0x00000000        0x8 ..\..\..\..\..\..\..\..\microchip\harmony\v2_06\bin\framework\peripheral\PIC32MX130F064B_peripherals.a(peripheral.o)
 .text.PLIB_PORTS_ChangeNoticeInIdleDisable
                0x00000000        0x8 ..\..\..\..\..\..\..\..\microchip\harmony\v2_06\bin\framework\peripheral\PIC32MX130F064B_peripherals.a(peripheral.o)
 .text.PLIB_PORTS_ExistsChangeNoticeInIdle
                0x00000000        0x8 ..\..\..\..\..\..\..\..\microchip\harmony\v2_06\bin\framework\peripheral\PIC32MX130F064B_peripherals.a(peripheral.o)
 .text.PLIB_PORTS_ChangeNoticePullUpEnable
                0x00000000        0x8 ..\..\..\..\..\..\..\..\microchip\harmony\v2_06\bin\framework\peripheral\PIC32MX130F064B_peripherals.a(peripheral.o)
 .text.PLIB_PORTS_ChangeNoticePullUpDisable
                0x00000000        0x8 ..\..\..\..\..\..\..\..\microchip\harmony\v2_06\bin\framework\peripheral\PIC32MX130F064B_peripherals.a(peripheral.o)
 .text.PLIB_PORTS_CnPinsPullUpEnable
                0x00000000        0x8 ..\..\..\..\..\..\..\..\microchip\harmony\v2_06\bin\framework\peripheral\PIC32MX130F064B_peripherals.a(peripheral.o)
 .text.PLIB_PORTS_CnPinsPullUpDisable
                0x00000000        0x8 ..\..\..\..\..\..\..\..\microchip\harmony\v2_06\bin\framework\peripheral\PIC32MX130F064B_peripherals.a(peripheral.o)
 .text.PLIB_PORTS_ExistsChangeNoticePullUp
                0x00000000        0x8 ..\..\..\..\..\..\..\..\microchip\harmony\v2_06\bin\framework\peripheral\PIC32MX130F064B_peripherals.a(peripheral.o)
 .text.PLIB_PORTS_PinModePerPortSelect
                0x00000000       0x50 ..\..\..\..\..\..\..\..\microchip\harmony\v2_06\bin\framework\peripheral\PIC32MX130F064B_peripherals.a(peripheral.o)
 .text.PLIB_PORTS_ExistsPinModePerPort
                0x00000000        0x8 ..\..\..\..\..\..\..\..\microchip\harmony\v2_06\bin\framework\peripheral\PIC32MX130F064B_peripherals.a(peripheral.o)
 .text.PLIB_PORTS_ChangeNoticePullDownPerPortEnable
                0x00000000       0x28 ..\..\..\..\..\..\..\..\microchip\harmony\v2_06\bin\framework\peripheral\PIC32MX130F064B_peripherals.a(peripheral.o)
 .text.PLIB_PORTS_ChangeNoticePullDownPerPortDisable
                0x00000000       0x28 ..\..\..\..\..\..\..\..\microchip\harmony\v2_06\bin\framework\peripheral\PIC32MX130F064B_peripherals.a(peripheral.o)
 .text.PLIB_PORTS_ChannelChangeNoticePullDownDisable
                0x00000000       0x20 ..\..\..\..\..\..\..\..\microchip\harmony\v2_06\bin\framework\peripheral\PIC32MX130F064B_peripherals.a(peripheral.o)
 .text.PLIB_PORTS_ExistsChangeNoticePullDownPerPort
                0x00000000        0x8 ..\..\..\..\..\..\..\..\microchip\harmony\v2_06\bin\framework\peripheral\PIC32MX130F064B_peripherals.a(peripheral.o)
 .text.PLIB_PORTS_ChangeNoticePullUpPerPortEnable
                0x00000000       0x28 ..\..\..\..\..\..\..\..\microchip\harmony\v2_06\bin\framework\peripheral\PIC32MX130F064B_peripherals.a(peripheral.o)
 .text.PLIB_PORTS_ChangeNoticePullUpPerPortDisable
                0x00000000       0x28 ..\..\..\..\..\..\..\..\microchip\harmony\v2_06\bin\framework\peripheral\PIC32MX130F064B_peripherals.a(peripheral.o)
 .text.PLIB_PORTS_ChannelChangeNoticePullUpDisable
                0x00000000       0x20 ..\..\..\..\..\..\..\..\microchip\harmony\v2_06\bin\framework\peripheral\PIC32MX130F064B_peripherals.a(peripheral.o)
 .text.PLIB_PORTS_ExistsChangeNoticePullUpPerPort
                0x00000000        0x8 ..\..\..\..\..\..\..\..\microchip\harmony\v2_06\bin\framework\peripheral\PIC32MX130F064B_peripherals.a(peripheral.o)
 .text.PLIB_PORTS_PinChangeNoticePerPortEnable
                0x00000000       0x28 ..\..\..\..\..\..\..\..\microchip\harmony\v2_06\bin\framework\peripheral\PIC32MX130F064B_peripherals.a(peripheral.o)
 .text.PLIB_PORTS_PinChangeNoticePerPortDisable
                0x00000000       0x28 ..\..\..\..\..\..\..\..\microchip\harmony\v2_06\bin\framework\peripheral\PIC32MX130F064B_peripherals.a(peripheral.o)
 .text.PLIB_PORTS_ChannelChangeNoticeDisable
                0x00000000       0x20 ..\..\..\..\..\..\..\..\microchip\harmony\v2_06\bin\framework\peripheral\PIC32MX130F064B_peripherals.a(peripheral.o)
 .text.PLIB_PORTS_ExistsPinChangeNoticePerPort
                0x00000000        0x8 ..\..\..\..\..\..\..\..\microchip\harmony\v2_06\bin\framework\peripheral\PIC32MX130F064B_peripherals.a(peripheral.o)
 .text.PLIB_PORTS_ChangeNoticePerPortTurnOff
                0x00000000       0x24 ..\..\..\..\..\..\..\..\microchip\harmony\v2_06\bin\framework\peripheral\PIC32MX130F064B_peripherals.a(peripheral.o)
 .text.PLIB_PORTS_ExistsChangeNoticePerPortTurnOn
                0x00000000        0x8 ..\..\..\..\..\..\..\..\microchip\harmony\v2_06\bin\framework\peripheral\PIC32MX130F064B_peripherals.a(peripheral.o)
 .text.PLIB_PORTS_ChangeNoticeInIdlePerPortEnable
                0x00000000       0x24 ..\..\..\..\..\..\..\..\microchip\harmony\v2_06\bin\framework\peripheral\PIC32MX130F064B_peripherals.a(peripheral.o)
 .text.PLIB_PORTS_ChangeNoticeInIdlePerPortDisable
                0x00000000       0x24 ..\..\..\..\..\..\..\..\microchip\harmony\v2_06\bin\framework\peripheral\PIC32MX130F064B_peripherals.a(peripheral.o)
 .text.PLIB_PORTS_ExistsChangeNoticePerPortInIdle
                0x00000000        0x8 ..\..\..\..\..\..\..\..\microchip\harmony\v2_06\bin\framework\peripheral\PIC32MX130F064B_peripherals.a(peripheral.o)
 .text.PLIB_PORTS_ChangeNoticePerPortHasOccurred
                0x00000000       0x24 ..\..\..\..\..\..\..\..\microchip\harmony\v2_06\bin\framework\peripheral\PIC32MX130F064B_peripherals.a(peripheral.o)
 .text.PLIB_PORTS_ExistsChangeNoticePerPortStatus
                0x00000000        0x8 ..\..\..\..\..\..\..\..\microchip\harmony\v2_06\bin\framework\peripheral\PIC32MX130F064B_peripherals.a(peripheral.o)
 .text.PLIB_PORTS_ChannelSlewRateSelect
                0x00000000        0x8 ..\..\..\..\..\..\..\..\microchip\harmony\v2_06\bin\framework\peripheral\PIC32MX130F064B_peripherals.a(peripheral.o)
 .text.PLIB_PORTS_PinSlewRateGet
                0x00000000        0x8 ..\..\..\..\..\..\..\..\microchip\harmony\v2_06\bin\framework\peripheral\PIC32MX130F064B_peripherals.a(peripheral.o)
 .text.PLIB_PORTS_ExistsSlewRateControl
                0x00000000        0x8 ..\..\..\..\..\..\..\..\microchip\harmony\v2_06\bin\framework\peripheral\PIC32MX130F064B_peripherals.a(peripheral.o)
 .text.PLIB_PORTS_ChannelChangeNoticeMethodSelect
                0x00000000        0x8 ..\..\..\..\..\..\..\..\microchip\harmony\v2_06\bin\framework\peripheral\PIC32MX130F064B_peripherals.a(peripheral.o)
 .text.PLIB_PORTS_ChannelChangeNoticeMethodGet
                0x00000000        0x8 ..\..\..\..\..\..\..\..\microchip\harmony\v2_06\bin\framework\peripheral\PIC32MX130F064B_peripherals.a(peripheral.o)
 .text.PLIB_PORTS_ExistsChannelChangeNoticeMethod
                0x00000000        0x8 ..\..\..\..\..\..\..\..\microchip\harmony\v2_06\bin\framework\peripheral\PIC32MX130F064B_peripherals.a(peripheral.o)
 .text.PLIB_PORTS_ChannelChangeNoticeEdgeEnable
                0x00000000        0x8 ..\..\..\..\..\..\..\..\microchip\harmony\v2_06\bin\framework\peripheral\PIC32MX130F064B_peripherals.a(peripheral.o)
 .text.PLIB_PORTS_ChannelChangeNoticeEdgeDisable
                0x00000000        0x8 ..\..\..\..\..\..\..\..\microchip\harmony\v2_06\bin\framework\peripheral\PIC32MX130F064B_peripherals.a(peripheral.o)
 .text.PLIB_PORTS_PinChangeNoticeEdgeIsEnabled
                0x00000000        0x8 ..\..\..\..\..\..\..\..\microchip\harmony\v2_06\bin\framework\peripheral\PIC32MX130F064B_peripherals.a(peripheral.o)
 .text.PLIB_PORTS_ExistsChangeNoticeEdgeControl
                0x00000000        0x8 ..\..\..\..\..\..\..\..\microchip\harmony\v2_06\bin\framework\peripheral\PIC32MX130F064B_peripherals.a(peripheral.o)
 .text.PLIB_PORTS_PinChangeNoticeEdgeHasOccurred
                0x00000000        0x8 ..\..\..\..\..\..\..\..\microchip\harmony\v2_06\bin\framework\peripheral\PIC32MX130F064B_peripherals.a(peripheral.o)
 .text.PLIB_PORTS_ExistsChangeNoticeEdgeStatus
                0x00000000        0x8 ..\..\..\..\..\..\..\..\microchip\harmony\v2_06\bin\framework\peripheral\PIC32MX130F064B_peripherals.a(peripheral.o)
 .text.PLIB_POWER_ExistsPeripheralModuleControl
                0x00000000        0x8 ..\..\..\..\..\..\..\..\microchip\harmony\v2_06\bin\framework\peripheral\PIC32MX130F064B_peripherals.a(peripheral.o)
 .text.PLIB_POWER_PeripheralModuleDisable
                0x00000000       0x30 ..\..\..\..\..\..\..\..\microchip\harmony\v2_06\bin\framework\peripheral\PIC32MX130F064B_peripherals.a(peripheral.o)
 .text.PLIB_POWER_PeripheralModuleEnable
                0x00000000       0x34 ..\..\..\..\..\..\..\..\microchip\harmony\v2_06\bin\framework\peripheral\PIC32MX130F064B_peripherals.a(peripheral.o)
 .text.PLIB_POWER_PeripheralModuleIsEnabled
                0x00000000       0x28 ..\..\..\..\..\..\..\..\microchip\harmony\v2_06\bin\framework\peripheral\PIC32MX130F064B_peripherals.a(peripheral.o)
 .text.PLIB_POWER_ExistsVoltageRegulatorControl
                0x00000000        0x8 ..\..\..\..\..\..\..\..\microchip\harmony\v2_06\bin\framework\peripheral\PIC32MX130F064B_peripherals.a(peripheral.o)
 .text.PLIB_POWER_VoltageRegulatorEnable
                0x00000000       0x14 ..\..\..\..\..\..\..\..\microchip\harmony\v2_06\bin\framework\peripheral\PIC32MX130F064B_peripherals.a(peripheral.o)
 .text.PLIB_POWER_VoltageRegulatorDisable
                0x00000000       0x14 ..\..\..\..\..\..\..\..\microchip\harmony\v2_06\bin\framework\peripheral\PIC32MX130F064B_peripherals.a(peripheral.o)
 .text.PLIB_POWER_VoltageRegulatorIsEnabled
                0x00000000       0x10 ..\..\..\..\..\..\..\..\microchip\harmony\v2_06\bin\framework\peripheral\PIC32MX130F064B_peripherals.a(peripheral.o)
 .text.PLIB_POWER_ExistsSleepStatus
                0x00000000        0x8 ..\..\..\..\..\..\..\..\microchip\harmony\v2_06\bin\framework\peripheral\PIC32MX130F064B_peripherals.a(peripheral.o)
 .text.PLIB_POWER_DeviceWasInSleepMode
                0x00000000       0x10 ..\..\..\..\..\..\..\..\microchip\harmony\v2_06\bin\framework\peripheral\PIC32MX130F064B_peripherals.a(peripheral.o)
 .text.PLIB_POWER_ClearSleepStatus
                0x00000000       0x14 ..\..\..\..\..\..\..\..\microchip\harmony\v2_06\bin\framework\peripheral\PIC32MX130F064B_peripherals.a(peripheral.o)
 .text.PLIB_POWER_ExistsIdleStatus
                0x00000000        0x8 ..\..\..\..\..\..\..\..\microchip\harmony\v2_06\bin\framework\peripheral\PIC32MX130F064B_peripherals.a(peripheral.o)
 .text.PLIB_POWER_DeviceWasInIdleMode
                0x00000000       0x10 ..\..\..\..\..\..\..\..\microchip\harmony\v2_06\bin\framework\peripheral\PIC32MX130F064B_peripherals.a(peripheral.o)
 .text.PLIB_POWER_ClearIdleStatus
                0x00000000       0x14 ..\..\..\..\..\..\..\..\microchip\harmony\v2_06\bin\framework\peripheral\PIC32MX130F064B_peripherals.a(peripheral.o)
 .text.PLIB_POWER_ExistsHighVoltageOnVDD1V8
                0x00000000        0x8 ..\..\..\..\..\..\..\..\microchip\harmony\v2_06\bin\framework\peripheral\PIC32MX130F064B_peripherals.a(peripheral.o)
 .text.PLIB_POWER_HighVoltageOnVDD1V8HasOccurred
                0x00000000        0x8 ..\..\..\..\..\..\..\..\microchip\harmony\v2_06\bin\framework\peripheral\PIC32MX130F064B_peripherals.a(peripheral.o)
 .text.PLIB_POWER_ExistsDeepSleepModeOccurrence
                0x00000000        0x8 ..\..\..\..\..\..\..\..\microchip\harmony\v2_06\bin\framework\peripheral\PIC32MX130F064B_peripherals.a(peripheral.o)
 .text.PLIB_POWER_DeepSleepModeHasOccurred
                0x00000000        0x8 ..\..\..\..\..\..\..\..\microchip\harmony\v2_06\bin\framework\peripheral\PIC32MX130F064B_peripherals.a(peripheral.o)
 .text.PLIB_POWER_DeepSleepStatusClear
                0x00000000        0x8 ..\..\..\..\..\..\..\..\microchip\harmony\v2_06\bin\framework\peripheral\PIC32MX130F064B_peripherals.a(peripheral.o)
 .text.PLIB_POWER_ExistsHLVDEnableControl
                0x00000000        0x8 ..\..\..\..\..\..\..\..\microchip\harmony\v2_06\bin\framework\peripheral\PIC32MX130F064B_peripherals.a(peripheral.o)
 .text.PLIB_POWER_HLVDEnable
                0x00000000        0x8 ..\..\..\..\..\..\..\..\microchip\harmony\v2_06\bin\framework\peripheral\PIC32MX130F064B_peripherals.a(peripheral.o)
 .text.PLIB_POWER_HLVDDisable
                0x00000000        0x8 ..\..\..\..\..\..\..\..\microchip\harmony\v2_06\bin\framework\peripheral\PIC32MX130F064B_peripherals.a(peripheral.o)
 .text.PLIB_POWER_HLVDIsEnabled
                0x00000000        0x8 ..\..\..\..\..\..\..\..\microchip\harmony\v2_06\bin\framework\peripheral\PIC32MX130F064B_peripherals.a(peripheral.o)
 .text.PLIB_POWER_ExistsHLVDStopInIdleControl
                0x00000000        0x8 ..\..\..\..\..\..\..\..\microchip\harmony\v2_06\bin\framework\peripheral\PIC32MX130F064B_peripherals.a(peripheral.o)
 .text.PLIB_POWER_HLVDStopInIdleEnable
                0x00000000        0x8 ..\..\..\..\..\..\..\..\microchip\harmony\v2_06\bin\framework\peripheral\PIC32MX130F064B_peripherals.a(peripheral.o)
 .text.PLIB_POWER_HLVDStopInIdleDisable
                0x00000000        0x8 ..\..\..\..\..\..\..\..\microchip\harmony\v2_06\bin\framework\peripheral\PIC32MX130F064B_peripherals.a(peripheral.o)
 .text.PLIB_POWER_HLVDStopInIdleIsEnabled
                0x00000000        0x8 ..\..\..\..\..\..\..\..\microchip\harmony\v2_06\bin\framework\peripheral\PIC32MX130F064B_peripherals.a(peripheral.o)
 .text.PLIB_POWER_ExistsHLVDStatus
                0x00000000        0x8 ..\..\..\..\..\..\..\..\microchip\harmony\v2_06\bin\framework\peripheral\PIC32MX130F064B_peripherals.a(peripheral.o)
 .text.PLIB_POWER_HLVDStatusGet
                0x00000000        0x8 ..\..\..\..\..\..\..\..\microchip\harmony\v2_06\bin\framework\peripheral\PIC32MX130F064B_peripherals.a(peripheral.o)
 .text.PLIB_POWER_ExistsHLVDModeControl
                0x00000000        0x8 ..\..\..\..\..\..\..\..\microchip\harmony\v2_06\bin\framework\peripheral\PIC32MX130F064B_peripherals.a(peripheral.o)
 .text.PLIB_POWER_HLVDModeSelect
                0x00000000        0x8 ..\..\..\..\..\..\..\..\microchip\harmony\v2_06\bin\framework\peripheral\PIC32MX130F064B_peripherals.a(peripheral.o)
 .text.PLIB_POWER_ExistsHLVDBandGapVoltageStability
                0x00000000        0x8 ..\..\..\..\..\..\..\..\microchip\harmony\v2_06\bin\framework\peripheral\PIC32MX130F064B_peripherals.a(peripheral.o)
 .text.PLIB_POWER_HLVDBandGapVoltageIsStable
                0x00000000        0x8 ..\..\..\..\..\..\..\..\microchip\harmony\v2_06\bin\framework\peripheral\PIC32MX130F064B_peripherals.a(peripheral.o)
 .text.PLIB_POWER_ExistsHLVDLimitSelection
                0x00000000        0x8 ..\..\..\..\..\..\..\..\microchip\harmony\v2_06\bin\framework\peripheral\PIC32MX130F064B_peripherals.a(peripheral.o)
 .text.PLIB_POWER_HLVDLimitSelect
                0x00000000        0x8 ..\..\..\..\..\..\..\..\microchip\harmony\v2_06\bin\framework\peripheral\PIC32MX130F064B_peripherals.a(peripheral.o)
 .text.PLIB_POWER_ExistsDeepSleepMode
                0x00000000        0x8 ..\..\..\..\..\..\..\..\microchip\harmony\v2_06\bin\framework\peripheral\PIC32MX130F064B_peripherals.a(peripheral.o)
 .text.PLIB_POWER_DeepSleepModeEnable
                0x00000000        0x8 ..\..\..\..\..\..\..\..\microchip\harmony\v2_06\bin\framework\peripheral\PIC32MX130F064B_peripherals.a(peripheral.o)
 .text.PLIB_POWER_DeepSleepModeDisable
                0x00000000        0x8 ..\..\..\..\..\..\..\..\microchip\harmony\v2_06\bin\framework\peripheral\PIC32MX130F064B_peripherals.a(peripheral.o)
 .text.PLIB_POWER_DeepSleepModeIsEnabled
                0x00000000        0x8 ..\..\..\..\..\..\..\..\microchip\harmony\v2_06\bin\framework\peripheral\PIC32MX130F064B_peripherals.a(peripheral.o)
 .text.PLIB_POWER_ExistsDeepSleepGPRsRetentionControl
                0x00000000        0x8 ..\..\..\..\..\..\..\..\microchip\harmony\v2_06\bin\framework\peripheral\PIC32MX130F064B_peripherals.a(peripheral.o)
 .text.PLIB_POWER_DeepSleepGPRsRetentionEnable
                0x00000000        0x8 ..\..\..\..\..\..\..\..\microchip\harmony\v2_06\bin\framework\peripheral\PIC32MX130F064B_peripherals.a(peripheral.o)
 .text.PLIB_POWER_DeepSleepGPRsRetentionDisable
                0x00000000        0x8 ..\..\..\..\..\..\..\..\microchip\harmony\v2_06\bin\framework\peripheral\PIC32MX130F064B_peripherals.a(peripheral.o)
 .text.PLIB_POWER_ExistsDeepSleepModuleControl
                0x00000000        0x8 ..\..\..\..\..\..\..\..\microchip\harmony\v2_06\bin\framework\peripheral\PIC32MX130F064B_peripherals.a(peripheral.o)
 .text.PLIB_POWER_DeepSleepModuleEnable
                0x00000000        0x8 ..\..\..\..\..\..\..\..\microchip\harmony\v2_06\bin\framework\peripheral\PIC32MX130F064B_peripherals.a(peripheral.o)
 .text.PLIB_POWER_DeepSleepModuleDisable
                0x00000000        0x8 ..\..\..\..\..\..\..\..\microchip\harmony\v2_06\bin\framework\peripheral\PIC32MX130F064B_peripherals.a(peripheral.o)
 .text.PLIB_POWER_ExistsDeepSleepWakeupEventControl
                0x00000000        0x8 ..\..\..\..\..\..\..\..\microchip\harmony\v2_06\bin\framework\peripheral\PIC32MX130F064B_peripherals.a(peripheral.o)
 .text.PLIB_POWER_DeepSleepWakeupEventEnable
                0x00000000        0x8 ..\..\..\..\..\..\..\..\microchip\harmony\v2_06\bin\framework\peripheral\PIC32MX130F064B_peripherals.a(peripheral.o)
 .text.PLIB_POWER_DeepSleepWakeupEventDisable
                0x00000000        0x8 ..\..\..\..\..\..\..\..\microchip\harmony\v2_06\bin\framework\peripheral\PIC32MX130F064B_peripherals.a(peripheral.o)
 .text.PLIB_POWER_ExistsDeepSleepPortPinsStateControl
                0x00000000        0x8 ..\..\..\..\..\..\..\..\microchip\harmony\v2_06\bin\framework\peripheral\PIC32MX130F064B_peripherals.a(peripheral.o)
 .text.PLIB_POWER_DeepSleepPortPinsStateRetain
                0x00000000        0x8 ..\..\..\..\..\..\..\..\microchip\harmony\v2_06\bin\framework\peripheral\PIC32MX130F064B_peripherals.a(peripheral.o)
 .text.PLIB_POWER_DeepSleepPortPinsStateRelease
                0x00000000        0x8 ..\..\..\..\..\..\..\..\microchip\harmony\v2_06\bin\framework\peripheral\PIC32MX130F064B_peripherals.a(peripheral.o)
 .text.PLIB_POWER_ExistsDeepSleepEventStatus
                0x00000000        0x8 ..\..\..\..\..\..\..\..\microchip\harmony\v2_06\bin\framework\peripheral\PIC32MX130F064B_peripherals.a(peripheral.o)
 .text.PLIB_POWER_DeepSleepEventStatusGet
                0x00000000        0x8 ..\..\..\..\..\..\..\..\microchip\harmony\v2_06\bin\framework\peripheral\PIC32MX130F064B_peripherals.a(peripheral.o)
 .text.PLIB_POWER_DeepSleepEventStatusClear
                0x00000000        0x8 ..\..\..\..\..\..\..\..\microchip\harmony\v2_06\bin\framework\peripheral\PIC32MX130F064B_peripherals.a(peripheral.o)
 .text.PLIB_POWER_ExistsDeepSleepGPROperation
                0x00000000        0x8 ..\..\..\..\..\..\..\..\microchip\harmony\v2_06\bin\framework\peripheral\PIC32MX130F064B_peripherals.a(peripheral.o)
 .text.PLIB_POWER_DeepSleepGPRWrite
                0x00000000        0x8 ..\..\..\..\..\..\..\..\microchip\harmony\v2_06\bin\framework\peripheral\PIC32MX130F064B_peripherals.a(peripheral.o)
 .text.PLIB_POWER_DeepSleepGPRRead
                0x00000000        0x8 ..\..\..\..\..\..\..\..\microchip\harmony\v2_06\bin\framework\peripheral\PIC32MX130F064B_peripherals.a(peripheral.o)
 .text.PLIB_PTG_ClockSourceSelect
                0x00000000        0x8 ..\..\..\..\..\..\..\..\microchip\harmony\v2_06\bin\framework\peripheral\PIC32MX130F064B_peripherals.a(peripheral.o)
 .text.PLIB_PTG_ExistsClockSource
                0x00000000        0x8 ..\..\..\..\..\..\..\..\microchip\harmony\v2_06\bin\framework\peripheral\PIC32MX130F064B_peripherals.a(peripheral.o)
 .text.PLIB_PTG_PrescaleSelect
                0x00000000        0x8 ..\..\..\..\..\..\..\..\microchip\harmony\v2_06\bin\framework\peripheral\PIC32MX130F064B_peripherals.a(peripheral.o)
 .text.PLIB_PTG_PrescaleGet
                0x00000000        0x8 ..\..\..\..\..\..\..\..\microchip\harmony\v2_06\bin\framework\peripheral\PIC32MX130F064B_peripherals.a(peripheral.o)
 .text.PLIB_PTG_ExistsPrescale
                0x00000000        0x8 ..\..\..\..\..\..\..\..\microchip\harmony\v2_06\bin\framework\peripheral\PIC32MX130F064B_peripherals.a(peripheral.o)
 .text.PLIB_PTG_TriggerPulseWidthSet
                0x00000000        0x8 ..\..\..\..\..\..\..\..\microchip\harmony\v2_06\bin\framework\peripheral\PIC32MX130F064B_peripherals.a(peripheral.o)
 .text.PLIB_PTG_TriggerPulseWidthGet
                0x00000000        0x8 ..\..\..\..\..\..\..\..\microchip\harmony\v2_06\bin\framework\peripheral\PIC32MX130F064B_peripherals.a(peripheral.o)
 .text.PLIB_PTG_ExistsTriggerPulseWidth
                0x00000000        0x8 ..\..\..\..\..\..\..\..\microchip\harmony\v2_06\bin\framework\peripheral\PIC32MX130F064B_peripherals.a(peripheral.o)
 .text.PLIB_PTG_WDTCountValueSet
                0x00000000        0x8 ..\..\..\..\..\..\..\..\microchip\harmony\v2_06\bin\framework\peripheral\PIC32MX130F064B_peripherals.a(peripheral.o)
 .text.PLIB_PTG_DisableWDT
                0x00000000        0x8 ..\..\..\..\..\..\..\..\microchip\harmony\v2_06\bin\framework\peripheral\PIC32MX130F064B_peripherals.a(peripheral.o)
 .text.PLIB_PTG_WDTCountValueGet
                0x00000000        0x8 ..\..\..\..\..\..\..\..\microchip\harmony\v2_06\bin\framework\peripheral\PIC32MX130F064B_peripherals.a(peripheral.o)
 .text.PLIB_PTG_ExistsWDTCount
                0x00000000        0x8 ..\..\..\..\..\..\..\..\microchip\harmony\v2_06\bin\framework\peripheral\PIC32MX130F064B_peripherals.a(peripheral.o)
 .text.PLIB_PTG_Enable
                0x00000000        0x8 ..\..\..\..\..\..\..\..\microchip\harmony\v2_06\bin\framework\peripheral\PIC32MX130F064B_peripherals.a(peripheral.o)
 .text.PLIB_PTG_Disable
                0x00000000        0x8 ..\..\..\..\..\..\..\..\microchip\harmony\v2_06\bin\framework\peripheral\PIC32MX130F064B_peripherals.a(peripheral.o)
 .text.PLIB_PTG_ExistsEnableControl
                0x00000000        0x8 ..\..\..\..\..\..\..\..\microchip\harmony\v2_06\bin\framework\peripheral\PIC32MX130F064B_peripherals.a(peripheral.o)
 .text.PLIB_PTG_StopInIdleEnable
                0x00000000        0x8 ..\..\..\..\..\..\..\..\microchip\harmony\v2_06\bin\framework\peripheral\PIC32MX130F064B_peripherals.a(peripheral.o)
 .text.PLIB_PTG_StopInIdleDisable
                0x00000000        0x8 ..\..\..\..\..\..\..\..\microchip\harmony\v2_06\bin\framework\peripheral\PIC32MX130F064B_peripherals.a(peripheral.o)
 .text.PLIB_PTG_ExistsStopInIdle
                0x00000000        0x8 ..\..\..\..\..\..\..\..\microchip\harmony\v2_06\bin\framework\peripheral\PIC32MX130F064B_peripherals.a(peripheral.o)
 .text.PLIB_PTG_OutputTriggerToggle
                0x00000000        0x8 ..\..\..\..\..\..\..\..\microchip\harmony\v2_06\bin\framework\peripheral\PIC32MX130F064B_peripherals.a(peripheral.o)
 .text.PLIB_PTG_OutputTriggerPulse
                0x00000000        0x8 ..\..\..\..\..\..\..\..\microchip\harmony\v2_06\bin\framework\peripheral\PIC32MX130F064B_peripherals.a(peripheral.o)
 .text.PLIB_PTG_ExistsOutputTriggerMode
                0x00000000        0x8 ..\..\..\..\..\..\..\..\microchip\harmony\v2_06\bin\framework\peripheral\PIC32MX130F064B_peripherals.a(peripheral.o)
 .text.PLIB_PTG_SWTEdgeTrigger
                0x00000000        0x8 ..\..\..\..\..\..\..\..\microchip\harmony\v2_06\bin\framework\peripheral\PIC32MX130F064B_peripherals.a(peripheral.o)
 .text.PLIB_PTG_SWTLevelTrigger
                0x00000000        0x8 ..\..\..\..\..\..\..\..\microchip\harmony\v2_06\bin\framework\peripheral\PIC32MX130F064B_peripherals.a(peripheral.o)
 .text.PLIB_PTG_SWTClear
                0x00000000        0x8 ..\..\..\..\..\..\..\..\microchip\harmony\v2_06\bin\framework\peripheral\PIC32MX130F064B_peripherals.a(peripheral.o)
 .text.PLIB_PTG_SWTGet
                0x00000000        0x8 ..\..\..\..\..\..\..\..\microchip\harmony\v2_06\bin\framework\peripheral\PIC32MX130F064B_peripherals.a(peripheral.o)
 .text.PLIB_PTG_ExistsSWTControl
                0x00000000        0x8 ..\..\..\..\..\..\..\..\microchip\harmony\v2_06\bin\framework\peripheral\PIC32MX130F064B_peripherals.a(peripheral.o)
 .text.PLIB_PTG_SingleStepEnable
                0x00000000        0x8 ..\..\..\..\..\..\..\..\microchip\harmony\v2_06\bin\framework\peripheral\PIC32MX130F064B_peripherals.a(peripheral.o)
 .text.PLIB_PTG_SingleStepDisable
                0x00000000        0x8 ..\..\..\..\..\..\..\..\microchip\harmony\v2_06\bin\framework\peripheral\PIC32MX130F064B_peripherals.a(peripheral.o)
 .text.PLIB_PTG_ExistsSingleStepControl
                0x00000000        0x8 ..\..\..\..\..\..\..\..\microchip\harmony\v2_06\bin\framework\peripheral\PIC32MX130F064B_peripherals.a(peripheral.o)
 .text.PLIB_PTG_VisiblityEnable
                0x00000000        0x8 ..\..\..\..\..\..\..\..\microchip\harmony\v2_06\bin\framework\peripheral\PIC32MX130F064B_peripherals.a(peripheral.o)
 .text.PLIB_PTG_VisiblityDisable
                0x00000000        0x8 ..\..\..\..\..\..\..\..\microchip\harmony\v2_06\bin\framework\peripheral\PIC32MX130F064B_peripherals.a(peripheral.o)
 .text.PLIB_PTG_ExistsVisibilityControl
                0x00000000        0x8 ..\..\..\..\..\..\..\..\microchip\harmony\v2_06\bin\framework\peripheral\PIC32MX130F064B_peripherals.a(peripheral.o)
 .text.PLIB_PTG_ExecutionStart
                0x00000000        0x8 ..\..\..\..\..\..\..\..\microchip\harmony\v2_06\bin\framework\peripheral\PIC32MX130F064B_peripherals.a(peripheral.o)
 .text.PLIB_PTG_ExecutionHalt
                0x00000000        0x8 ..\..\..\..\..\..\..\..\microchip\harmony\v2_06\bin\framework\peripheral\PIC32MX130F064B_peripherals.a(peripheral.o)
 .text.PLIB_PTG_ExistsStartExecution
                0x00000000        0x8 ..\..\..\..\..\..\..\..\microchip\harmony\v2_06\bin\framework\peripheral\PIC32MX130F064B_peripherals.a(peripheral.o)
 .text.PLIB_PTG_WDTStatusGet
                0x00000000        0x8 ..\..\..\..\..\..\..\..\microchip\harmony\v2_06\bin\framework\peripheral\PIC32MX130F064B_peripherals.a(peripheral.o)
 .text.PLIB_PTG_WDTStatusClear
                0x00000000        0x8 ..\..\..\..\..\..\..\..\microchip\harmony\v2_06\bin\framework\peripheral\PIC32MX130F064B_peripherals.a(peripheral.o)
 .text.PLIB_PTG_ExistsWDTStatus
                0x00000000        0x8 ..\..\..\..\..\..\..\..\microchip\harmony\v2_06\bin\framework\peripheral\PIC32MX130F064B_peripherals.a(peripheral.o)
 .text.PLIB_PTG_IsBusy
                0x00000000        0x8 ..\..\..\..\..\..\..\..\microchip\harmony\v2_06\bin\framework\peripheral\PIC32MX130F064B_peripherals.a(peripheral.o)
 .text.PLIB_PTG_ExistsPTGBusyStatus
                0x00000000        0x8 ..\..\..\..\..\..\..\..\microchip\harmony\v2_06\bin\framework\peripheral\PIC32MX130F064B_peripherals.a(peripheral.o)
 .text.PLIB_PTG_InputTriggerModeSelect
                0x00000000        0x8 ..\..\..\..\..\..\..\..\microchip\harmony\v2_06\bin\framework\peripheral\PIC32MX130F064B_peripherals.a(peripheral.o)
 .text.PLIB_PTG_InputTriggerModeGet
                0x00000000        0x8 ..\..\..\..\..\..\..\..\microchip\harmony\v2_06\bin\framework\peripheral\PIC32MX130F064B_peripherals.a(peripheral.o)
 .text.PLIB_PTG_ExistsInputTriggerMode
                0x00000000        0x8 ..\..\..\..\..\..\..\..\microchip\harmony\v2_06\bin\framework\peripheral\PIC32MX130F064B_peripherals.a(peripheral.o)
 .text.PLIB_PTG_TriggerBroadcastMaskSet
                0x00000000        0x8 ..\..\..\..\..\..\..\..\microchip\harmony\v2_06\bin\framework\peripheral\PIC32MX130F064B_peripherals.a(peripheral.o)
 .text.PLIB_PTG_TriggerBroadcastMaskGet
                0x00000000        0x8 ..\..\..\..\..\..\..\..\microchip\harmony\v2_06\bin\framework\peripheral\PIC32MX130F064B_peripherals.a(peripheral.o)
 .text.PLIB_PTG_ExistsTriggerBroadcastMask
                0x00000000        0x8 ..\..\..\..\..\..\..\..\microchip\harmony\v2_06\bin\framework\peripheral\PIC32MX130F064B_peripherals.a(peripheral.o)
 .text.PLIB_PTG_HoldValueSet
                0x00000000        0x8 ..\..\..\..\..\..\..\..\microchip\harmony\v2_06\bin\framework\peripheral\PIC32MX130F064B_peripherals.a(peripheral.o)
 .text.PLIB_PTG_HoldValueGet
                0x00000000        0x8 ..\..\..\..\..\..\..\..\microchip\harmony\v2_06\bin\framework\peripheral\PIC32MX130F064B_peripherals.a(peripheral.o)
 .text.PLIB_PTG_ExistsHoldValue
                0x00000000        0x8 ..\..\..\..\..\..\..\..\microchip\harmony\v2_06\bin\framework\peripheral\PIC32MX130F064B_peripherals.a(peripheral.o)
 .text.PLIB_PTG_TimerLimitSet
                0x00000000        0x8 ..\..\..\..\..\..\..\..\microchip\harmony\v2_06\bin\framework\peripheral\PIC32MX130F064B_peripherals.a(peripheral.o)
 .text.PLIB_PTG_TimerLimitGet
                0x00000000        0x8 ..\..\..\..\..\..\..\..\microchip\harmony\v2_06\bin\framework\peripheral\PIC32MX130F064B_peripherals.a(peripheral.o)
 .text.PLIB_PTG_ExistsTimerLimit
                0x00000000        0x8 ..\..\..\..\..\..\..\..\microchip\harmony\v2_06\bin\framework\peripheral\PIC32MX130F064B_peripherals.a(peripheral.o)
 .text.PLIB_PTG_StepDelaySet
                0x00000000        0x8 ..\..\..\..\..\..\..\..\microchip\harmony\v2_06\bin\framework\peripheral\PIC32MX130F064B_peripherals.a(peripheral.o)
 .text.PLIB_PTG_StepDelayGet
                0x00000000        0x8 ..\..\..\..\..\..\..\..\microchip\harmony\v2_06\bin\framework\peripheral\PIC32MX130F064B_peripherals.a(peripheral.o)
 .text.PLIB_PTG_ExistsStepDelay
                0x00000000        0x8 ..\..\..\..\..\..\..\..\microchip\harmony\v2_06\bin\framework\peripheral\PIC32MX130F064B_peripherals.a(peripheral.o)
 .text.PLIB_PTG_CounterLimitSet
                0x00000000        0x8 ..\..\..\..\..\..\..\..\microchip\harmony\v2_06\bin\framework\peripheral\PIC32MX130F064B_peripherals.a(peripheral.o)
 .text.PLIB_PTG_CounterLimitGet
                0x00000000        0x8 ..\..\..\..\..\..\..\..\microchip\harmony\v2_06\bin\framework\peripheral\PIC32MX130F064B_peripherals.a(peripheral.o)
 .text.PLIB_PTG_ExistsCounterLimit
                0x00000000        0x8 ..\..\..\..\..\..\..\..\microchip\harmony\v2_06\bin\framework\peripheral\PIC32MX130F064B_peripherals.a(peripheral.o)
 .text.PLIB_PTG_AdjustValueSet
                0x00000000        0x8 ..\..\..\..\..\..\..\..\microchip\harmony\v2_06\bin\framework\peripheral\PIC32MX130F064B_peripherals.a(peripheral.o)
 .text.PLIB_PTG_AdjustValueGet
                0x00000000        0x8 ..\..\..\..\..\..\..\..\microchip\harmony\v2_06\bin\framework\peripheral\PIC32MX130F064B_peripherals.a(peripheral.o)
 .text.PLIB_PTG_ExistsAdjustValue
                0x00000000        0x8 ..\..\..\..\..\..\..\..\microchip\harmony\v2_06\bin\framework\peripheral\PIC32MX130F064B_peripherals.a(peripheral.o)
 .text.PLIB_PTG_LiteralStrobeValueSet
                0x00000000        0x8 ..\..\..\..\..\..\..\..\microchip\harmony\v2_06\bin\framework\peripheral\PIC32MX130F064B_peripherals.a(peripheral.o)
 .text.PLIB_PTG_LiteralStrobeValueGet
                0x00000000        0x8 ..\..\..\..\..\..\..\..\microchip\harmony\v2_06\bin\framework\peripheral\PIC32MX130F064B_peripherals.a(peripheral.o)
 .text.PLIB_PTG_ExistsLiteralStrobe
                0x00000000        0x8 ..\..\..\..\..\..\..\..\microchip\harmony\v2_06\bin\framework\peripheral\PIC32MX130F064B_peripherals.a(peripheral.o)
 .text.PLIB_PTG_QueuePointerSet
                0x00000000        0x8 ..\..\..\..\..\..\..\..\microchip\harmony\v2_06\bin\framework\peripheral\PIC32MX130F064B_peripherals.a(peripheral.o)
 .text.PLIB_PTG_QueuePointerGet
                0x00000000        0x8 ..\..\..\..\..\..\..\..\microchip\harmony\v2_06\bin\framework\peripheral\PIC32MX130F064B_peripherals.a(peripheral.o)
 .text.PLIB_PTG_ExistsQueuePointer
                0x00000000        0x8 ..\..\..\..\..\..\..\..\microchip\harmony\v2_06\bin\framework\peripheral\PIC32MX130F064B_peripherals.a(peripheral.o)
 .text.PLIB_PTG_StepCommandSet
                0x00000000        0x8 ..\..\..\..\..\..\..\..\microchip\harmony\v2_06\bin\framework\peripheral\PIC32MX130F064B_peripherals.a(peripheral.o)
 .text.PLIB_PTG_StepCommandGet
                0x00000000        0x8 ..\..\..\..\..\..\..\..\microchip\harmony\v2_06\bin\framework\peripheral\PIC32MX130F064B_peripherals.a(peripheral.o)
 .text.PLIB_PTG_ExistsStepCommand
                0x00000000        0x8 ..\..\..\..\..\..\..\..\microchip\harmony\v2_06\bin\framework\peripheral\PIC32MX130F064B_peripherals.a(peripheral.o)
 .text.PLIB_RESET_ExistsResetReasonStatus
                0x00000000        0x8 ..\..\..\..\..\..\..\..\microchip\harmony\v2_06\bin\framework\peripheral\PIC32MX130F064B_peripherals.a(peripheral.o)
 .text.PLIB_RESET_ReasonGet
                0x00000000       0x10 ..\..\..\..\..\..\..\..\microchip\harmony\v2_06\bin\framework\peripheral\PIC32MX130F064B_peripherals.a(peripheral.o)
 .text.PLIB_RESET_ReasonClear
                0x00000000       0x10 ..\..\..\..\..\..\..\..\microchip\harmony\v2_06\bin\framework\peripheral\PIC32MX130F064B_peripherals.a(peripheral.o)
 .text.PLIB_RESET_ExistsSoftwareResetTrigger
                0x00000000        0x8 ..\..\..\..\..\..\..\..\microchip\harmony\v2_06\bin\framework\peripheral\PIC32MX130F064B_peripherals.a(peripheral.o)
 .text.PLIB_RESET_SoftwareResetEnable
                0x00000000       0x28 ..\..\..\..\..\..\..\..\microchip\harmony\v2_06\bin\framework\peripheral\PIC32MX130F064B_peripherals.a(peripheral.o)
 .text.PLIB_RESET_ExistsConfigRegReadError
                0x00000000        0x8 ..\..\..\..\..\..\..\..\microchip\harmony\v2_06\bin\framework\peripheral\PIC32MX130F064B_peripherals.a(peripheral.o)
 .text.PLIB_RESET_ConfigRegReadErrorGet
                0x00000000        0x8 ..\..\..\..\..\..\..\..\microchip\harmony\v2_06\bin\framework\peripheral\PIC32MX130F064B_peripherals.a(peripheral.o)
 .text.PLIB_RESET_ExistsNmiControl
                0x00000000        0x8 ..\..\..\..\..\..\..\..\microchip\harmony\v2_06\bin\framework\peripheral\PIC32MX130F064B_peripherals.a(peripheral.o)
 .text.PLIB_RESET_NmiReasonGet
                0x00000000        0x8 ..\..\..\..\..\..\..\..\microchip\harmony\v2_06\bin\framework\peripheral\PIC32MX130F064B_peripherals.a(peripheral.o)
 .text.PLIB_RESET_NmiEventTrigger
                0x00000000        0x8 ..\..\..\..\..\..\..\..\microchip\harmony\v2_06\bin\framework\peripheral\PIC32MX130F064B_peripherals.a(peripheral.o)
 .text.PLIB_RESET_NmiEventClear
                0x00000000        0x8 ..\..\..\..\..\..\..\..\microchip\harmony\v2_06\bin\framework\peripheral\PIC32MX130F064B_peripherals.a(peripheral.o)
 .text.PLIB_RESET_ExistsWdtoInSleep
                0x00000000        0x8 ..\..\..\..\..\..\..\..\microchip\harmony\v2_06\bin\framework\peripheral\PIC32MX130F064B_peripherals.a(peripheral.o)
 .text.PLIB_RESET_WdtTimeOutHasOccurredInSleep
                0x00000000        0x8 ..\..\..\..\..\..\..\..\microchip\harmony\v2_06\bin\framework\peripheral\PIC32MX130F064B_peripherals.a(peripheral.o)
 .text.PLIB_RESET_ExistsNmiCounter
                0x00000000        0x8 ..\..\..\..\..\..\..\..\microchip\harmony\v2_06\bin\framework\peripheral\PIC32MX130F064B_peripherals.a(peripheral.o)
 .text.PLIB_RESET_NmiCounterValueSet
                0x00000000        0x8 ..\..\..\..\..\..\..\..\microchip\harmony\v2_06\bin\framework\peripheral\PIC32MX130F064B_peripherals.a(peripheral.o)
 .text.PLIB_RESET_NmiCounterValueGet
                0x00000000        0x8 ..\..\..\..\..\..\..\..\microchip\harmony\v2_06\bin\framework\peripheral\PIC32MX130F064B_peripherals.a(peripheral.o)
 .text.PLIB_RTCC_Enable
                0x00000000       0x10 ..\..\..\..\..\..\..\..\microchip\harmony\v2_06\bin\framework\peripheral\PIC32MX130F064B_peripherals.a(peripheral.o)
 .text.PLIB_RTCC_Disable
                0x00000000       0x10 ..\..\..\..\..\..\..\..\microchip\harmony\v2_06\bin\framework\peripheral\PIC32MX130F064B_peripherals.a(peripheral.o)
 .text.PLIB_RTCC_ExistsEnableControl
                0x00000000        0x8 ..\..\..\..\..\..\..\..\microchip\harmony\v2_06\bin\framework\peripheral\PIC32MX130F064B_peripherals.a(peripheral.o)
 .text.PLIB_RTCC_WriteEnable
                0x00000000       0x10 ..\..\..\..\..\..\..\..\microchip\harmony\v2_06\bin\framework\peripheral\PIC32MX130F064B_peripherals.a(peripheral.o)
 .text.PLIB_RTCC_WriteDisable
                0x00000000       0x10 ..\..\..\..\..\..\..\..\microchip\harmony\v2_06\bin\framework\peripheral\PIC32MX130F064B_peripherals.a(peripheral.o)
 .text.PLIB_RTCC_ExistsWriteEnable
                0x00000000        0x8 ..\..\..\..\..\..\..\..\microchip\harmony\v2_06\bin\framework\peripheral\PIC32MX130F064B_peripherals.a(peripheral.o)
 .text.PLIB_RTCC_StopInIdleEnable
                0x00000000       0x10 ..\..\..\..\..\..\..\..\microchip\harmony\v2_06\bin\framework\peripheral\PIC32MX130F064B_peripherals.a(peripheral.o)
 .text.PLIB_RTCC_StopInIdleDisable
                0x00000000       0x10 ..\..\..\..\..\..\..\..\microchip\harmony\v2_06\bin\framework\peripheral\PIC32MX130F064B_peripherals.a(peripheral.o)
 .text.PLIB_RTCC_ExistsStopInIdleControl
                0x00000000        0x8 ..\..\..\..\..\..\..\..\microchip\harmony\v2_06\bin\framework\peripheral\PIC32MX130F064B_peripherals.a(peripheral.o)
 .text.PLIB_RTCC_OutputSelect
                0x00000000       0x14 ..\..\..\..\..\..\..\..\microchip\harmony\v2_06\bin\framework\peripheral\PIC32MX130F064B_peripherals.a(peripheral.o)
 .text.PLIB_RTCC_ExistsOutputSelect
                0x00000000        0x8 ..\..\..\..\..\..\..\..\microchip\harmony\v2_06\bin\framework\peripheral\PIC32MX130F064B_peripherals.a(peripheral.o)
 .text.PLIB_RTCC_ClockSourceSelect
                0x00000000        0x8 ..\..\..\..\..\..\..\..\microchip\harmony\v2_06\bin\framework\peripheral\PIC32MX130F064B_peripherals.a(peripheral.o)
 .text.PLIB_RTCC_ExistsClockSelect
                0x00000000        0x8 ..\..\..\..\..\..\..\..\microchip\harmony\v2_06\bin\framework\peripheral\PIC32MX130F064B_peripherals.a(peripheral.o)
 .text.PLIB_RTCC_ClockRunningStatus
                0x00000000        0xc ..\..\..\..\..\..\..\..\microchip\harmony\v2_06\bin\framework\peripheral\PIC32MX130F064B_peripherals.a(peripheral.o)
 .text.PLIB_RTCC_ExistsClockRunning
                0x00000000        0x8 ..\..\..\..\..\..\..\..\microchip\harmony\v2_06\bin\framework\peripheral\PIC32MX130F064B_peripherals.a(peripheral.o)
 .text.PLIB_RTCC_DriftCalibrateGet
                0x00000000        0xc ..\..\..\..\..\..\..\..\microchip\harmony\v2_06\bin\framework\peripheral\PIC32MX130F064B_peripherals.a(peripheral.o)
 .text.PLIB_RTCC_DriftCalibrateSet
                0x00000000       0x14 ..\..\..\..\..\..\..\..\microchip\harmony\v2_06\bin\framework\peripheral\PIC32MX130F064B_peripherals.a(peripheral.o)
 .text.PLIB_RTCC_ExistsCalibration
                0x00000000        0x8 ..\..\..\..\..\..\..\..\microchip\harmony\v2_06\bin\framework\peripheral\PIC32MX130F064B_peripherals.a(peripheral.o)
 .text.PLIB_RTCC_RTCSyncStatusGet
                0x00000000        0xc ..\..\..\..\..\..\..\..\microchip\harmony\v2_06\bin\framework\peripheral\PIC32MX130F064B_peripherals.a(peripheral.o)
 .text.PLIB_RTCC_ExistsSynchronization
                0x00000000        0x8 ..\..\..\..\..\..\..\..\microchip\harmony\v2_06\bin\framework\peripheral\PIC32MX130F064B_peripherals.a(peripheral.o)
 .text.PLIB_RTCC_HalfSecondStatusGet
                0x00000000        0xc ..\..\..\..\..\..\..\..\microchip\harmony\v2_06\bin\framework\peripheral\PIC32MX130F064B_peripherals.a(peripheral.o)
 .text.PLIB_RTCC_ExistsHalfSecond
                0x00000000        0x8 ..\..\..\..\..\..\..\..\microchip\harmony\v2_06\bin\framework\peripheral\PIC32MX130F064B_peripherals.a(peripheral.o)
 .text.PLIB_RTCC_ClockOutputEnable
                0x00000000       0x10 ..\..\..\..\..\..\..\..\microchip\harmony\v2_06\bin\framework\peripheral\PIC32MX130F064B_peripherals.a(peripheral.o)
 .text.PLIB_RTCC_ClockOutputDisable
                0x00000000       0x10 ..\..\..\..\..\..\..\..\microchip\harmony\v2_06\bin\framework\peripheral\PIC32MX130F064B_peripherals.a(peripheral.o)
 .text.PLIB_RTCC_ExistsOutputControl
                0x00000000        0x8 ..\..\..\..\..\..\..\..\microchip\harmony\v2_06\bin\framework\peripheral\PIC32MX130F064B_peripherals.a(peripheral.o)
 .text.PLIB_RTCC_AlarmEnable
                0x00000000       0x10 ..\..\..\..\..\..\..\..\microchip\harmony\v2_06\bin\framework\peripheral\PIC32MX130F064B_peripherals.a(peripheral.o)
 .text.PLIB_RTCC_AlarmDisable
                0x00000000       0x10 ..\..\..\..\..\..\..\..\microchip\harmony\v2_06\bin\framework\peripheral\PIC32MX130F064B_peripherals.a(peripheral.o)
 .text.PLIB_RTCC_ExistsAlarmControl
                0x00000000        0x8 ..\..\..\..\..\..\..\..\microchip\harmony\v2_06\bin\framework\peripheral\PIC32MX130F064B_peripherals.a(peripheral.o)
 .text.PLIB_RTCC_AlarmChimeEnable
                0x00000000       0x10 ..\..\..\..\..\..\..\..\microchip\harmony\v2_06\bin\framework\peripheral\PIC32MX130F064B_peripherals.a(peripheral.o)
 .text.PLIB_RTCC_AlarmChimeDisable
                0x00000000       0x10 ..\..\..\..\..\..\..\..\microchip\harmony\v2_06\bin\framework\peripheral\PIC32MX130F064B_peripherals.a(peripheral.o)
 .text.PLIB_RTCC_ExistsAlarmChimeControl
                0x00000000        0x8 ..\..\..\..\..\..\..\..\microchip\harmony\v2_06\bin\framework\peripheral\PIC32MX130F064B_peripherals.a(peripheral.o)
 .text.PLIB_RTCC_AlarmPulseInitialSet
                0x00000000       0x14 ..\..\..\..\..\..\..\..\microchip\harmony\v2_06\bin\framework\peripheral\PIC32MX130F064B_peripherals.a(peripheral.o)
 .text.PLIB_RTCC_AlarmPulseInitialGet
                0x00000000        0xc ..\..\..\..\..\..\..\..\microchip\harmony\v2_06\bin\framework\peripheral\PIC32MX130F064B_peripherals.a(peripheral.o)
 .text.PLIB_RTCC_ExistsAlarmPulseInitial
                0x00000000        0x8 ..\..\..\..\..\..\..\..\microchip\harmony\v2_06\bin\framework\peripheral\PIC32MX130F064B_peripherals.a(peripheral.o)
 .text.PLIB_RTCC_AlarmSyncStatusGet
                0x00000000        0xc ..\..\..\..\..\..\..\..\microchip\harmony\v2_06\bin\framework\peripheral\PIC32MX130F064B_peripherals.a(peripheral.o)
 .text.PLIB_RTCC_ExistsAlarmSynchronization
                0x00000000        0x8 ..\..\..\..\..\..\..\..\microchip\harmony\v2_06\bin\framework\peripheral\PIC32MX130F064B_peripherals.a(peripheral.o)
 .text.PLIB_RTCC_AlarmMaskModeSelect
                0x00000000       0x14 ..\..\..\..\..\..\..\..\microchip\harmony\v2_06\bin\framework\peripheral\PIC32MX130F064B_peripherals.a(peripheral.o)
 .text.PLIB_RTCC_ExistsAlarmMaskControl
                0x00000000        0x8 ..\..\..\..\..\..\..\..\microchip\harmony\v2_06\bin\framework\peripheral\PIC32MX130F064B_peripherals.a(peripheral.o)
 .text.PLIB_RTCC_AlarmRepeatCountSet
                0x00000000        0xc ..\..\..\..\..\..\..\..\microchip\harmony\v2_06\bin\framework\peripheral\PIC32MX130F064B_peripherals.a(peripheral.o)
 .text.PLIB_RTCC_AlarmRepeatCountGet
                0x00000000        0xc ..\..\..\..\..\..\..\..\microchip\harmony\v2_06\bin\framework\peripheral\PIC32MX130F064B_peripherals.a(peripheral.o)
 .text.PLIB_RTCC_ExistsAlarmRepeatControl
                0x00000000        0x8 ..\..\..\..\..\..\..\..\microchip\harmony\v2_06\bin\framework\peripheral\PIC32MX130F064B_peripherals.a(peripheral.o)
 .text.PLIB_RTCC_RTCTimeGet
                0x00000000        0xc ..\..\..\..\..\..\..\..\microchip\harmony\v2_06\bin\framework\peripheral\PIC32MX130F064B_peripherals.a(peripheral.o)
 .text.PLIB_RTCC_RTCTimeSet
                0x00000000        0xc ..\..\..\..\..\..\..\..\microchip\harmony\v2_06\bin\framework\peripheral\PIC32MX130F064B_peripherals.a(peripheral.o)
 .text.PLIB_RTCC_RTCHourGet
                0x00000000       0x1c ..\..\..\..\..\..\..\..\microchip\harmony\v2_06\bin\framework\peripheral\PIC32MX130F064B_peripherals.a(peripheral.o)
 .text.PLIB_RTCC_RTCHourSet
                0x00000000       0x1c ..\..\..\..\..\..\..\..\microchip\harmony\v2_06\bin\framework\peripheral\PIC32MX130F064B_peripherals.a(peripheral.o)
 .text.PLIB_RTCC_RTCMinuteGet
                0x00000000       0x1c ..\..\..\..\..\..\..\..\microchip\harmony\v2_06\bin\framework\peripheral\PIC32MX130F064B_peripherals.a(peripheral.o)
 .text.PLIB_RTCC_RTCMinuteSet
                0x00000000       0x1c ..\..\..\..\..\..\..\..\microchip\harmony\v2_06\bin\framework\peripheral\PIC32MX130F064B_peripherals.a(peripheral.o)
 .text.PLIB_RTCC_RTCSecondGet
                0x00000000       0x1c ..\..\..\..\..\..\..\..\microchip\harmony\v2_06\bin\framework\peripheral\PIC32MX130F064B_peripherals.a(peripheral.o)
 .text.PLIB_RTCC_RTCSecondSet
                0x00000000       0x1c ..\..\..\..\..\..\..\..\microchip\harmony\v2_06\bin\framework\peripheral\PIC32MX130F064B_peripherals.a(peripheral.o)
 .text.PLIB_RTCC_ExistsRTCTime
                0x00000000        0x8 ..\..\..\..\..\..\..\..\microchip\harmony\v2_06\bin\framework\peripheral\PIC32MX130F064B_peripherals.a(peripheral.o)
 .text.PLIB_RTCC_RTCDateGet
                0x00000000        0xc ..\..\..\..\..\..\..\..\microchip\harmony\v2_06\bin\framework\peripheral\PIC32MX130F064B_peripherals.a(peripheral.o)
 .text.PLIB_RTCC_RTCDateSet
                0x00000000        0xc ..\..\..\..\..\..\..\..\microchip\harmony\v2_06\bin\framework\peripheral\PIC32MX130F064B_peripherals.a(peripheral.o)
 .text.PLIB_RTCC_RTCYearGet
                0x00000000       0x1c ..\..\..\..\..\..\..\..\microchip\harmony\v2_06\bin\framework\peripheral\PIC32MX130F064B_peripherals.a(peripheral.o)
 .text.PLIB_RTCC_RTCYearSet
                0x00000000       0x1c ..\..\..\..\..\..\..\..\microchip\harmony\v2_06\bin\framework\peripheral\PIC32MX130F064B_peripherals.a(peripheral.o)
 .text.PLIB_RTCC_RTCMonthGet
                0x00000000       0x1c ..\..\..\..\..\..\..\..\microchip\harmony\v2_06\bin\framework\peripheral\PIC32MX130F064B_peripherals.a(peripheral.o)
 .text.PLIB_RTCC_RTCMonthSet
                0x00000000       0x1c ..\..\..\..\..\..\..\..\microchip\harmony\v2_06\bin\framework\peripheral\PIC32MX130F064B_peripherals.a(peripheral.o)
 .text.PLIB_RTCC_RTCDayGet
                0x00000000       0x1c ..\..\..\..\..\..\..\..\microchip\harmony\v2_06\bin\framework\peripheral\PIC32MX130F064B_peripherals.a(peripheral.o)
 .text.PLIB_RTCC_RTCDaySet
                0x00000000       0x1c ..\..\..\..\..\..\..\..\microchip\harmony\v2_06\bin\framework\peripheral\PIC32MX130F064B_peripherals.a(peripheral.o)
 .text.PLIB_RTCC_RTCWeekDayGet
                0x00000000        0xc ..\..\..\..\..\..\..\..\microchip\harmony\v2_06\bin\framework\peripheral\PIC32MX130F064B_peripherals.a(peripheral.o)
 .text.PLIB_RTCC_RTCWeekDaySet
                0x00000000       0x14 ..\..\..\..\..\..\..\..\microchip\harmony\v2_06\bin\framework\peripheral\PIC32MX130F064B_peripherals.a(peripheral.o)
 .text.PLIB_RTCC_ExistsRTCDate
                0x00000000        0x8 ..\..\..\..\..\..\..\..\microchip\harmony\v2_06\bin\framework\peripheral\PIC32MX130F064B_peripherals.a(peripheral.o)
 .text.PLIB_RTCC_AlarmTimeGet
                0x00000000        0xc ..\..\..\..\..\..\..\..\microchip\harmony\v2_06\bin\framework\peripheral\PIC32MX130F064B_peripherals.a(peripheral.o)
 .text.PLIB_RTCC_AlarmTimeSet
                0x00000000        0xc ..\..\..\..\..\..\..\..\microchip\harmony\v2_06\bin\framework\peripheral\PIC32MX130F064B_peripherals.a(peripheral.o)
 .text.PLIB_RTCC_AlarmHourGet
                0x00000000       0x1c ..\..\..\..\..\..\..\..\microchip\harmony\v2_06\bin\framework\peripheral\PIC32MX130F064B_peripherals.a(peripheral.o)
 .text.PLIB_RTCC_AlarmHourSet
                0x00000000       0x1c ..\..\..\..\..\..\..\..\microchip\harmony\v2_06\bin\framework\peripheral\PIC32MX130F064B_peripherals.a(peripheral.o)
 .text.PLIB_RTCC_AlarmMinuteGet
                0x00000000       0x1c ..\..\..\..\..\..\..\..\microchip\harmony\v2_06\bin\framework\peripheral\PIC32MX130F064B_peripherals.a(peripheral.o)
 .text.PLIB_RTCC_AlarmMinuteSet
                0x00000000       0x1c ..\..\..\..\..\..\..\..\microchip\harmony\v2_06\bin\framework\peripheral\PIC32MX130F064B_peripherals.a(peripheral.o)
 .text.PLIB_RTCC_AlarmSecondGet
                0x00000000       0x1c ..\..\..\..\..\..\..\..\microchip\harmony\v2_06\bin\framework\peripheral\PIC32MX130F064B_peripherals.a(peripheral.o)
 .text.PLIB_RTCC_AlarmSecondSet
                0x00000000       0x1c ..\..\..\..\..\..\..\..\microchip\harmony\v2_06\bin\framework\peripheral\PIC32MX130F064B_peripherals.a(peripheral.o)
 .text.PLIB_RTCC_ExistsAlarmTime
                0x00000000        0x8 ..\..\..\..\..\..\..\..\microchip\harmony\v2_06\bin\framework\peripheral\PIC32MX130F064B_peripherals.a(peripheral.o)
 .text.PLIB_RTCC_AlarmDateGet
                0x00000000        0xc ..\..\..\..\..\..\..\..\microchip\harmony\v2_06\bin\framework\peripheral\PIC32MX130F064B_peripherals.a(peripheral.o)
 .text.PLIB_RTCC_AlarmDateSet
                0x00000000        0xc ..\..\..\..\..\..\..\..\microchip\harmony\v2_06\bin\framework\peripheral\PIC32MX130F064B_peripherals.a(peripheral.o)
 .text.PLIB_RTCC_AlarmMonthGet
                0x00000000       0x1c ..\..\..\..\..\..\..\..\microchip\harmony\v2_06\bin\framework\peripheral\PIC32MX130F064B_peripherals.a(peripheral.o)
 .text.PLIB_RTCC_AlarmMonthSet
                0x00000000       0x1c ..\..\..\..\..\..\..\..\microchip\harmony\v2_06\bin\framework\peripheral\PIC32MX130F064B_peripherals.a(peripheral.o)
 .text.PLIB_RTCC_AlarmDayGet
                0x00000000       0x1c ..\..\..\..\..\..\..\..\microchip\harmony\v2_06\bin\framework\peripheral\PIC32MX130F064B_peripherals.a(peripheral.o)
 .text.PLIB_RTCC_AlarmDaySet
                0x00000000       0x1c ..\..\..\..\..\..\..\..\microchip\harmony\v2_06\bin\framework\peripheral\PIC32MX130F064B_peripherals.a(peripheral.o)
 .text.PLIB_RTCC_AlarmWeekDayGet
                0x00000000        0xc ..\..\..\..\..\..\..\..\microchip\harmony\v2_06\bin\framework\peripheral\PIC32MX130F064B_peripherals.a(peripheral.o)
 .text.PLIB_RTCC_AlarmWeekDaySet
                0x00000000       0x14 ..\..\..\..\..\..\..\..\microchip\harmony\v2_06\bin\framework\peripheral\PIC32MX130F064B_peripherals.a(peripheral.o)
 .text.PLIB_RTCC_ExistsAlarmDate
                0x00000000        0x8 ..\..\..\..\..\..\..\..\microchip\harmony\v2_06\bin\framework\peripheral\PIC32MX130F064B_peripherals.a(peripheral.o)
 .text.PLIB_SB_ExistsPGVErrGroupStatus
                0x00000000        0x8 ..\..\..\..\..\..\..\..\microchip\harmony\v2_06\bin\framework\peripheral\PIC32MX130F064B_peripherals.a(peripheral.o)
 .text.PLIB_SB_PGVErrGroupStatus
                0x00000000        0x8 ..\..\..\..\..\..\..\..\microchip\harmony\v2_06\bin\framework\peripheral\PIC32MX130F064B_peripherals.a(peripheral.o)
 .text.PLIB_SB_ExistsPGVErrGroup0Status
                0x00000000        0x8 ..\..\..\..\..\..\..\..\microchip\harmony\v2_06\bin\framework\peripheral\PIC32MX130F064B_peripherals.a(peripheral.o)
 .text.PLIB_SB_PGVErrGroup0Status
                0x00000000        0x8 ..\..\..\..\..\..\..\..\microchip\harmony\v2_06\bin\framework\peripheral\PIC32MX130F064B_peripherals.a(peripheral.o)
 .text.PLIB_SB_ExistsPGVErrGroup1Status
                0x00000000        0x8 ..\..\..\..\..\..\..\..\microchip\harmony\v2_06\bin\framework\peripheral\PIC32MX130F064B_peripherals.a(peripheral.o)
 .text.PLIB_SB_PGVErrGroup1Status
                0x00000000        0x8 ..\..\..\..\..\..\..\..\microchip\harmony\v2_06\bin\framework\peripheral\PIC32MX130F064B_peripherals.a(peripheral.o)
 .text.PLIB_SB_ExistsPGVErrGroup2Status
                0x00000000        0x8 ..\..\..\..\..\..\..\..\microchip\harmony\v2_06\bin\framework\peripheral\PIC32MX130F064B_peripherals.a(peripheral.o)
 .text.PLIB_SB_PGVErrGroup2Status
                0x00000000        0x8 ..\..\..\..\..\..\..\..\microchip\harmony\v2_06\bin\framework\peripheral\PIC32MX130F064B_peripherals.a(peripheral.o)
 .text.PLIB_SB_ExistsPGVErrGroup3Status
                0x00000000        0x8 ..\..\..\..\..\..\..\..\microchip\harmony\v2_06\bin\framework\peripheral\PIC32MX130F064B_peripherals.a(peripheral.o)
 .text.PLIB_SB_PGVErrGroup3Status
                0x00000000        0x8 ..\..\..\..\..\..\..\..\microchip\harmony\v2_06\bin\framework\peripheral\PIC32MX130F064B_peripherals.a(peripheral.o)
 .text.PLIB_SB_ExistsPGVErrStatus
                0x00000000        0x8 ..\..\..\..\..\..\..\..\microchip\harmony\v2_06\bin\framework\peripheral\PIC32MX130F064B_peripherals.a(peripheral.o)
 .text.PLIB_SB_PGVErrorStatus
                0x00000000        0x8 ..\..\..\..\..\..\..\..\microchip\harmony\v2_06\bin\framework\peripheral\PIC32MX130F064B_peripherals.a(peripheral.o)
 .text.PLIB_SB_ExistsPGVErrClear
                0x00000000        0x8 ..\..\..\..\..\..\..\..\microchip\harmony\v2_06\bin\framework\peripheral\PIC32MX130F064B_peripherals.a(peripheral.o)
 .text.PLIB_SB_PGVErrorMulti
                0x00000000        0x8 ..\..\..\..\..\..\..\..\microchip\harmony\v2_06\bin\framework\peripheral\PIC32MX130F064B_peripherals.a(peripheral.o)
 .text.PLIB_SB_PGVErrorCode
                0x00000000        0x8 ..\..\..\..\..\..\..\..\microchip\harmony\v2_06\bin\framework\peripheral\PIC32MX130F064B_peripherals.a(peripheral.o)
 .text.PLIB_SB_PGVErrorLogClearSingle
                0x00000000        0x8 ..\..\..\..\..\..\..\..\microchip\harmony\v2_06\bin\framework\peripheral\PIC32MX130F064B_peripherals.a(peripheral.o)
 .text.PLIB_SB_PGVErrorLogClearMulti
                0x00000000        0x8 ..\..\..\..\..\..\..\..\microchip\harmony\v2_06\bin\framework\peripheral\PIC32MX130F064B_peripherals.a(peripheral.o)
 .text.PLIB_SB_ExistsPGVErrInitID
                0x00000000        0x8 ..\..\..\..\..\..\..\..\microchip\harmony\v2_06\bin\framework\peripheral\PIC32MX130F064B_peripherals.a(peripheral.o)
 .text.PLIB_SB_PGVErrorInitiatorID
                0x00000000        0x8 ..\..\..\..\..\..\..\..\microchip\harmony\v2_06\bin\framework\peripheral\PIC32MX130F064B_peripherals.a(peripheral.o)
 .text.PLIB_SB_ExistsPGVErrRegion
                0x00000000        0x8 ..\..\..\..\..\..\..\..\microchip\harmony\v2_06\bin\framework\peripheral\PIC32MX130F064B_peripherals.a(peripheral.o)
 .text.PLIB_SB_PGVErrorRegion
                0x00000000        0x8 ..\..\..\..\..\..\..\..\microchip\harmony\v2_06\bin\framework\peripheral\PIC32MX130F064B_peripherals.a(peripheral.o)
 .text.PLIB_SB_ExistsPGVErrCmdCode
                0x00000000        0x8 ..\..\..\..\..\..\..\..\microchip\harmony\v2_06\bin\framework\peripheral\PIC32MX130F064B_peripherals.a(peripheral.o)
 .text.PLIB_SB_PGVErrorCommandCode
                0x00000000        0x8 ..\..\..\..\..\..\..\..\microchip\harmony\v2_06\bin\framework\peripheral\PIC32MX130F064B_peripherals.a(peripheral.o)
 .text.PLIB_SB_ExistsPGVErrPG
                0x00000000        0x8 ..\..\..\..\..\..\..\..\microchip\harmony\v2_06\bin\framework\peripheral\PIC32MX130F064B_peripherals.a(peripheral.o)
 .text.PLIB_SB_PGVErrorPermissionGroup
                0x00000000        0x8 ..\..\..\..\..\..\..\..\microchip\harmony\v2_06\bin\framework\peripheral\PIC32MX130F064B_peripherals.a(peripheral.o)
 .text.PLIB_SB_ExistsPGVErrRptPri
                0x00000000        0x8 ..\..\..\..\..\..\..\..\microchip\harmony\v2_06\bin\framework\peripheral\PIC32MX130F064B_peripherals.a(peripheral.o)
 .text.PLIB_SB_PGVErrorReportPrimaryEnable
                0x00000000        0x8 ..\..\..\..\..\..\..\..\microchip\harmony\v2_06\bin\framework\peripheral\PIC32MX130F064B_peripherals.a(peripheral.o)
 .text.PLIB_SB_PGVErrorReportPrimaryDisable
                0x00000000        0x8 ..\..\..\..\..\..\..\..\microchip\harmony\v2_06\bin\framework\peripheral\PIC32MX130F064B_peripherals.a(peripheral.o)
 .text.PLIB_SB_ExistsPGVErrClrSingle
                0x00000000        0x8 ..\..\..\..\..\..\..\..\microchip\harmony\v2_06\bin\framework\peripheral\PIC32MX130F064B_peripherals.a(peripheral.o)
 .text.PLIB_SB_PGVErrorClearSingle
                0x00000000        0x8 ..\..\..\..\..\..\..\..\microchip\harmony\v2_06\bin\framework\peripheral\PIC32MX130F064B_peripherals.a(peripheral.o)
 .text.PLIB_SB_ExistsPGVErrClrMulti
                0x00000000        0x8 ..\..\..\..\..\..\..\..\microchip\harmony\v2_06\bin\framework\peripheral\PIC32MX130F064B_peripherals.a(peripheral.o)
 .text.PLIB_SB_PGVErrorClearMulti
                0x00000000        0x8 ..\..\..\..\..\..\..\..\microchip\harmony\v2_06\bin\framework\peripheral\PIC32MX130F064B_peripherals.a(peripheral.o)
 .text.PLIB_SB_PGRegionAddrSet
                0x00000000        0x8 ..\..\..\..\..\..\..\..\microchip\harmony\v2_06\bin\framework\peripheral\PIC32MX130F064B_peripherals.a(peripheral.o)
 .text.PLIB_SB_PGRegionAddrGet
                0x00000000        0x8 ..\..\..\..\..\..\..\..\microchip\harmony\v2_06\bin\framework\peripheral\PIC32MX130F064B_peripherals.a(peripheral.o)
 .text.PLIB_SB_ExistsPGRegAddr
                0x00000000        0x8 ..\..\..\..\..\..\..\..\microchip\harmony\v2_06\bin\framework\peripheral\PIC32MX130F064B_peripherals.a(peripheral.o)
 .text.PLIB_SB_PGRegionSizeSet
                0x00000000        0x8 ..\..\..\..\..\..\..\..\microchip\harmony\v2_06\bin\framework\peripheral\PIC32MX130F064B_peripherals.a(peripheral.o)
 .text.PLIB_SB_PGRegionSizeGet
                0x00000000        0x8 ..\..\..\..\..\..\..\..\microchip\harmony\v2_06\bin\framework\peripheral\PIC32MX130F064B_peripherals.a(peripheral.o)
 .text.PLIB_SB_ExistsPGRegSize
                0x00000000        0x8 ..\..\..\..\..\..\..\..\microchip\harmony\v2_06\bin\framework\peripheral\PIC32MX130F064B_peripherals.a(peripheral.o)
 .text.PLIB_SB_PGRegionReadPermSet
                0x00000000        0x8 ..\..\..\..\..\..\..\..\microchip\harmony\v2_06\bin\framework\peripheral\PIC32MX130F064B_peripherals.a(peripheral.o)
 .text.PLIB_SB_PGRegionReadPermClear
                0x00000000        0x8 ..\..\..\..\..\..\..\..\microchip\harmony\v2_06\bin\framework\peripheral\PIC32MX130F064B_peripherals.a(peripheral.o)
 .text.PLIB_SB_ExistsPGRegRdPerm
                0x00000000        0x8 ..\..\..\..\..\..\..\..\microchip\harmony\v2_06\bin\framework\peripheral\PIC32MX130F064B_peripherals.a(peripheral.o)
 .text.PLIB_SB_PGRegionWritePermSet
                0x00000000        0x8 ..\..\..\..\..\..\..\..\microchip\harmony\v2_06\bin\framework\peripheral\PIC32MX130F064B_peripherals.a(peripheral.o)
 .text.PLIB_SB_PGRegionWritePermClear
                0x00000000        0x8 ..\..\..\..\..\..\..\..\microchip\harmony\v2_06\bin\framework\peripheral\PIC32MX130F064B_peripherals.a(peripheral.o)
 .text.PLIB_SB_ExistsPGRegWrPerm
                0x00000000        0x8 ..\..\..\..\..\..\..\..\microchip\harmony\v2_06\bin\framework\peripheral\PIC32MX130F064B_peripherals.a(peripheral.o)
 .text.PLIB_SB_ExistsInitPermGrp
                0x00000000        0x8 ..\..\..\..\..\..\..\..\microchip\harmony\v2_06\bin\framework\peripheral\PIC32MX130F064B_peripherals.a(peripheral.o)
 .text.PLIB_SB_InitPermGrpSet
                0x00000000        0x8 ..\..\..\..\..\..\..\..\microchip\harmony\v2_06\bin\framework\peripheral\PIC32MX130F064B_peripherals.a(peripheral.o)
 .text.PLIB_SB_ExistsCPUPriority
                0x00000000        0x8 ..\..\..\..\..\..\..\..\microchip\harmony\v2_06\bin\framework\peripheral\PIC32MX130F064B_peripherals.a(peripheral.o)
 .text.PLIB_SB_CPUPrioritySet
                0x00000000        0x8 ..\..\..\..\..\..\..\..\microchip\harmony\v2_06\bin\framework\peripheral\PIC32MX130F064B_peripherals.a(peripheral.o)
 .text.PLIB_SB_ExistsDMAPriority
                0x00000000        0x8 ..\..\..\..\..\..\..\..\microchip\harmony\v2_06\bin\framework\peripheral\PIC32MX130F064B_peripherals.a(peripheral.o)
 .text.PLIB_SB_DMAPrioritySet
                0x00000000        0x8 ..\..\..\..\..\..\..\..\microchip\harmony\v2_06\bin\framework\peripheral\PIC32MX130F064B_peripherals.a(peripheral.o)
 .text.PLIB_SB_ExistsADCPriority
                0x00000000        0x8 ..\..\..\..\..\..\..\..\microchip\harmony\v2_06\bin\framework\peripheral\PIC32MX130F064B_peripherals.a(peripheral.o)
 .text.PLIB_SB_ADCPrioritySet
                0x00000000        0x8 ..\..\..\..\..\..\..\..\microchip\harmony\v2_06\bin\framework\peripheral\PIC32MX130F064B_peripherals.a(peripheral.o)
 .text.PLIB_SPI_Enable
                0x00000000       0x10 ..\..\..\..\..\..\..\..\microchip\harmony\v2_06\bin\framework\peripheral\PIC32MX130F064B_peripherals.a(peripheral.o)
 .text.PLIB_SPI_Disable
                0x00000000       0x10 ..\..\..\..\..\..\..\..\microchip\harmony\v2_06\bin\framework\peripheral\PIC32MX130F064B_peripherals.a(peripheral.o)
 .text.PLIB_SPI_ExistsEnableControl
                0x00000000        0x8 ..\..\..\..\..\..\..\..\microchip\harmony\v2_06\bin\framework\peripheral\PIC32MX130F064B_peripherals.a(peripheral.o)
 .text.PLIB_SPI_StopInIdleEnable
                0x00000000       0x10 ..\..\..\..\..\..\..\..\microchip\harmony\v2_06\bin\framework\peripheral\PIC32MX130F064B_peripherals.a(peripheral.o)
 .text.PLIB_SPI_StopInIdleDisable
                0x00000000       0x10 ..\..\..\..\..\..\..\..\microchip\harmony\v2_06\bin\framework\peripheral\PIC32MX130F064B_peripherals.a(peripheral.o)
 .text.PLIB_SPI_ExistsStopInIdleControl
                0x00000000        0x8 ..\..\..\..\..\..\..\..\microchip\harmony\v2_06\bin\framework\peripheral\PIC32MX130F064B_peripherals.a(peripheral.o)
 .text.PLIB_SPI_ReceiverHasOverflowed
                0x00000000        0xc ..\..\..\..\..\..\..\..\microchip\harmony\v2_06\bin\framework\peripheral\PIC32MX130F064B_peripherals.a(peripheral.o)
 .text.PLIB_SPI_ReceiverOverflowClear
                0x00000000       0x10 ..\..\..\..\..\..\..\..\microchip\harmony\v2_06\bin\framework\peripheral\PIC32MX130F064B_peripherals.a(peripheral.o)
 .text.PLIB_SPI_ExistsReceiverOverflow
                0x00000000        0x8 ..\..\..\..\..\..\..\..\microchip\harmony\v2_06\bin\framework\peripheral\PIC32MX130F064B_peripherals.a(peripheral.o)
 .text.PLIB_SPI_TransmitBufferIsFull
                0x00000000        0xc ..\..\..\..\..\..\..\..\microchip\harmony\v2_06\bin\framework\peripheral\PIC32MX130F064B_peripherals.a(peripheral.o)
 .text.PLIB_SPI_ExistsTransmitBufferFullStatus
                0x00000000        0x8 ..\..\..\..\..\..\..\..\microchip\harmony\v2_06\bin\framework\peripheral\PIC32MX130F064B_peripherals.a(peripheral.o)
 .text.PLIB_SPI_TransmitBufferIsEmpty
                0x00000000        0xc ..\..\..\..\..\..\..\..\microchip\harmony\v2_06\bin\framework\peripheral\PIC32MX130F064B_peripherals.a(peripheral.o)
 .text.PLIB_SPI_ExistsTransmitBufferEmptyStatus
                0x00000000        0x8 ..\..\..\..\..\..\..\..\microchip\harmony\v2_06\bin\framework\peripheral\PIC32MX130F064B_peripherals.a(peripheral.o)
 .text.PLIB_SPI_ReceiverBufferIsFull
                0x00000000        0xc ..\..\..\..\..\..\..\..\microchip\harmony\v2_06\bin\framework\peripheral\PIC32MX130F064B_peripherals.a(peripheral.o)
 .text.PLIB_SPI_ExistsReceiveBufferStatus
                0x00000000        0x8 ..\..\..\..\..\..\..\..\microchip\harmony\v2_06\bin\framework\peripheral\PIC32MX130F064B_peripherals.a(peripheral.o)
 .text.PLIB_SPI_PinEnable
                0x00000000       0x44 ..\..\..\..\..\..\..\..\microchip\harmony\v2_06\bin\framework\peripheral\PIC32MX130F064B_peripherals.a(peripheral.o)
 .text.PLIB_SPI_PinDisable
                0x00000000       0x44 ..\..\..\..\..\..\..\..\microchip\harmony\v2_06\bin\framework\peripheral\PIC32MX130F064B_peripherals.a(peripheral.o)
 .text.PLIB_SPI_ExistsPinControl
                0x00000000        0x8 ..\..\..\..\..\..\..\..\microchip\harmony\v2_06\bin\framework\peripheral\PIC32MX130F064B_peripherals.a(peripheral.o)
 .text.PLIB_SPI_CommunicationWidthSelect
                0x00000000       0x24 ..\..\..\..\..\..\..\..\microchip\harmony\v2_06\bin\framework\peripheral\PIC32MX130F064B_peripherals.a(peripheral.o)
 .text.PLIB_SPI_ExistsCommunicationWidth
                0x00000000        0x8 ..\..\..\..\..\..\..\..\microchip\harmony\v2_06\bin\framework\peripheral\PIC32MX130F064B_peripherals.a(peripheral.o)
 .text.PLIB_SPI_AudioCommunicationWidthSelect
                0x00000000       0x24 ..\..\..\..\..\..\..\..\microchip\harmony\v2_06\bin\framework\peripheral\PIC32MX130F064B_peripherals.a(peripheral.o)
 .text.PLIB_SPI_ExistsAudioCommunicationWidth
                0x00000000        0x8 ..\..\..\..\..\..\..\..\microchip\harmony\v2_06\bin\framework\peripheral\PIC32MX130F064B_peripherals.a(peripheral.o)
 .text.PLIB_SPI_InputSamplePhaseSelect
                0x00000000       0x14 ..\..\..\..\..\..\..\..\microchip\harmony\v2_06\bin\framework\peripheral\PIC32MX130F064B_peripherals.a(peripheral.o)
 .text.PLIB_SPI_ExistsInputSamplePhase
                0x00000000        0x8 ..\..\..\..\..\..\..\..\microchip\harmony\v2_06\bin\framework\peripheral\PIC32MX130F064B_peripherals.a(peripheral.o)
 .text.PLIB_SPI_OutputDataPhaseSelect
                0x00000000       0x14 ..\..\..\..\..\..\..\..\microchip\harmony\v2_06\bin\framework\peripheral\PIC32MX130F064B_peripherals.a(peripheral.o)
 .text.PLIB_SPI_ExistsOutputDataPhase
                0x00000000        0x8 ..\..\..\..\..\..\..\..\microchip\harmony\v2_06\bin\framework\peripheral\PIC32MX130F064B_peripherals.a(peripheral.o)
 .text.PLIB_SPI_ClockPolaritySelect
                0x00000000       0x14 ..\..\..\..\..\..\..\..\microchip\harmony\v2_06\bin\framework\peripheral\PIC32MX130F064B_peripherals.a(peripheral.o)
 .text.PLIB_SPI_ExistsClockPolarity
                0x00000000        0x8 ..\..\..\..\..\..\..\..\microchip\harmony\v2_06\bin\framework\peripheral\PIC32MX130F064B_peripherals.a(peripheral.o)
 .text.PLIB_SPI_MasterEnable
                0x00000000       0x10 ..\..\..\..\..\..\..\..\microchip\harmony\v2_06\bin\framework\peripheral\PIC32MX130F064B_peripherals.a(peripheral.o)
 .text.PLIB_SPI_SlaveEnable
                0x00000000       0x10 ..\..\..\..\..\..\..\..\microchip\harmony\v2_06\bin\framework\peripheral\PIC32MX130F064B_peripherals.a(peripheral.o)
 .text.PLIB_SPI_ExistsMasterControl
                0x00000000        0x8 ..\..\..\..\..\..\..\..\microchip\harmony\v2_06\bin\framework\peripheral\PIC32MX130F064B_peripherals.a(peripheral.o)
 .text.PLIB_SPI_BaudRateSet
                0x00000000       0x50 ..\..\..\..\..\..\..\..\microchip\harmony\v2_06\bin\framework\peripheral\PIC32MX130F064B_peripherals.a(peripheral.o)
 .text.PLIB_SPI_ExistsBaudRate
                0x00000000        0x8 ..\..\..\..\..\..\..\..\microchip\harmony\v2_06\bin\framework\peripheral\PIC32MX130F064B_peripherals.a(peripheral.o)
 .text.PLIB_SPI_IsBusy
                0x00000000        0xc ..\..\..\..\..\..\..\..\microchip\harmony\v2_06\bin\framework\peripheral\PIC32MX130F064B_peripherals.a(peripheral.o)
 .text.PLIB_SPI_ExistsBusStatus
                0x00000000        0x8 ..\..\..\..\..\..\..\..\microchip\harmony\v2_06\bin\framework\peripheral\PIC32MX130F064B_peripherals.a(peripheral.o)
 .text.PLIB_SPI_ReadDataIsSignExtended
                0x00000000        0xc ..\..\..\..\..\..\..\..\microchip\harmony\v2_06\bin\framework\peripheral\PIC32MX130F064B_peripherals.a(peripheral.o)
 .text.PLIB_SPI_ExistsReadDataSignStatus
                0x00000000        0x8 ..\..\..\..\..\..\..\..\microchip\harmony\v2_06\bin\framework\peripheral\PIC32MX130F064B_peripherals.a(peripheral.o)
 .text.PLIB_SPI_SlaveSelectEnable
                0x00000000       0x10 ..\..\..\..\..\..\..\..\microchip\harmony\v2_06\bin\framework\peripheral\PIC32MX130F064B_peripherals.a(peripheral.o)
 .text.PLIB_SPI_SlaveSelectDisable
                0x00000000       0x10 ..\..\..\..\..\..\..\..\microchip\harmony\v2_06\bin\framework\peripheral\PIC32MX130F064B_peripherals.a(peripheral.o)
 .text.PLIB_SPI_ExistsSlaveSelectControl
                0x00000000        0x8 ..\..\..\..\..\..\..\..\microchip\harmony\v2_06\bin\framework\peripheral\PIC32MX130F064B_peripherals.a(peripheral.o)
 .text.PLIB_SPI_TransmitUnderRunStatusGet
                0x00000000        0xc ..\..\..\..\..\..\..\..\microchip\harmony\v2_06\bin\framework\peripheral\PIC32MX130F064B_peripherals.a(peripheral.o)
 .text.PLIB_SPI_TransmitUnderRunStatusClear
                0x00000000       0x10 ..\..\..\..\..\..\..\..\microchip\harmony\v2_06\bin\framework\peripheral\PIC32MX130F064B_peripherals.a(peripheral.o)
 .text.PLIB_SPI_ExistsTransmitUnderRunStatus
                0x00000000        0x8 ..\..\..\..\..\..\..\..\microchip\harmony\v2_06\bin\framework\peripheral\PIC32MX130F064B_peripherals.a(peripheral.o)
 .text.PLIB_SPI_FIFOEnable
                0x00000000       0x10 ..\..\..\..\..\..\..\..\microchip\harmony\v2_06\bin\framework\peripheral\PIC32MX130F064B_peripherals.a(peripheral.o)
 .text.PLIB_SPI_FIFODisable
                0x00000000       0x10 ..\..\..\..\..\..\..\..\microchip\harmony\v2_06\bin\framework\peripheral\PIC32MX130F064B_peripherals.a(peripheral.o)
 .text.PLIB_SPI_ExistsFIFOControl
                0x00000000        0x8 ..\..\..\..\..\..\..\..\microchip\harmony\v2_06\bin\framework\peripheral\PIC32MX130F064B_peripherals.a(peripheral.o)
 .text.PLIB_SPI_FIFOCountGet
                0x00000000       0x30 ..\..\..\..\..\..\..\..\microchip\harmony\v2_06\bin\framework\peripheral\PIC32MX130F064B_peripherals.a(peripheral.o)
 .text.PLIB_SPI_ExistsFIFOCount
                0x00000000        0x8 ..\..\..\..\..\..\..\..\microchip\harmony\v2_06\bin\framework\peripheral\PIC32MX130F064B_peripherals.a(peripheral.o)
 .text.PLIB_SPI_ReceiverFIFOIsEmpty
                0x00000000        0xc ..\..\..\..\..\..\..\..\microchip\harmony\v2_06\bin\framework\peripheral\PIC32MX130F064B_peripherals.a(peripheral.o)
 .text.PLIB_SPI_ExistsReceiveFIFOStatus
                0x00000000        0x8 ..\..\..\..\..\..\..\..\microchip\harmony\v2_06\bin\framework\peripheral\PIC32MX130F064B_peripherals.a(peripheral.o)
 .text.PLIB_SPI_FIFOShiftRegisterIsEmpty
                0x00000000        0xc ..\..\..\..\..\..\..\..\microchip\harmony\v2_06\bin\framework\peripheral\PIC32MX130F064B_peripherals.a(peripheral.o)
 .text.PLIB_SPI_ExistsFIFOShiftRegisterEmptyStatus
                0x00000000        0x8 ..\..\..\..\..\..\..\..\microchip\harmony\v2_06\bin\framework\peripheral\PIC32MX130F064B_peripherals.a(peripheral.o)
 .text.PLIB_SPI_FIFOInterruptModeSelect
                0x00000000       0x3c ..\..\..\..\..\..\..\..\microchip\harmony\v2_06\bin\framework\peripheral\PIC32MX130F064B_peripherals.a(peripheral.o)
 .text.PLIB_SPI_ExistsFIFOInterruptMode
                0x00000000        0x8 ..\..\..\..\..\..\..\..\microchip\harmony\v2_06\bin\framework\peripheral\PIC32MX130F064B_peripherals.a(peripheral.o)
 .text.PLIB_SPI_FramedCommunicationEnable
                0x00000000       0x10 ..\..\..\..\..\..\..\..\microchip\harmony\v2_06\bin\framework\peripheral\PIC32MX130F064B_peripherals.a(peripheral.o)
 .text.PLIB_SPI_FramedCommunicationDisable
                0x00000000       0x10 ..\..\..\..\..\..\..\..\microchip\harmony\v2_06\bin\framework\peripheral\PIC32MX130F064B_peripherals.a(peripheral.o)
 .text.PLIB_SPI_ExistsFramedCommunication
                0x00000000        0x8 ..\..\..\..\..\..\..\..\microchip\harmony\v2_06\bin\framework\peripheral\PIC32MX130F064B_peripherals.a(peripheral.o)
 .text.PLIB_SPI_FrameSyncPulseDirectionSelect
                0x00000000       0x14 ..\..\..\..\..\..\..\..\microchip\harmony\v2_06\bin\framework\peripheral\PIC32MX130F064B_peripherals.a(peripheral.o)
 .text.PLIB_SPI_ExistsFrameSyncPulseDirection
                0x00000000        0x8 ..\..\..\..\..\..\..\..\microchip\harmony\v2_06\bin\framework\peripheral\PIC32MX130F064B_peripherals.a(peripheral.o)
 .text.PLIB_SPI_FrameSyncPulsePolaritySelect
                0x00000000       0x14 ..\..\..\..\..\..\..\..\microchip\harmony\v2_06\bin\framework\peripheral\PIC32MX130F064B_peripherals.a(peripheral.o)
 .text.PLIB_SPI_ExistsFrameSyncPulsePolarity
                0x00000000        0x8 ..\..\..\..\..\..\..\..\microchip\harmony\v2_06\bin\framework\peripheral\PIC32MX130F064B_peripherals.a(peripheral.o)
 .text.PLIB_SPI_FrameSyncPulseEdgeSelect
                0x00000000       0x14 ..\..\..\..\..\..\..\..\microchip\harmony\v2_06\bin\framework\peripheral\PIC32MX130F064B_peripherals.a(peripheral.o)
 .text.PLIB_SPI_ExistsFrameSyncPulseEdge
                0x00000000        0x8 ..\..\..\..\..\..\..\..\microchip\harmony\v2_06\bin\framework\peripheral\PIC32MX130F064B_peripherals.a(peripheral.o)
 .text.PLIB_SPI_FrameSyncPulseWidthSelect
                0x00000000       0x14 ..\..\..\..\..\..\..\..\microchip\harmony\v2_06\bin\framework\peripheral\PIC32MX130F064B_peripherals.a(peripheral.o)
 .text.PLIB_SPI_ExistsFrameSyncPulseWidth
                0x00000000        0x8 ..\..\..\..\..\..\..\..\microchip\harmony\v2_06\bin\framework\peripheral\PIC32MX130F064B_peripherals.a(peripheral.o)
 .text.PLIB_SPI_FrameSyncPulseCounterSelect
                0x00000000       0x14 ..\..\..\..\..\..\..\..\microchip\harmony\v2_06\bin\framework\peripheral\PIC32MX130F064B_peripherals.a(peripheral.o)
 .text.PLIB_SPI_ExistsFrameSyncPulseCounter
                0x00000000        0x8 ..\..\..\..\..\..\..\..\microchip\harmony\v2_06\bin\framework\peripheral\PIC32MX130F064B_peripherals.a(peripheral.o)
 .text.PLIB_SPI_FrameErrorStatusGet
                0x00000000        0xc ..\..\..\..\..\..\..\..\microchip\harmony\v2_06\bin\framework\peripheral\PIC32MX130F064B_peripherals.a(peripheral.o)
 .text.PLIB_SPI_FrameErrorStatusClear
                0x00000000       0x10 ..\..\..\..\..\..\..\..\microchip\harmony\v2_06\bin\framework\peripheral\PIC32MX130F064B_peripherals.a(peripheral.o)
 .text.PLIB_SPI_ExistsFrameErrorStatus
                0x00000000        0x8 ..\..\..\..\..\..\..\..\microchip\harmony\v2_06\bin\framework\peripheral\PIC32MX130F064B_peripherals.a(peripheral.o)
 .text.PLIB_SPI_BufferClear
                0x00000000       0x48 ..\..\..\..\..\..\..\..\microchip\harmony\v2_06\bin\framework\peripheral\PIC32MX130F064B_peripherals.a(peripheral.o)
 .text.PLIB_SPI_BufferRead
                0x00000000        0xc ..\..\..\..\..\..\..\..\microchip\harmony\v2_06\bin\framework\peripheral\PIC32MX130F064B_peripherals.a(peripheral.o)
 .text.PLIB_SPI_BufferWrite
                0x00000000        0xc ..\..\..\..\..\..\..\..\microchip\harmony\v2_06\bin\framework\peripheral\PIC32MX130F064B_peripherals.a(peripheral.o)
 .text.PLIB_SPI_ExistsBuffer
                0x00000000        0x8 ..\..\..\..\..\..\..\..\microchip\harmony\v2_06\bin\framework\peripheral\PIC32MX130F064B_peripherals.a(peripheral.o)
 .text.PLIB_SPI_BufferAddressGet
                0x00000000        0x8 ..\..\..\..\..\..\..\..\microchip\harmony\v2_06\bin\framework\peripheral\PIC32MX130F064B_peripherals.a(peripheral.o)
 .text.PLIB_SPI_BaudRateClockSelect
                0x00000000       0x14 ..\..\..\..\..\..\..\..\microchip\harmony\v2_06\bin\framework\peripheral\PIC32MX130F064B_peripherals.a(peripheral.o)
 .text.PLIB_SPI_ExistsBaudRateClock
                0x00000000        0x8 ..\..\..\..\..\..\..\..\microchip\harmony\v2_06\bin\framework\peripheral\PIC32MX130F064B_peripherals.a(peripheral.o)
 .text.PLIB_SPI_ErrorInterruptEnable
                0x00000000        0xc ..\..\..\..\..\..\..\..\microchip\harmony\v2_06\bin\framework\peripheral\PIC32MX130F064B_peripherals.a(peripheral.o)
 .text.PLIB_SPI_ErrorInterruptDisable
                0x00000000        0xc ..\..\..\..\..\..\..\..\microchip\harmony\v2_06\bin\framework\peripheral\PIC32MX130F064B_peripherals.a(peripheral.o)
 .text.PLIB_SPI_ExistsErrorInterruptControl
                0x00000000        0x8 ..\..\..\..\..\..\..\..\microchip\harmony\v2_06\bin\framework\peripheral\PIC32MX130F064B_peripherals.a(peripheral.o)
 .text.PLIB_SPI_AudioErrorEnable
                0x00000000        0xc ..\..\..\..\..\..\..\..\microchip\harmony\v2_06\bin\framework\peripheral\PIC32MX130F064B_peripherals.a(peripheral.o)
 .text.PLIB_SPI_AudioErrorDisable
                0x00000000        0xc ..\..\..\..\..\..\..\..\microchip\harmony\v2_06\bin\framework\peripheral\PIC32MX130F064B_peripherals.a(peripheral.o)
 .text.PLIB_SPI_ExistsAudioErrorControl
                0x00000000        0x8 ..\..\..\..\..\..\..\..\microchip\harmony\v2_06\bin\framework\peripheral\PIC32MX130F064B_peripherals.a(peripheral.o)
 .text.PLIB_SPI_AudioProtocolEnable
                0x00000000       0x10 ..\..\..\..\..\..\..\..\microchip\harmony\v2_06\bin\framework\peripheral\PIC32MX130F064B_peripherals.a(peripheral.o)
 .text.PLIB_SPI_AudioProtocolDisable
                0x00000000       0x10 ..\..\..\..\..\..\..\..\microchip\harmony\v2_06\bin\framework\peripheral\PIC32MX130F064B_peripherals.a(peripheral.o)
 .text.PLIB_SPI_ExistsAudioProtocolControl
                0x00000000        0x8 ..\..\..\..\..\..\..\..\microchip\harmony\v2_06\bin\framework\peripheral\PIC32MX130F064B_peripherals.a(peripheral.o)
 .text.PLIB_SPI_AudioTransmitModeSelect
                0x00000000       0x14 ..\..\..\..\..\..\..\..\microchip\harmony\v2_06\bin\framework\peripheral\PIC32MX130F064B_peripherals.a(peripheral.o)
 .text.PLIB_SPI_ExistsAudioTransmitMode
                0x00000000        0x8 ..\..\..\..\..\..\..\..\microchip\harmony\v2_06\bin\framework\peripheral\PIC32MX130F064B_peripherals.a(peripheral.o)
 .text.PLIB_SPI_AudioProtocolModeSelect
                0x00000000       0x14 ..\..\..\..\..\..\..\..\microchip\harmony\v2_06\bin\framework\peripheral\PIC32MX130F064B_peripherals.a(peripheral.o)
 .text.PLIB_SPI_ExistsAudioProtocolMode
                0x00000000        0x8 ..\..\..\..\..\..\..\..\microchip\harmony\v2_06\bin\framework\peripheral\PIC32MX130F064B_peripherals.a(peripheral.o)
 .text.PLIB_SPI_BufferRead32bit
                0x00000000        0xc ..\..\..\..\..\..\..\..\microchip\harmony\v2_06\bin\framework\peripheral\PIC32MX130F064B_peripherals.a(peripheral.o)
 .text.PLIB_SPI_BufferWrite32bit
                0x00000000        0xc ..\..\..\..\..\..\..\..\microchip\harmony\v2_06\bin\framework\peripheral\PIC32MX130F064B_peripherals.a(peripheral.o)
 .text.PLIB_SPI_Exists32bitBuffer
                0x00000000        0x8 ..\..\..\..\..\..\..\..\microchip\harmony\v2_06\bin\framework\peripheral\PIC32MX130F064B_peripherals.a(peripheral.o)
 .text.PLIB_SPI_BufferRead16bit
                0x00000000        0xc ..\..\..\..\..\..\..\..\microchip\harmony\v2_06\bin\framework\peripheral\PIC32MX130F064B_peripherals.a(peripheral.o)
 .text.PLIB_SPI_BufferWrite16bit
                0x00000000        0xc ..\..\..\..\..\..\..\..\microchip\harmony\v2_06\bin\framework\peripheral\PIC32MX130F064B_peripherals.a(peripheral.o)
 .text.PLIB_SPI_Exists16bitBuffer
                0x00000000        0x8 ..\..\..\..\..\..\..\..\microchip\harmony\v2_06\bin\framework\peripheral\PIC32MX130F064B_peripherals.a(peripheral.o)
 .text.PLIB_SQI_XIPSDRCommandDDRDataSet
                0x00000000        0x8 ..\..\..\..\..\..\..\..\microchip\harmony\v2_06\bin\framework\peripheral\PIC32MX130F064B_peripherals.a(peripheral.o)
 .text.PLIB_SQI_XIPSDRCommandDDRDataGet
                0x00000000        0x8 ..\..\..\..\..\..\..\..\microchip\harmony\v2_06\bin\framework\peripheral\PIC32MX130F064B_peripherals.a(peripheral.o)
 .text.PLIB_SQI_ExistsXIPSDRCommandDDRData
                0x00000000        0x8 ..\..\..\..\..\..\..\..\microchip\harmony\v2_06\bin\framework\peripheral\PIC32MX130F064B_peripherals.a(peripheral.o)
 .text.PLIB_SQI_XIPDDRModeSet
                0x00000000        0x8 ..\..\..\..\..\..\..\..\microchip\harmony\v2_06\bin\framework\peripheral\PIC32MX130F064B_peripherals.a(peripheral.o)
 .text.PLIB_SQI_ExistsXIPDDRMode
                0x00000000        0x8 ..\..\..\..\..\..\..\..\microchip\harmony\v2_06\bin\framework\peripheral\PIC32MX130F064B_peripherals.a(peripheral.o)
 .text.PLIB_SQI_XIPDummyBytesSet
                0x00000000        0x8 ..\..\..\..\..\..\..\..\microchip\harmony\v2_06\bin\framework\peripheral\PIC32MX130F064B_peripherals.a(peripheral.o)
 .text.PLIB_SQI_XIPDummyBytesGet
                0x00000000        0x8 ..\..\..\..\..\..\..\..\microchip\harmony\v2_06\bin\framework\peripheral\PIC32MX130F064B_peripherals.a(peripheral.o)
 .text.PLIB_SQI_ExistsXIPNumberOfDummyBytes
                0x00000000        0x8 ..\..\..\..\..\..\..\..\microchip\harmony\v2_06\bin\framework\peripheral\PIC32MX130F064B_peripherals.a(peripheral.o)
 .text.PLIB_SQI_XIPAddressBytesSet
                0x00000000        0x8 ..\..\..\..\..\..\..\..\microchip\harmony\v2_06\bin\framework\peripheral\PIC32MX130F064B_peripherals.a(peripheral.o)
 .text.PLIB_SQI_XIPAddressBytesGet
                0x00000000        0x8 ..\..\..\..\..\..\..\..\microchip\harmony\v2_06\bin\framework\peripheral\PIC32MX130F064B_peripherals.a(peripheral.o)
 .text.PLIB_SQI_ExistsXIPNumberOfAddressBytes
                0x00000000        0x8 ..\..\..\..\..\..\..\..\microchip\harmony\v2_06\bin\framework\peripheral\PIC32MX130F064B_peripherals.a(peripheral.o)
 .text.PLIB_SQI_XIPReadOpcodeSet
                0x00000000        0x8 ..\..\..\..\..\..\..\..\microchip\harmony\v2_06\bin\framework\peripheral\PIC32MX130F064B_peripherals.a(peripheral.o)
 .text.PLIB_SQI_XIPReadOpcodeGet
                0x00000000        0x8 ..\..\..\..\..\..\..\..\microchip\harmony\v2_06\bin\framework\peripheral\PIC32MX130F064B_peripherals.a(peripheral.o)
 .text.PLIB_SQI_ExistsXIPReadOpCode
                0x00000000        0x8 ..\..\..\..\..\..\..\..\microchip\harmony\v2_06\bin\framework\peripheral\PIC32MX130F064B_peripherals.a(peripheral.o)
 .text.PLIB_SQI_XIPLaneModeSet
                0x00000000        0x8 ..\..\..\..\..\..\..\..\microchip\harmony\v2_06\bin\framework\peripheral\PIC32MX130F064B_peripherals.a(peripheral.o)
 .text.PLIB_SQI_ExistsXIPLaneMode
                0x00000000        0x8 ..\..\..\..\..\..\..\..\microchip\harmony\v2_06\bin\framework\peripheral\PIC32MX130F064B_peripherals.a(peripheral.o)
 .text.PLIB_SQI_XIPControlWord1Set
                0x00000000        0x8 ..\..\..\..\..\..\..\..\microchip\harmony\v2_06\bin\framework\peripheral\PIC32MX130F064B_peripherals.a(peripheral.o)
 .text.PLIB_SQI_XIPControlWord1Get
                0x00000000        0x8 ..\..\..\..\..\..\..\..\microchip\harmony\v2_06\bin\framework\peripheral\PIC32MX130F064B_peripherals.a(peripheral.o)
 .text.PLIB_SQI_ExistsXIPControlWord1
                0x00000000        0x8 ..\..\..\..\..\..\..\..\microchip\harmony\v2_06\bin\framework\peripheral\PIC32MX130F064B_peripherals.a(peripheral.o)
 .text.PLIB_SQI_XIPChipSelectSet
                0x00000000        0x8 ..\..\..\..\..\..\..\..\microchip\harmony\v2_06\bin\framework\peripheral\PIC32MX130F064B_peripherals.a(peripheral.o)
 .text.PLIB_SQI_XIPChipSelectGet
                0x00000000        0x8 ..\..\..\..\..\..\..\..\microchip\harmony\v2_06\bin\framework\peripheral\PIC32MX130F064B_peripherals.a(peripheral.o)
 .text.PLIB_SQI_ExistsXIPChipSelect
                0x00000000        0x8 ..\..\..\..\..\..\..\..\microchip\harmony\v2_06\bin\framework\peripheral\PIC32MX130F064B_peripherals.a(peripheral.o)
 .text.PLIB_SQI_XIPModeBytesSet
                0x00000000        0x8 ..\..\..\..\..\..\..\..\microchip\harmony\v2_06\bin\framework\peripheral\PIC32MX130F064B_peripherals.a(peripheral.o)
 .text.PLIB_SQI_XIPModeBytesGet
                0x00000000        0x8 ..\..\..\..\..\..\..\..\microchip\harmony\v2_06\bin\framework\peripheral\PIC32MX130F064B_peripherals.a(peripheral.o)
 .text.PLIB_SQI_ExistsXIPModeBytes
                0x00000000        0x8 ..\..\..\..\..\..\..\..\microchip\harmony\v2_06\bin\framework\peripheral\PIC32MX130F064B_peripherals.a(peripheral.o)
 .text.PLIB_SQI_XIPModeCodeSet
                0x00000000        0x8 ..\..\..\..\..\..\..\..\microchip\harmony\v2_06\bin\framework\peripheral\PIC32MX130F064B_peripherals.a(peripheral.o)
 .text.PLIB_SQI_XIPModeCodeGet
                0x00000000        0x8 ..\..\..\..\..\..\..\..\microchip\harmony\v2_06\bin\framework\peripheral\PIC32MX130F064B_peripherals.a(peripheral.o)
 .text.PLIB_SQI_ExistsXIPModeCode
                0x00000000        0x8 ..\..\..\..\..\..\..\..\microchip\harmony\v2_06\bin\framework\peripheral\PIC32MX130F064B_peripherals.a(peripheral.o)
 .text.PLIB_SQI_XIPControlWord2Set
                0x00000000        0x8 ..\..\..\..\..\..\..\..\microchip\harmony\v2_06\bin\framework\peripheral\PIC32MX130F064B_peripherals.a(peripheral.o)
 .text.PLIB_SQI_XIPControlWord2Get
                0x00000000        0x8 ..\..\..\..\..\..\..\..\microchip\harmony\v2_06\bin\framework\peripheral\PIC32MX130F064B_peripherals.a(peripheral.o)
 .text.PLIB_SQI_ExistsXIPControlWord2
                0x00000000        0x8 ..\..\..\..\..\..\..\..\microchip\harmony\v2_06\bin\framework\peripheral\PIC32MX130F064B_peripherals.a(peripheral.o)
 .text.PLIB_SQI_Enable
                0x00000000        0x8 ..\..\..\..\..\..\..\..\microchip\harmony\v2_06\bin\framework\peripheral\PIC32MX130F064B_peripherals.a(peripheral.o)
 .text.PLIB_SQI_Disable
                0x00000000        0x8 ..\..\..\..\..\..\..\..\microchip\harmony\v2_06\bin\framework\peripheral\PIC32MX130F064B_peripherals.a(peripheral.o)
 .text.PLIB_SQI_ExistsEnableControl
                0x00000000        0x8 ..\..\..\..\..\..\..\..\microchip\harmony\v2_06\bin\framework\peripheral\PIC32MX130F064B_peripherals.a(peripheral.o)
 .text.PLIB_SQI_CSOutputEnableSelect
                0x00000000        0x8 ..\..\..\..\..\..\..\..\microchip\harmony\v2_06\bin\framework\peripheral\PIC32MX130F064B_peripherals.a(peripheral.o)
 .text.PLIB_SQI_ExistsCSOutputEnable
                0x00000000        0x8 ..\..\..\..\..\..\..\..\microchip\harmony\v2_06\bin\framework\peripheral\PIC32MX130F064B_peripherals.a(peripheral.o)
 .text.PLIB_SQI_DataOutputEnableSelect
                0x00000000        0x8 ..\..\..\..\..\..\..\..\microchip\harmony\v2_06\bin\framework\peripheral\PIC32MX130F064B_peripherals.a(peripheral.o)
 .text.PLIB_SQI_ExistsDataOutputEnable
                0x00000000        0x8 ..\..\..\..\..\..\..\..\microchip\harmony\v2_06\bin\framework\peripheral\PIC32MX130F064B_peripherals.a(peripheral.o)
 .text.PLIB_SQI_ConBufferSoftReset
                0x00000000        0x8 ..\..\..\..\..\..\..\..\microchip\harmony\v2_06\bin\framework\peripheral\PIC32MX130F064B_peripherals.a(peripheral.o)
 .text.PLIB_SQI_ExistsConBufferSoftReset
                0x00000000        0x8 ..\..\..\..\..\..\..\..\microchip\harmony\v2_06\bin\framework\peripheral\PIC32MX130F064B_peripherals.a(peripheral.o)
 .text.PLIB_SQI_RxBufferSoftReset
                0x00000000        0x8 ..\..\..\..\..\..\..\..\microchip\harmony\v2_06\bin\framework\peripheral\PIC32MX130F064B_peripherals.a(peripheral.o)
 .text.PLIB_SQI_ExistsRxBufferSoftReset
                0x00000000        0x8 ..\..\..\..\..\..\..\..\microchip\harmony\v2_06\bin\framework\peripheral\PIC32MX130F064B_peripherals.a(peripheral.o)
 .text.PLIB_SQI_TxBufferSoftReset
                0x00000000        0x8 ..\..\..\..\..\..\..\..\microchip\harmony\v2_06\bin\framework\peripheral\PIC32MX130F064B_peripherals.a(peripheral.o)
 .text.PLIB_SQI_ExistsTxBufferSoftReset
                0x00000000        0x8 ..\..\..\..\..\..\..\..\microchip\harmony\v2_06\bin\framework\peripheral\PIC32MX130F064B_peripherals.a(peripheral.o)
 .text.PLIB_SQI_SoftReset
                0x00000000        0x8 ..\..\..\..\..\..\..\..\microchip\harmony\v2_06\bin\framework\peripheral\PIC32MX130F064B_peripherals.a(peripheral.o)
 .text.PLIB_SQI_ExistsSoftReset
                0x00000000        0x8 ..\..\..\..\..\..\..\..\microchip\harmony\v2_06\bin\framework\peripheral\PIC32MX130F064B_peripherals.a(peripheral.o)
 .text.PLIB_SQI_BurstEnable
                0x00000000        0x8 ..\..\..\..\..\..\..\..\microchip\harmony\v2_06\bin\framework\peripheral\PIC32MX130F064B_peripherals.a(peripheral.o)
 .text.PLIB_SQI_ExistsBurstControl
                0x00000000        0x8 ..\..\..\..\..\..\..\..\microchip\harmony\v2_06\bin\framework\peripheral\PIC32MX130F064B_peripherals.a(peripheral.o)
 .text.PLIB_SQI_HoldSet
                0x00000000        0x8 ..\..\..\..\..\..\..\..\microchip\harmony\v2_06\bin\framework\peripheral\PIC32MX130F064B_peripherals.a(peripheral.o)
 .text.PLIB_SQI_HoldClear
                0x00000000        0x8 ..\..\..\..\..\..\..\..\microchip\harmony\v2_06\bin\framework\peripheral\PIC32MX130F064B_peripherals.a(peripheral.o)
 .text.PLIB_SQI_HoldGet
                0x00000000        0x8 ..\..\..\..\..\..\..\..\microchip\harmony\v2_06\bin\framework\peripheral\PIC32MX130F064B_peripherals.a(peripheral.o)
 .text.PLIB_SQI_ExistsHoldPinControl
                0x00000000        0x8 ..\..\..\..\..\..\..\..\microchip\harmony\v2_06\bin\framework\peripheral\PIC32MX130F064B_peripherals.a(peripheral.o)
 .text.PLIB_SQI_WriteProtectSet
                0x00000000        0x8 ..\..\..\..\..\..\..\..\microchip\harmony\v2_06\bin\framework\peripheral\PIC32MX130F064B_peripherals.a(peripheral.o)
 .text.PLIB_SQI_WriteProtectClear
                0x00000000        0x8 ..\..\..\..\..\..\..\..\microchip\harmony\v2_06\bin\framework\peripheral\PIC32MX130F064B_peripherals.a(peripheral.o)
 .text.PLIB_SQI_WriteProtectGet
                0x00000000        0x8 ..\..\..\..\..\..\..\..\microchip\harmony\v2_06\bin\framework\peripheral\PIC32MX130F064B_peripherals.a(peripheral.o)
 .text.PLIB_SQI_ExistsWPPinControl
                0x00000000        0x8 ..\..\..\..\..\..\..\..\microchip\harmony\v2_06\bin\framework\peripheral\PIC32MX130F064B_peripherals.a(peripheral.o)
 .text.PLIB_SQI_ReceiveLatchEnable
                0x00000000        0x8 ..\..\..\..\..\..\..\..\microchip\harmony\v2_06\bin\framework\peripheral\PIC32MX130F064B_peripherals.a(peripheral.o)
 .text.PLIB_SQI_ReceiveLatchDisable
                0x00000000        0x8 ..\..\..\..\..\..\..\..\microchip\harmony\v2_06\bin\framework\peripheral\PIC32MX130F064B_peripherals.a(peripheral.o)
 .text.PLIB_SQI_ReceiveLatchGet
                0x00000000        0x8 ..\..\..\..\..\..\..\..\microchip\harmony\v2_06\bin\framework\peripheral\PIC32MX130F064B_peripherals.a(peripheral.o)
 .text.PLIB_SQI_ExistsReceiveLatch
                0x00000000        0x8 ..\..\..\..\..\..\..\..\microchip\harmony\v2_06\bin\framework\peripheral\PIC32MX130F064B_peripherals.a(peripheral.o)
 .text.PLIB_SQI_DataFormatSet
                0x00000000        0x8 ..\..\..\..\..\..\..\..\microchip\harmony\v2_06\bin\framework\peripheral\PIC32MX130F064B_peripherals.a(peripheral.o)
 .text.PLIB_SQI_DataFormatGet
                0x00000000        0x8 ..\..\..\..\..\..\..\..\microchip\harmony\v2_06\bin\framework\peripheral\PIC32MX130F064B_peripherals.a(peripheral.o)
 .text.PLIB_SQI_ExistsDataFormat
                0x00000000        0x8 ..\..\..\..\..\..\..\..\microchip\harmony\v2_06\bin\framework\peripheral\PIC32MX130F064B_peripherals.a(peripheral.o)
 .text.PLIB_SQI_DataModeSet
                0x00000000        0x8 ..\..\..\..\..\..\..\..\microchip\harmony\v2_06\bin\framework\peripheral\PIC32MX130F064B_peripherals.a(peripheral.o)
 .text.PLIB_SQI_ExistsDataModeControl
                0x00000000        0x8 ..\..\..\..\..\..\..\..\microchip\harmony\v2_06\bin\framework\peripheral\PIC32MX130F064B_peripherals.a(peripheral.o)
 .text.PLIB_SQI_TransferModeSet
                0x00000000        0x8 ..\..\..\..\..\..\..\..\microchip\harmony\v2_06\bin\framework\peripheral\PIC32MX130F064B_peripherals.a(peripheral.o)
 .text.PLIB_SQI_TransferModeGet
                0x00000000        0x8 ..\..\..\..\..\..\..\..\microchip\harmony\v2_06\bin\framework\peripheral\PIC32MX130F064B_peripherals.a(peripheral.o)
 .text.PLIB_SQI_ExistsTransferModeControl
                0x00000000        0x8 ..\..\..\..\..\..\..\..\microchip\harmony\v2_06\bin\framework\peripheral\PIC32MX130F064B_peripherals.a(peripheral.o)
 .text.PLIB_SQI_ConfigWordSet
                0x00000000        0x8 ..\..\..\..\..\..\..\..\microchip\harmony\v2_06\bin\framework\peripheral\PIC32MX130F064B_peripherals.a(peripheral.o)
 .text.PLIB_SQI_ConfigWordGet
                0x00000000        0x8 ..\..\..\..\..\..\..\..\microchip\harmony\v2_06\bin\framework\peripheral\PIC32MX130F064B_peripherals.a(peripheral.o)
 .text.PLIB_SQI_ExistsConfigWord
                0x00000000        0x8 ..\..\..\..\..\..\..\..\microchip\harmony\v2_06\bin\framework\peripheral\PIC32MX130F064B_peripherals.a(peripheral.o)
 .text.PLIB_SQI_StatusCheckSet
                0x00000000        0x8 ..\..\..\..\..\..\..\..\microchip\harmony\v2_06\bin\framework\peripheral\PIC32MX130F064B_peripherals.a(peripheral.o)
 .text.PLIB_SQI_ExistsStatusCheck
                0x00000000        0x8 ..\..\..\..\..\..\..\..\microchip\harmony\v2_06\bin\framework\peripheral\PIC32MX130F064B_peripherals.a(peripheral.o)
 .text.PLIB_SQI_DDRModeSet
                0x00000000        0x8 ..\..\..\..\..\..\..\..\microchip\harmony\v2_06\bin\framework\peripheral\PIC32MX130F064B_peripherals.a(peripheral.o)
 .text.PLIB_SQI_DDRModeGet
                0x00000000        0x8 ..\..\..\..\..\..\..\..\microchip\harmony\v2_06\bin\framework\peripheral\PIC32MX130F064B_peripherals.a(peripheral.o)
 .text.PLIB_SQI_DDRModeClear
                0x00000000        0x8 ..\..\..\..\..\..\..\..\microchip\harmony\v2_06\bin\framework\peripheral\PIC32MX130F064B_peripherals.a(peripheral.o)
 .text.PLIB_SQI_ExistsDDRMode
                0x00000000        0x8 ..\..\..\..\..\..\..\..\microchip\harmony\v2_06\bin\framework\peripheral\PIC32MX130F064B_peripherals.a(peripheral.o)
 .text.PLIB_SQI_ChipSelectDeassertEnable
                0x00000000        0x8 ..\..\..\..\..\..\..\..\microchip\harmony\v2_06\bin\framework\peripheral\PIC32MX130F064B_peripherals.a(peripheral.o)
 .text.PLIB_SQI_ChipSelectDeassertDisable
                0x00000000        0x8 ..\..\..\..\..\..\..\..\microchip\harmony\v2_06\bin\framework\peripheral\PIC32MX130F064B_peripherals.a(peripheral.o)
 .text.PLIB_SQI_ExistsCSDeassert
                0x00000000        0x8 ..\..\..\..\..\..\..\..\microchip\harmony\v2_06\bin\framework\peripheral\PIC32MX130F064B_peripherals.a(peripheral.o)
 .text.PLIB_SQI_ChipSelectSet
                0x00000000        0x8 ..\..\..\..\..\..\..\..\microchip\harmony\v2_06\bin\framework\peripheral\PIC32MX130F064B_peripherals.a(peripheral.o)
 .text.PLIB_SQI_ChipSelectGet
                0x00000000        0x8 ..\..\..\..\..\..\..\..\microchip\harmony\v2_06\bin\framework\peripheral\PIC32MX130F064B_peripherals.a(peripheral.o)
 .text.PLIB_SQI_ExistsChipSelect
                0x00000000        0x8 ..\..\..\..\..\..\..\..\microchip\harmony\v2_06\bin\framework\peripheral\PIC32MX130F064B_peripherals.a(peripheral.o)
 .text.PLIB_SQI_LaneModeSet
                0x00000000        0x8 ..\..\..\..\..\..\..\..\microchip\harmony\v2_06\bin\framework\peripheral\PIC32MX130F064B_peripherals.a(peripheral.o)
 .text.PLIB_SQI_LaneModeGet
                0x00000000        0x8 ..\..\..\..\..\..\..\..\microchip\harmony\v2_06\bin\framework\peripheral\PIC32MX130F064B_peripherals.a(peripheral.o)
 .text.PLIB_SQI_ExistsLaneMode
                0x00000000        0x8 ..\..\..\..\..\..\..\..\microchip\harmony\v2_06\bin\framework\peripheral\PIC32MX130F064B_peripherals.a(peripheral.o)
 .text.PLIB_SQI_TransferDirectionSet
                0x00000000        0x8 ..\..\..\..\..\..\..\..\microchip\harmony\v2_06\bin\framework\peripheral\PIC32MX130F064B_peripherals.a(peripheral.o)
 .text.PLIB_SQI_TransferDirectionGet
                0x00000000        0x8 ..\..\..\..\..\..\..\..\microchip\harmony\v2_06\bin\framework\peripheral\PIC32MX130F064B_peripherals.a(peripheral.o)
 .text.PLIB_SQI_ExistsTransferCommand
                0x00000000        0x8 ..\..\..\..\..\..\..\..\microchip\harmony\v2_06\bin\framework\peripheral\PIC32MX130F064B_peripherals.a(peripheral.o)
 .text.PLIB_SQI_ByteCountSet
                0x00000000        0x8 ..\..\..\..\..\..\..\..\microchip\harmony\v2_06\bin\framework\peripheral\PIC32MX130F064B_peripherals.a(peripheral.o)
 .text.PLIB_SQI_ByteCountGet
                0x00000000        0x8 ..\..\..\..\..\..\..\..\microchip\harmony\v2_06\bin\framework\peripheral\PIC32MX130F064B_peripherals.a(peripheral.o)
 .text.PLIB_SQI_ExistsTransferCount
                0x00000000        0x8 ..\..\..\..\..\..\..\..\microchip\harmony\v2_06\bin\framework\peripheral\PIC32MX130F064B_peripherals.a(peripheral.o)
 .text.PLIB_SQI_ControlWordSet
                0x00000000        0x8 ..\..\..\..\..\..\..\..\microchip\harmony\v2_06\bin\framework\peripheral\PIC32MX130F064B_peripherals.a(peripheral.o)
 .text.PLIB_SQI_ControlWordGet
                0x00000000        0x8 ..\..\..\..\..\..\..\..\microchip\harmony\v2_06\bin\framework\peripheral\PIC32MX130F064B_peripherals.a(peripheral.o)
 .text.PLIB_SQI_ExistsControlWord
                0x00000000        0x8 ..\..\..\..\..\..\..\..\microchip\harmony\v2_06\bin\framework\peripheral\PIC32MX130F064B_peripherals.a(peripheral.o)
 .text.PLIB_SQI_ClockDividerSet
                0x00000000        0x8 ..\..\..\..\..\..\..\..\microchip\harmony\v2_06\bin\framework\peripheral\PIC32MX130F064B_peripherals.a(peripheral.o)
 .text.PLIB_SQI_ExistsClockDivider
                0x00000000        0x8 ..\..\..\..\..\..\..\..\microchip\harmony\v2_06\bin\framework\peripheral\PIC32MX130F064B_peripherals.a(peripheral.o)
 .text.PLIB_SQI_ClockIsStable
                0x00000000        0x8 ..\..\..\..\..\..\..\..\microchip\harmony\v2_06\bin\framework\peripheral\PIC32MX130F064B_peripherals.a(peripheral.o)
 .text.PLIB_SQI_ExistsClockReady
                0x00000000        0x8 ..\..\..\..\..\..\..\..\microchip\harmony\v2_06\bin\framework\peripheral\PIC32MX130F064B_peripherals.a(peripheral.o)
 .text.PLIB_SQI_ClockEnable
                0x00000000        0x8 ..\..\..\..\..\..\..\..\microchip\harmony\v2_06\bin\framework\peripheral\PIC32MX130F064B_peripherals.a(peripheral.o)
 .text.PLIB_SQI_ClockDisable
                0x00000000        0x8 ..\..\..\..\..\..\..\..\microchip\harmony\v2_06\bin\framework\peripheral\PIC32MX130F064B_peripherals.a(peripheral.o)
 .text.PLIB_SQI_ExistsClockControl
                0x00000000        0x8 ..\..\..\..\..\..\..\..\microchip\harmony\v2_06\bin\framework\peripheral\PIC32MX130F064B_peripherals.a(peripheral.o)
 .text.PLIB_SQI_RxBufferThresholdSet
                0x00000000        0x8 ..\..\..\..\..\..\..\..\microchip\harmony\v2_06\bin\framework\peripheral\PIC32MX130F064B_peripherals.a(peripheral.o)
 .text.PLIB_SQI_RxBufferThresholdGet
                0x00000000        0x8 ..\..\..\..\..\..\..\..\microchip\harmony\v2_06\bin\framework\peripheral\PIC32MX130F064B_peripherals.a(peripheral.o)
 .text.PLIB_SQI_ExistsRxBufThreshold
                0x00000000        0x8 ..\..\..\..\..\..\..\..\microchip\harmony\v2_06\bin\framework\peripheral\PIC32MX130F064B_peripherals.a(peripheral.o)
 .text.PLIB_SQI_TxBufferThresholdSet
                0x00000000        0x8 ..\..\..\..\..\..\..\..\microchip\harmony\v2_06\bin\framework\peripheral\PIC32MX130F064B_peripherals.a(peripheral.o)
 .text.PLIB_SQI_TxBufferThresholdGet
                0x00000000        0x8 ..\..\..\..\..\..\..\..\microchip\harmony\v2_06\bin\framework\peripheral\PIC32MX130F064B_peripherals.a(peripheral.o)
 .text.PLIB_SQI_ExistsTxBufThreshold
                0x00000000        0x8 ..\..\..\..\..\..\..\..\microchip\harmony\v2_06\bin\framework\peripheral\PIC32MX130F064B_peripherals.a(peripheral.o)
 .text.PLIB_SQI_RxBufferThresholdIntSet
                0x00000000        0x8 ..\..\..\..\..\..\..\..\microchip\harmony\v2_06\bin\framework\peripheral\PIC32MX130F064B_peripherals.a(peripheral.o)
 .text.PLIB_SQI_RxBufferThresholdIntGet
                0x00000000        0x8 ..\..\..\..\..\..\..\..\microchip\harmony\v2_06\bin\framework\peripheral\PIC32MX130F064B_peripherals.a(peripheral.o)
 .text.PLIB_SQI_ExistsRxBufIntThreshold
                0x00000000        0x8 ..\..\..\..\..\..\..\..\microchip\harmony\v2_06\bin\framework\peripheral\PIC32MX130F064B_peripherals.a(peripheral.o)
 .text.PLIB_SQI_TxBufferThresholdIntSet
                0x00000000        0x8 ..\..\..\..\..\..\..\..\microchip\harmony\v2_06\bin\framework\peripheral\PIC32MX130F064B_peripherals.a(peripheral.o)
 .text.PLIB_SQI_TxBufferThresholdIntGet
                0x00000000        0x8 ..\..\..\..\..\..\..\..\microchip\harmony\v2_06\bin\framework\peripheral\PIC32MX130F064B_peripherals.a(peripheral.o)
 .text.PLIB_SQI_ExistsTxBufIntThreshold
                0x00000000        0x8 ..\..\..\..\..\..\..\..\microchip\harmony\v2_06\bin\framework\peripheral\PIC32MX130F064B_peripherals.a(peripheral.o)
 .text.PLIB_SQI_InterruptEnable
                0x00000000        0x8 ..\..\..\..\..\..\..\..\microchip\harmony\v2_06\bin\framework\peripheral\PIC32MX130F064B_peripherals.a(peripheral.o)
 .text.PLIB_SQI_InterruptDisable
                0x00000000        0x8 ..\..\..\..\..\..\..\..\microchip\harmony\v2_06\bin\framework\peripheral\PIC32MX130F064B_peripherals.a(peripheral.o)
 .text.PLIB_SQI_InterruptDisableAll
                0x00000000        0x8 ..\..\..\..\..\..\..\..\microchip\harmony\v2_06\bin\framework\peripheral\PIC32MX130F064B_peripherals.a(peripheral.o)
 .text.PLIB_SQI_InterruptIsEnabled
                0x00000000        0x8 ..\..\..\..\..\..\..\..\microchip\harmony\v2_06\bin\framework\peripheral\PIC32MX130F064B_peripherals.a(peripheral.o)
 .text.PLIB_SQI_ExistsInterruptControl
                0x00000000        0x8 ..\..\..\..\..\..\..\..\microchip\harmony\v2_06\bin\framework\peripheral\PIC32MX130F064B_peripherals.a(peripheral.o)
 .text.PLIB_SQI_InterruptFlagGet
                0x00000000        0x8 ..\..\..\..\..\..\..\..\microchip\harmony\v2_06\bin\framework\peripheral\PIC32MX130F064B_peripherals.a(peripheral.o)
 .text.PLIB_SQI_InterruptWordGet
                0x00000000        0x8 ..\..\..\..\..\..\..\..\microchip\harmony\v2_06\bin\framework\peripheral\PIC32MX130F064B_peripherals.a(peripheral.o)
 .text.PLIB_SQI_InterruptWordClear
                0x00000000        0x8 ..\..\..\..\..\..\..\..\microchip\harmony\v2_06\bin\framework\peripheral\PIC32MX130F064B_peripherals.a(peripheral.o)
 .text.PLIB_SQI_ExistsInterruptStatus
                0x00000000        0x8 ..\..\..\..\..\..\..\..\microchip\harmony\v2_06\bin\framework\peripheral\PIC32MX130F064B_peripherals.a(peripheral.o)
 .text.PLIB_SQI_TransmitData
                0x00000000        0x8 ..\..\..\..\..\..\..\..\microchip\harmony\v2_06\bin\framework\peripheral\PIC32MX130F064B_peripherals.a(peripheral.o)
 .text.PLIB_SQI_ExistsTxData
                0x00000000        0x8 ..\..\..\..\..\..\..\..\microchip\harmony\v2_06\bin\framework\peripheral\PIC32MX130F064B_peripherals.a(peripheral.o)
 .text.PLIB_SQI_ReceiveData
                0x00000000        0x8 ..\..\..\..\..\..\..\..\microchip\harmony\v2_06\bin\framework\peripheral\PIC32MX130F064B_peripherals.a(peripheral.o)
 .text.PLIB_SQI_ExistsRxData
                0x00000000        0x8 ..\..\..\..\..\..\..\..\microchip\harmony\v2_06\bin\framework\peripheral\PIC32MX130F064B_peripherals.a(peripheral.o)
 .text.PLIB_SQI_TransmitBufferFreeSpaceGet
                0x00000000        0x8 ..\..\..\..\..\..\..\..\microchip\harmony\v2_06\bin\framework\peripheral\PIC32MX130F064B_peripherals.a(peripheral.o)
 .text.PLIB_SQI_ExistsTxBufferFree
                0x00000000        0x8 ..\..\..\..\..\..\..\..\microchip\harmony\v2_06\bin\framework\peripheral\PIC32MX130F064B_peripherals.a(peripheral.o)
 .text.PLIB_SQI_NumberOfReceiveBufferReads
                0x00000000        0x8 ..\..\..\..\..\..\..\..\microchip\harmony\v2_06\bin\framework\peripheral\PIC32MX130F064B_peripherals.a(peripheral.o)
 .text.PLIB_SQI_ExistsRxBufferCount
                0x00000000        0x8 ..\..\..\..\..\..\..\..\microchip\harmony\v2_06\bin\framework\peripheral\PIC32MX130F064B_peripherals.a(peripheral.o)
 .text.PLIB_SQI_ConBufWordsAvailable
                0x00000000        0x8 ..\..\..\..\..\..\..\..\microchip\harmony\v2_06\bin\framework\peripheral\PIC32MX130F064B_peripherals.a(peripheral.o)
 .text.PLIB_SQI_ExistsConBufAvailable
                0x00000000        0x8 ..\..\..\..\..\..\..\..\microchip\harmony\v2_06\bin\framework\peripheral\PIC32MX130F064B_peripherals.a(peripheral.o)
 .text.PLIB_SQI_CommandStatusGet
                0x00000000        0x8 ..\..\..\..\..\..\..\..\microchip\harmony\v2_06\bin\framework\peripheral\PIC32MX130F064B_peripherals.a(peripheral.o)
 .text.PLIB_SQI_ExistsCommandStatus
                0x00000000        0x8 ..\..\..\..\..\..\..\..\microchip\harmony\v2_06\bin\framework\peripheral\PIC32MX130F064B_peripherals.a(peripheral.o)
 .text.PLIB_SQI_DataLineStatus
                0x00000000        0x8 ..\..\..\..\..\..\..\..\microchip\harmony\v2_06\bin\framework\peripheral\PIC32MX130F064B_peripherals.a(peripheral.o)
 .text.PLIB_SQI_ExistsDataPinStatus
                0x00000000        0x8 ..\..\..\..\..\..\..\..\microchip\harmony\v2_06\bin\framework\peripheral\PIC32MX130F064B_peripherals.a(peripheral.o)
 .text.PLIB_SQI_ReceiveBufferIsUnderrun
                0x00000000        0x8 ..\..\..\..\..\..\..\..\microchip\harmony\v2_06\bin\framework\peripheral\PIC32MX130F064B_peripherals.a(peripheral.o)
 .text.PLIB_SQI_ExistsRxUnderRun
                0x00000000        0x8 ..\..\..\..\..\..\..\..\microchip\harmony\v2_06\bin\framework\peripheral\PIC32MX130F064B_peripherals.a(peripheral.o)
 .text.PLIB_SQI_TransmitBufferHasOverflowed
                0x00000000        0x8 ..\..\..\..\..\..\..\..\microchip\harmony\v2_06\bin\framework\peripheral\PIC32MX130F064B_peripherals.a(peripheral.o)
 .text.PLIB_SQI_ExistsTxOverFlow
                0x00000000        0x8 ..\..\..\..\..\..\..\..\microchip\harmony\v2_06\bin\framework\peripheral\PIC32MX130F064B_peripherals.a(peripheral.o)
 .text.PLIB_SQI_DMAEnable
                0x00000000        0x8 ..\..\..\..\..\..\..\..\microchip\harmony\v2_06\bin\framework\peripheral\PIC32MX130F064B_peripherals.a(peripheral.o)
 .text.PLIB_SQI_DMADisable
                0x00000000        0x8 ..\..\..\..\..\..\..\..\microchip\harmony\v2_06\bin\framework\peripheral\PIC32MX130F064B_peripherals.a(peripheral.o)
 .text.PLIB_SQI_DMAIsEnabled
                0x00000000        0x8 ..\..\..\..\..\..\..\..\microchip\harmony\v2_06\bin\framework\peripheral\PIC32MX130F064B_peripherals.a(peripheral.o)
 .text.PLIB_SQI_ExistsDmaEnable
                0x00000000        0x8 ..\..\..\..\..\..\..\..\microchip\harmony\v2_06\bin\framework\peripheral\PIC32MX130F064B_peripherals.a(peripheral.o)
 .text.PLIB_SQI_DMABDPollEnable
                0x00000000        0x8 ..\..\..\..\..\..\..\..\microchip\harmony\v2_06\bin\framework\peripheral\PIC32MX130F064B_peripherals.a(peripheral.o)
 .text.PLIB_SQI_DMABDPollDisable
                0x00000000        0x8 ..\..\..\..\..\..\..\..\microchip\harmony\v2_06\bin\framework\peripheral\PIC32MX130F064B_peripherals.a(peripheral.o)
 .text.PLIB_SQI_DMABDPollIsEnabled
                0x00000000        0x8 ..\..\..\..\..\..\..\..\microchip\harmony\v2_06\bin\framework\peripheral\PIC32MX130F064B_peripherals.a(peripheral.o)
 .text.PLIB_SQI_ExistsBDPollingEnable
                0x00000000        0x8 ..\..\..\..\..\..\..\..\microchip\harmony\v2_06\bin\framework\peripheral\PIC32MX130F064B_peripherals.a(peripheral.o)
 .text.PLIB_SQI_DMABDFetchStart
                0x00000000        0x8 ..\..\..\..\..\..\..\..\microchip\harmony\v2_06\bin\framework\peripheral\PIC32MX130F064B_peripherals.a(peripheral.o)
 .text.PLIB_SQI_DMABDFetchStop
                0x00000000        0x8 ..\..\..\..\..\..\..\..\microchip\harmony\v2_06\bin\framework\peripheral\PIC32MX130F064B_peripherals.a(peripheral.o)
 .text.PLIB_SQI_ExistsDMABDFetch
                0x00000000        0x8 ..\..\..\..\..\..\..\..\microchip\harmony\v2_06\bin\framework\peripheral\PIC32MX130F064B_peripherals.a(peripheral.o)
 .text.PLIB_SQI_DMABDCurrentAddressGet
                0x00000000        0x8 ..\..\..\..\..\..\..\..\microchip\harmony\v2_06\bin\framework\peripheral\PIC32MX130F064B_peripherals.a(peripheral.o)
 .text.PLIB_SQI_ExistsBDCurrentAddress
                0x00000000        0x8 ..\..\..\..\..\..\..\..\microchip\harmony\v2_06\bin\framework\peripheral\PIC32MX130F064B_peripherals.a(peripheral.o)
 .text.PLIB_SQI_DMABDBaseAddressSet
                0x00000000        0x8 ..\..\..\..\..\..\..\..\microchip\harmony\v2_06\bin\framework\peripheral\PIC32MX130F064B_peripherals.a(peripheral.o)
 .text.PLIB_SQI_DMABDBaseAddressGet
                0x00000000        0x8 ..\..\..\..\..\..\..\..\microchip\harmony\v2_06\bin\framework\peripheral\PIC32MX130F064B_peripherals.a(peripheral.o)
 .text.PLIB_SQI_ExistsBDBaseAddress
                0x00000000        0x8 ..\..\..\..\..\..\..\..\microchip\harmony\v2_06\bin\framework\peripheral\PIC32MX130F064B_peripherals.a(peripheral.o)
 .text.PLIB_SQI_DMABDStateGet
                0x00000000        0x8 ..\..\..\..\..\..\..\..\microchip\harmony\v2_06\bin\framework\peripheral\PIC32MX130F064B_peripherals.a(peripheral.o)
 .text.PLIB_SQI_ExistsBDProcessState
                0x00000000        0x8 ..\..\..\..\..\..\..\..\microchip\harmony\v2_06\bin\framework\peripheral\PIC32MX130F064B_peripherals.a(peripheral.o)
 .text.PLIB_SQI_DMAHasStarted
                0x00000000        0x8 ..\..\..\..\..\..\..\..\microchip\harmony\v2_06\bin\framework\peripheral\PIC32MX130F064B_peripherals.a(peripheral.o)
 .text.PLIB_SQI_ExistsDMAProcessInProgress
                0x00000000        0x8 ..\..\..\..\..\..\..\..\microchip\harmony\v2_06\bin\framework\peripheral\PIC32MX130F064B_peripherals.a(peripheral.o)
 .text.PLIB_SQI_DMABDIsBusy
                0x00000000        0x8 ..\..\..\..\..\..\..\..\microchip\harmony\v2_06\bin\framework\peripheral\PIC32MX130F064B_peripherals.a(peripheral.o)
 .text.PLIB_SQI_ExistsDMAEngineBusy
                0x00000000        0x8 ..\..\..\..\..\..\..\..\microchip\harmony\v2_06\bin\framework\peripheral\PIC32MX130F064B_peripherals.a(peripheral.o)
 .text.PLIB_SQI_DMABDControlWordGet
                0x00000000        0x8 ..\..\..\..\..\..\..\..\microchip\harmony\v2_06\bin\framework\peripheral\PIC32MX130F064B_peripherals.a(peripheral.o)
 .text.PLIB_SQI_ExistsBDControlWord
                0x00000000        0x8 ..\..\..\..\..\..\..\..\microchip\harmony\v2_06\bin\framework\peripheral\PIC32MX130F064B_peripherals.a(peripheral.o)
 .text.PLIB_SQI_DMABDPollCounterSet
                0x00000000        0x8 ..\..\..\..\..\..\..\..\microchip\harmony\v2_06\bin\framework\peripheral\PIC32MX130F064B_peripherals.a(peripheral.o)
 .text.PLIB_SQI_ExistsBDPollCount
                0x00000000        0x8 ..\..\..\..\..\..\..\..\microchip\harmony\v2_06\bin\framework\peripheral\PIC32MX130F064B_peripherals.a(peripheral.o)
 .text.PLIB_SQI_DMABDTransmitStateGet
                0x00000000        0x8 ..\..\..\..\..\..\..\..\microchip\harmony\v2_06\bin\framework\peripheral\PIC32MX130F064B_peripherals.a(peripheral.o)
 .text.PLIB_SQI_ExistsBDTxState
                0x00000000        0x8 ..\..\..\..\..\..\..\..\microchip\harmony\v2_06\bin\framework\peripheral\PIC32MX130F064B_peripherals.a(peripheral.o)
 .text.PLIB_SQI_DMABDTransmitBufferCountGet
                0x00000000        0x8 ..\..\..\..\..\..\..\..\microchip\harmony\v2_06\bin\framework\peripheral\PIC32MX130F064B_peripherals.a(peripheral.o)
 .text.PLIB_SQI_ExistsBDTxBufCount
                0x00000000        0x8 ..\..\..\..\..\..\..\..\microchip\harmony\v2_06\bin\framework\peripheral\PIC32MX130F064B_peripherals.a(peripheral.o)
 .text.PLIB_SQI_DMABDTransmitBufferLengthGet
                0x00000000        0x8 ..\..\..\..\..\..\..\..\microchip\harmony\v2_06\bin\framework\peripheral\PIC32MX130F064B_peripherals.a(peripheral.o)
 .text.PLIB_SQI_ExistsBDTxLength
                0x00000000        0x8 ..\..\..\..\..\..\..\..\microchip\harmony\v2_06\bin\framework\peripheral\PIC32MX130F064B_peripherals.a(peripheral.o)
 .text.PLIB_SQI_DMABDReceiveStateGet
                0x00000000        0x8 ..\..\..\..\..\..\..\..\microchip\harmony\v2_06\bin\framework\peripheral\PIC32MX130F064B_peripherals.a(peripheral.o)
 .text.PLIB_SQI_ExistsBDRxState
                0x00000000        0x8 ..\..\..\..\..\..\..\..\microchip\harmony\v2_06\bin\framework\peripheral\PIC32MX130F064B_peripherals.a(peripheral.o)
 .text.PLIB_SQI_DMABDReceiveBufferCountGet
                0x00000000        0x8 ..\..\..\..\..\..\..\..\microchip\harmony\v2_06\bin\framework\peripheral\PIC32MX130F064B_peripherals.a(peripheral.o)
 .text.PLIB_SQI_ExistsBDRxBufCount
                0x00000000        0x8 ..\..\..\..\..\..\..\..\microchip\harmony\v2_06\bin\framework\peripheral\PIC32MX130F064B_peripherals.a(peripheral.o)
 .text.PLIB_SQI_DMABDReceiveBufferLengthGet
                0x00000000        0x8 ..\..\..\..\..\..\..\..\microchip\harmony\v2_06\bin\framework\peripheral\PIC32MX130F064B_peripherals.a(peripheral.o)
 .text.PLIB_SQI_ExistsBDRxLength
                0x00000000        0x8 ..\..\..\..\..\..\..\..\microchip\harmony\v2_06\bin\framework\peripheral\PIC32MX130F064B_peripherals.a(peripheral.o)
 .text.PLIB_SQI_ControlBufferThresholdSet
                0x00000000        0x8 ..\..\..\..\..\..\..\..\microchip\harmony\v2_06\bin\framework\peripheral\PIC32MX130F064B_peripherals.a(peripheral.o)
 .text.PLIB_SQI_ControlBufferThresholdGet
                0x00000000        0x8 ..\..\..\..\..\..\..\..\microchip\harmony\v2_06\bin\framework\peripheral\PIC32MX130F064B_peripherals.a(peripheral.o)
 .text.PLIB_SQI_ExistsConBufThreshold
                0x00000000        0x8 ..\..\..\..\..\..\..\..\microchip\harmony\v2_06\bin\framework\peripheral\PIC32MX130F064B_peripherals.a(peripheral.o)
 .text.PLIB_SQI_InterruptSignalEnable
                0x00000000        0x8 ..\..\..\..\..\..\..\..\microchip\harmony\v2_06\bin\framework\peripheral\PIC32MX130F064B_peripherals.a(peripheral.o)
 .text.PLIB_SQI_InterruptSignalDisable
                0x00000000        0x8 ..\..\..\..\..\..\..\..\microchip\harmony\v2_06\bin\framework\peripheral\PIC32MX130F064B_peripherals.a(peripheral.o)
 .text.PLIB_SQI_InterruptSignalDisableAll
                0x00000000        0x8 ..\..\..\..\..\..\..\..\microchip\harmony\v2_06\bin\framework\peripheral\PIC32MX130F064B_peripherals.a(peripheral.o)
 .text.PLIB_SQI_InterruptSignalIsEnabled
                0x00000000        0x8 ..\..\..\..\..\..\..\..\microchip\harmony\v2_06\bin\framework\peripheral\PIC32MX130F064B_peripherals.a(peripheral.o)
 .text.PLIB_SQI_ExistsInterruptSignalControl
                0x00000000        0x8 ..\..\..\..\..\..\..\..\microchip\harmony\v2_06\bin\framework\peripheral\PIC32MX130F064B_peripherals.a(peripheral.o)
 .text.PLIB_SQI_TapDelaySet
                0x00000000        0x8 ..\..\..\..\..\..\..\..\microchip\harmony\v2_06\bin\framework\peripheral\PIC32MX130F064B_peripherals.a(peripheral.o)
 .text.PLIB_SQI_ExistsTapDelay
                0x00000000        0x8 ..\..\..\..\..\..\..\..\microchip\harmony\v2_06\bin\framework\peripheral\PIC32MX130F064B_peripherals.a(peripheral.o)
 .text.PLIB_SQI_XIPControlWord3Set
                0x00000000        0x8 ..\..\..\..\..\..\..\..\microchip\harmony\v2_06\bin\framework\peripheral\PIC32MX130F064B_peripherals.a(peripheral.o)
 .text.PLIB_SQI_XIPControlWord3Get
                0x00000000        0x8 ..\..\..\..\..\..\..\..\microchip\harmony\v2_06\bin\framework\peripheral\PIC32MX130F064B_peripherals.a(peripheral.o)
 .text.PLIB_SQI_ExistsXIPControlWord3
                0x00000000        0x8 ..\..\..\..\..\..\..\..\microchip\harmony\v2_06\bin\framework\peripheral\PIC32MX130F064B_peripherals.a(peripheral.o)
 .text.PLIB_SQI_XIPControlWord4Set
                0x00000000        0x8 ..\..\..\..\..\..\..\..\microchip\harmony\v2_06\bin\framework\peripheral\PIC32MX130F064B_peripherals.a(peripheral.o)
 .text.PLIB_SQI_XIPControlWord4Get
                0x00000000        0x8 ..\..\..\..\..\..\..\..\microchip\harmony\v2_06\bin\framework\peripheral\PIC32MX130F064B_peripherals.a(peripheral.o)
 .text.PLIB_SQI_ExistsXIPControlWord4
                0x00000000        0x8 ..\..\..\..\..\..\..\..\microchip\harmony\v2_06\bin\framework\peripheral\PIC32MX130F064B_peripherals.a(peripheral.o)
 .text.PLIB_TMR_GateEnable
                0x00000000       0x10 ..\..\..\..\..\..\..\..\microchip\harmony\v2_06\bin\framework\peripheral\PIC32MX130F064B_peripherals.a(peripheral.o)
 .text.PLIB_TMR_GateDisable
                0x00000000       0x10 ..\..\..\..\..\..\..\..\microchip\harmony\v2_06\bin\framework\peripheral\PIC32MX130F064B_peripherals.a(peripheral.o)
 .text.PLIB_TMR_ExistsGatedTimeAccumulation
                0x00000000        0x8 ..\..\..\..\..\..\..\..\microchip\harmony\v2_06\bin\framework\peripheral\PIC32MX130F064B_peripherals.a(peripheral.o)
 .text.PLIB_TMR_ClockSourceSelect
                0x00000000       0x14 ..\..\..\..\..\..\..\..\microchip\harmony\v2_06\bin\framework\peripheral\PIC32MX130F064B_peripherals.a(peripheral.o)
 .text.PLIB_TMR_ExistsClockSource
                0x00000000        0x8 ..\..\..\..\..\..\..\..\microchip\harmony\v2_06\bin\framework\peripheral\PIC32MX130F064B_peripherals.a(peripheral.o)
 .text.PLIB_TMR_PrescaleSelect
                0x00000000       0xac ..\..\..\..\..\..\..\..\microchip\harmony\v2_06\bin\framework\peripheral\PIC32MX130F064B_peripherals.a(peripheral.o)
 .text.PLIB_TMR_PrescaleGet
                0x00000000       0x64 ..\..\..\..\..\..\..\..\microchip\harmony\v2_06\bin\framework\peripheral\PIC32MX130F064B_peripherals.a(peripheral.o)
 .text.PLIB_TMR_ExistsPrescale
                0x00000000        0x8 ..\..\..\..\..\..\..\..\microchip\harmony\v2_06\bin\framework\peripheral\PIC32MX130F064B_peripherals.a(peripheral.o)
 .text.PLIB_TMR_ClockSourceExternalSyncEnable
                0x00000000       0x1c ..\..\..\..\..\..\..\..\microchip\harmony\v2_06\bin\framework\peripheral\PIC32MX130F064B_peripherals.a(peripheral.o)
 .text.PLIB_TMR_ClockSourceExternalSyncDisable
                0x00000000       0x1c ..\..\..\..\..\..\..\..\microchip\harmony\v2_06\bin\framework\peripheral\PIC32MX130F064B_peripherals.a(peripheral.o)
 .text.PLIB_TMR_ExistsClockSourceSync
                0x00000000       0x14 ..\..\..\..\..\..\..\..\microchip\harmony\v2_06\bin\framework\peripheral\PIC32MX130F064B_peripherals.a(peripheral.o)
 .text.PLIB_TMR_Mode16BitEnable
                0x00000000       0x18 ..\..\..\..\..\..\..\..\microchip\harmony\v2_06\bin\framework\peripheral\PIC32MX130F064B_peripherals.a(peripheral.o)
 .text.PLIB_TMR_ExistsMode16Bit
                0x00000000        0x8 ..\..\..\..\..\..\..\..\microchip\harmony\v2_06\bin\framework\peripheral\PIC32MX130F064B_peripherals.a(peripheral.o)
 .text.PLIB_TMR_Mode32BitEnable
                0x00000000       0x18 ..\..\..\..\..\..\..\..\microchip\harmony\v2_06\bin\framework\peripheral\PIC32MX130F064B_peripherals.a(peripheral.o)
 .text.PLIB_TMR_ExistsMode32Bit
                0x00000000        0xc ..\..\..\..\..\..\..\..\microchip\harmony\v2_06\bin\framework\peripheral\PIC32MX130F064B_peripherals.a(peripheral.o)
 .text.PLIB_TMR_Start
                0x00000000       0x10 ..\..\..\..\..\..\..\..\microchip\harmony\v2_06\bin\framework\peripheral\PIC32MX130F064B_peripherals.a(peripheral.o)
 .text.PLIB_TMR_Stop
                0x00000000       0x10 ..\..\..\..\..\..\..\..\microchip\harmony\v2_06\bin\framework\peripheral\PIC32MX130F064B_peripherals.a(peripheral.o)
 .text.PLIB_TMR_ExistsEnableControl
                0x00000000        0x8 ..\..\..\..\..\..\..\..\microchip\harmony\v2_06\bin\framework\peripheral\PIC32MX130F064B_peripherals.a(peripheral.o)
 .text.PLIB_TMR_StopInIdleEnable
                0x00000000       0x10 ..\..\..\..\..\..\..\..\microchip\harmony\v2_06\bin\framework\peripheral\PIC32MX130F064B_peripherals.a(peripheral.o)
 .text.PLIB_TMR_StopInIdleDisable
                0x00000000       0x10 ..\..\..\..\..\..\..\..\microchip\harmony\v2_06\bin\framework\peripheral\PIC32MX130F064B_peripherals.a(peripheral.o)
 .text.PLIB_TMR_ExistsStopInIdleControl
                0x00000000        0x8 ..\..\..\..\..\..\..\..\microchip\harmony\v2_06\bin\framework\peripheral\PIC32MX130F064B_peripherals.a(peripheral.o)
 .text.PLIB_TMR_Counter16BitSet
                0x00000000        0xc ..\..\..\..\..\..\..\..\microchip\harmony\v2_06\bin\framework\peripheral\PIC32MX130F064B_peripherals.a(peripheral.o)
 .text.PLIB_TMR_Counter16BitGet
                0x00000000        0xc ..\..\..\..\..\..\..\..\microchip\harmony\v2_06\bin\framework\peripheral\PIC32MX130F064B_peripherals.a(peripheral.o)
 .text.PLIB_TMR_Counter16BitClear
                0x00000000        0xc ..\..\..\..\..\..\..\..\microchip\harmony\v2_06\bin\framework\peripheral\PIC32MX130F064B_peripherals.a(peripheral.o)
 .text.PLIB_TMR_ExistsCounter16Bit
                0x00000000        0x8 ..\..\..\..\..\..\..\..\microchip\harmony\v2_06\bin\framework\peripheral\PIC32MX130F064B_peripherals.a(peripheral.o)
 .text.PLIB_TMR_Counter32BitSet
                0x00000000       0x20 ..\..\..\..\..\..\..\..\microchip\harmony\v2_06\bin\framework\peripheral\PIC32MX130F064B_peripherals.a(peripheral.o)
 .text.PLIB_TMR_Counter32BitGet
                0x00000000       0x24 ..\..\..\..\..\..\..\..\microchip\harmony\v2_06\bin\framework\peripheral\PIC32MX130F064B_peripherals.a(peripheral.o)
 .text.PLIB_TMR_Counter32BitClear
                0x00000000       0x1c ..\..\..\..\..\..\..\..\microchip\harmony\v2_06\bin\framework\peripheral\PIC32MX130F064B_peripherals.a(peripheral.o)
 .text.PLIB_TMR_ExistsCounter32Bit
                0x00000000       0x14 ..\..\..\..\..\..\..\..\microchip\harmony\v2_06\bin\framework\peripheral\PIC32MX130F064B_peripherals.a(peripheral.o)
 .text.PLIB_TMR_Period16BitSet
                0x00000000        0xc ..\..\..\..\..\..\..\..\microchip\harmony\v2_06\bin\framework\peripheral\PIC32MX130F064B_peripherals.a(peripheral.o)
 .text.PLIB_TMR_Period16BitGet
                0x00000000        0xc ..\..\..\..\..\..\..\..\microchip\harmony\v2_06\bin\framework\peripheral\PIC32MX130F064B_peripherals.a(peripheral.o)
 .text.PLIB_TMR_ExistsPeriod16Bit
                0x00000000        0x8 ..\..\..\..\..\..\..\..\microchip\harmony\v2_06\bin\framework\peripheral\PIC32MX130F064B_peripherals.a(peripheral.o)
 .text.PLIB_TMR_Period32BitSet
                0x00000000       0x20 ..\..\..\..\..\..\..\..\microchip\harmony\v2_06\bin\framework\peripheral\PIC32MX130F064B_peripherals.a(peripheral.o)
 .text.PLIB_TMR_Period32BitGet
                0x00000000       0x24 ..\..\..\..\..\..\..\..\microchip\harmony\v2_06\bin\framework\peripheral\PIC32MX130F064B_peripherals.a(peripheral.o)
 .text.PLIB_TMR_ExistsPeriod32Bit
                0x00000000       0x14 ..\..\..\..\..\..\..\..\microchip\harmony\v2_06\bin\framework\peripheral\PIC32MX130F064B_peripherals.a(peripheral.o)
 .text.PLIB_TMR_CounterAsyncWriteEnable
                0x00000000       0x1c ..\..\..\..\..\..\..\..\microchip\harmony\v2_06\bin\framework\peripheral\PIC32MX130F064B_peripherals.a(peripheral.o)
 .text.PLIB_TMR_CounterAsyncWriteDisable
                0x00000000       0x1c ..\..\..\..\..\..\..\..\microchip\harmony\v2_06\bin\framework\peripheral\PIC32MX130F064B_peripherals.a(peripheral.o)
 .text.PLIB_TMR_ExistsCounterAsyncWriteControl
                0x00000000       0x14 ..\..\..\..\..\..\..\..\microchip\harmony\v2_06\bin\framework\peripheral\PIC32MX130F064B_peripherals.a(peripheral.o)
 .text.PLIB_TMR_CounterAsyncWriteInProgress
                0x00000000       0x24 ..\..\..\..\..\..\..\..\microchip\harmony\v2_06\bin\framework\peripheral\PIC32MX130F064B_peripherals.a(peripheral.o)
 .text.PLIB_TMR_ExistsCounterAsyncWriteInProgress
                0x00000000       0x14 ..\..\..\..\..\..\..\..\microchip\harmony\v2_06\bin\framework\peripheral\PIC32MX130F064B_peripherals.a(peripheral.o)
 .text.PLIB_TMR_IsPeriodMatchBased
                0x00000000        0x8 ..\..\..\..\..\..\..\..\microchip\harmony\v2_06\bin\framework\peripheral\PIC32MX130F064B_peripherals.a(peripheral.o)
 .text.PLIB_TMR_ExistsTimerOperationMode
                0x00000000        0x8 ..\..\..\..\..\..\..\..\microchip\harmony\v2_06\bin\framework\peripheral\PIC32MX130F064B_peripherals.a(peripheral.o)
 .text.PLIB_USART_ExistsEnable
                0x00000000        0x8 ..\..\..\..\..\..\..\..\microchip\harmony\v2_06\bin\framework\peripheral\PIC32MX130F064B_peripherals.a(peripheral.o)
 .text.PLIB_USART_Disable
                0x00000000       0x10 ..\..\..\..\..\..\..\..\microchip\harmony\v2_06\bin\framework\peripheral\PIC32MX130F064B_peripherals.a(peripheral.o)
 .text.PLIB_USART_Enable
                0x00000000       0x10 ..\..\..\..\..\..\..\..\microchip\harmony\v2_06\bin\framework\peripheral\PIC32MX130F064B_peripherals.a(peripheral.o)
 .text.PLIB_USART_BaudSetAndEnable
                0x00000000       0x80 ..\..\..\..\..\..\..\..\microchip\harmony\v2_06\bin\framework\peripheral\PIC32MX130F064B_peripherals.a(peripheral.o)
 .text.PLIB_USART_ExistsHandshakeMode
                0x00000000        0x8 ..\..\..\..\..\..\..\..\microchip\harmony\v2_06\bin\framework\peripheral\PIC32MX130F064B_peripherals.a(peripheral.o)
 .text.PLIB_USART_HandshakeModeSelect
                0x00000000       0x14 ..\..\..\..\..\..\..\..\microchip\harmony\v2_06\bin\framework\peripheral\PIC32MX130F064B_peripherals.a(peripheral.o)
 .text.PLIB_USART_ExistsIrDA
                0x00000000        0x8 ..\..\..\..\..\..\..\..\microchip\harmony\v2_06\bin\framework\peripheral\PIC32MX130F064B_peripherals.a(peripheral.o)
 .text.PLIB_USART_IrDADisable
                0x00000000       0x10 ..\..\..\..\..\..\..\..\microchip\harmony\v2_06\bin\framework\peripheral\PIC32MX130F064B_peripherals.a(peripheral.o)
 .text.PLIB_USART_IrDAEnable
                0x00000000       0x10 ..\..\..\..\..\..\..\..\microchip\harmony\v2_06\bin\framework\peripheral\PIC32MX130F064B_peripherals.a(peripheral.o)
 .text.PLIB_USART_ExistsLineControlMode
                0x00000000        0x8 ..\..\..\..\..\..\..\..\microchip\harmony\v2_06\bin\framework\peripheral\PIC32MX130F064B_peripherals.a(peripheral.o)
 .text.PLIB_USART_LineControlModeSelect
                0x00000000       0x40 ..\..\..\..\..\..\..\..\microchip\harmony\v2_06\bin\framework\peripheral\PIC32MX130F064B_peripherals.a(peripheral.o)
 .text.PLIB_USART_ExistsLoopback
                0x00000000        0x8 ..\..\..\..\..\..\..\..\microchip\harmony\v2_06\bin\framework\peripheral\PIC32MX130F064B_peripherals.a(peripheral.o)
 .text.PLIB_USART_LoopbackEnable
                0x00000000       0x10 ..\..\..\..\..\..\..\..\microchip\harmony\v2_06\bin\framework\peripheral\PIC32MX130F064B_peripherals.a(peripheral.o)
 .text.PLIB_USART_LoopbackDisable
                0x00000000       0x10 ..\..\..\..\..\..\..\..\microchip\harmony\v2_06\bin\framework\peripheral\PIC32MX130F064B_peripherals.a(peripheral.o)
 .text.PLIB_USART_ExistsOperationMode
                0x00000000        0x8 ..\..\..\..\..\..\..\..\microchip\harmony\v2_06\bin\framework\peripheral\PIC32MX130F064B_peripherals.a(peripheral.o)
 .text.PLIB_USART_OperationModeSelect
                0x00000000       0x14 ..\..\..\..\..\..\..\..\microchip\harmony\v2_06\bin\framework\peripheral\PIC32MX130F064B_peripherals.a(peripheral.o)
 .text.PLIB_USART_ExistsStopInIdle
                0x00000000        0x8 ..\..\..\..\..\..\..\..\microchip\harmony\v2_06\bin\framework\peripheral\PIC32MX130F064B_peripherals.a(peripheral.o)
 .text.PLIB_USART_StopInIdleEnable
                0x00000000       0x10 ..\..\..\..\..\..\..\..\microchip\harmony\v2_06\bin\framework\peripheral\PIC32MX130F064B_peripherals.a(peripheral.o)
 .text.PLIB_USART_StopInIdleDisable
                0x00000000       0x10 ..\..\..\..\..\..\..\..\microchip\harmony\v2_06\bin\framework\peripheral\PIC32MX130F064B_peripherals.a(peripheral.o)
 .text.PLIB_USART_ExistsRunInOverflow
                0x00000000        0x8 ..\..\..\..\..\..\..\..\microchip\harmony\v2_06\bin\framework\peripheral\PIC32MX130F064B_peripherals.a(peripheral.o)
 .text.PLIB_USART_RunInOverflowEnable
                0x00000000        0x8 ..\..\..\..\..\..\..\..\microchip\harmony\v2_06\bin\framework\peripheral\PIC32MX130F064B_peripherals.a(peripheral.o)
 .text.PLIB_USART_RunInOverflowDisable
                0x00000000        0x8 ..\..\..\..\..\..\..\..\microchip\harmony\v2_06\bin\framework\peripheral\PIC32MX130F064B_peripherals.a(peripheral.o)
 .text.PLIB_USART_RunInOverflowIsEnabled
                0x00000000        0x8 ..\..\..\..\..\..\..\..\microchip\harmony\v2_06\bin\framework\peripheral\PIC32MX130F064B_peripherals.a(peripheral.o)
 .text.PLIB_USART_ExistsBRGClockSourceSelect
                0x00000000        0x8 ..\..\..\..\..\..\..\..\microchip\harmony\v2_06\bin\framework\peripheral\PIC32MX130F064B_peripherals.a(peripheral.o)
 .text.PLIB_USART_BRGClockSourceSelect
                0x00000000        0x8 ..\..\..\..\..\..\..\..\microchip\harmony\v2_06\bin\framework\peripheral\PIC32MX130F064B_peripherals.a(peripheral.o)
 .text.PLIB_USART_BRGClockSourceGet
                0x00000000        0x8 ..\..\..\..\..\..\..\..\microchip\harmony\v2_06\bin\framework\peripheral\PIC32MX130F064B_peripherals.a(peripheral.o)
 .text.PLIB_USART_ExistsModuleBusyStatus
                0x00000000        0x8 ..\..\..\..\..\..\..\..\microchip\harmony\v2_06\bin\framework\peripheral\PIC32MX130F064B_peripherals.a(peripheral.o)
 .text.PLIB_USART_ModuleIsBusy
                0x00000000        0x8 ..\..\..\..\..\..\..\..\microchip\harmony\v2_06\bin\framework\peripheral\PIC32MX130F064B_peripherals.a(peripheral.o)
 .text.PLIB_USART_ExistsRunInSleepMode
                0x00000000        0x8 ..\..\..\..\..\..\..\..\microchip\harmony\v2_06\bin\framework\peripheral\PIC32MX130F064B_peripherals.a(peripheral.o)
 .text.PLIB_USART_RunInSleepModeEnable
                0x00000000        0x8 ..\..\..\..\..\..\..\..\microchip\harmony\v2_06\bin\framework\peripheral\PIC32MX130F064B_peripherals.a(peripheral.o)
 .text.PLIB_USART_RunInSleepModeDisable
                0x00000000        0x8 ..\..\..\..\..\..\..\..\microchip\harmony\v2_06\bin\framework\peripheral\PIC32MX130F064B_peripherals.a(peripheral.o)
 .text.PLIB_USART_RunInSleepModeIsEnabled
                0x00000000        0x8 ..\..\..\..\..\..\..\..\microchip\harmony\v2_06\bin\framework\peripheral\PIC32MX130F064B_peripherals.a(peripheral.o)
 .text.PLIB_USART_ExistsWakeOnStart
                0x00000000        0x8 ..\..\..\..\..\..\..\..\microchip\harmony\v2_06\bin\framework\peripheral\PIC32MX130F064B_peripherals.a(peripheral.o)
 .text.PLIB_USART_WakeOnStartEnable
                0x00000000       0x10 ..\..\..\..\..\..\..\..\microchip\harmony\v2_06\bin\framework\peripheral\PIC32MX130F064B_peripherals.a(peripheral.o)
 .text.PLIB_USART_WakeOnStartDisable
                0x00000000       0x10 ..\..\..\..\..\..\..\..\microchip\harmony\v2_06\bin\framework\peripheral\PIC32MX130F064B_peripherals.a(peripheral.o)
 .text.PLIB_USART_WakeOnStartIsEnabled
                0x00000000        0xc ..\..\..\..\..\..\..\..\microchip\harmony\v2_06\bin\framework\peripheral\PIC32MX130F064B_peripherals.a(peripheral.o)
 .text.PLIB_USART_InitializeModeGeneral
                0x00000000       0x4c ..\..\..\..\..\..\..\..\microchip\harmony\v2_06\bin\framework\peripheral\PIC32MX130F064B_peripherals.a(peripheral.o)
 .text.PLIB_USART_ErrorsGet
                0x00000000        0xc ..\..\..\..\..\..\..\..\microchip\harmony\v2_06\bin\framework\peripheral\PIC32MX130F064B_peripherals.a(peripheral.o)
 .text.PLIB_USART_ExistsBaudRate
                0x00000000        0x8 ..\..\..\..\..\..\..\..\microchip\harmony\v2_06\bin\framework\peripheral\PIC32MX130F064B_peripherals.a(peripheral.o)
 .text.PLIB_USART_BaudRateSet
                0x00000000       0x28 ..\..\..\..\..\..\..\..\microchip\harmony\v2_06\bin\framework\peripheral\PIC32MX130F064B_peripherals.a(peripheral.o)
 .text.PLIB_USART_BaudRateGet
                0x00000000       0x3c ..\..\..\..\..\..\..\..\microchip\harmony\v2_06\bin\framework\peripheral\PIC32MX130F064B_peripherals.a(peripheral.o)
 .text.PLIB_USART_ExistsBaudRateAutoDetect
                0x00000000        0x8 ..\..\..\..\..\..\..\..\microchip\harmony\v2_06\bin\framework\peripheral\PIC32MX130F064B_peripherals.a(peripheral.o)
 .text.PLIB_USART_BaudRateAutoDetectEnable
                0x00000000       0x10 ..\..\..\..\..\..\..\..\microchip\harmony\v2_06\bin\framework\peripheral\PIC32MX130F064B_peripherals.a(peripheral.o)
 .text.PLIB_USART_BaudRateAutoDetectIsComplete
                0x00000000        0xc ..\..\..\..\..\..\..\..\microchip\harmony\v2_06\bin\framework\peripheral\PIC32MX130F064B_peripherals.a(peripheral.o)
 .text.PLIB_USART_ExistsBaudRateHigh
                0x00000000        0x8 ..\..\..\..\..\..\..\..\microchip\harmony\v2_06\bin\framework\peripheral\PIC32MX130F064B_peripherals.a(peripheral.o)
 .text.PLIB_USART_BaudRateHighSet
                0x00000000       0x28 ..\..\..\..\..\..\..\..\microchip\harmony\v2_06\bin\framework\peripheral\PIC32MX130F064B_peripherals.a(peripheral.o)
 .text.PLIB_USART_BaudRateHighDisable
                0x00000000       0x10 ..\..\..\..\..\..\..\..\microchip\harmony\v2_06\bin\framework\peripheral\PIC32MX130F064B_peripherals.a(peripheral.o)
 .text.PLIB_USART_BaudRateHighEnable
                0x00000000       0x10 ..\..\..\..\..\..\..\..\microchip\harmony\v2_06\bin\framework\peripheral\PIC32MX130F064B_peripherals.a(peripheral.o)
 .text.PLIB_USART_ExistsReceiver
                0x00000000        0x8 ..\..\..\..\..\..\..\..\microchip\harmony\v2_06\bin\framework\peripheral\PIC32MX130F064B_peripherals.a(peripheral.o)
 .text.PLIB_USART_ReceiverByteReceive
                0x00000000        0xc ..\..\..\..\..\..\..\..\microchip\harmony\v2_06\bin\framework\peripheral\PIC32MX130F064B_peripherals.a(peripheral.o)
 .text.PLIB_USART_ReceiverAddressGet
                0x00000000        0x8 ..\..\..\..\..\..\..\..\microchip\harmony\v2_06\bin\framework\peripheral\PIC32MX130F064B_peripherals.a(peripheral.o)
 .text.PLIB_USART_ExistsReceiver9Bits
                0x00000000        0x8 ..\..\..\..\..\..\..\..\microchip\harmony\v2_06\bin\framework\peripheral\PIC32MX130F064B_peripherals.a(peripheral.o)
 .text.PLIB_USART_Receiver9BitsReceive
                0x00000000        0xc ..\..\..\..\..\..\..\..\microchip\harmony\v2_06\bin\framework\peripheral\PIC32MX130F064B_peripherals.a(peripheral.o)
 .text.PLIB_USART_ExistsReceiverAddressAutoDetect
                0x00000000        0x8 ..\..\..\..\..\..\..\..\microchip\harmony\v2_06\bin\framework\peripheral\PIC32MX130F064B_peripherals.a(peripheral.o)
 .text.PLIB_USART_ReceiverAddressAutoDetectEnable
                0x00000000       0x24 ..\..\..\..\..\..\..\..\microchip\harmony\v2_06\bin\framework\peripheral\PIC32MX130F064B_peripherals.a(peripheral.o)
 .text.PLIB_USART_ReceiverAddressAutoDetectDisable
                0x00000000       0x10 ..\..\..\..\..\..\..\..\microchip\harmony\v2_06\bin\framework\peripheral\PIC32MX130F064B_peripherals.a(peripheral.o)
 .text.PLIB_USART_ExistsReceiverAddressDetect
                0x00000000        0x8 ..\..\..\..\..\..\..\..\microchip\harmony\v2_06\bin\framework\peripheral\PIC32MX130F064B_peripherals.a(peripheral.o)
 .text.PLIB_USART_ReceiverAddressDetectEnable
                0x00000000       0x10 ..\..\..\..\..\..\..\..\microchip\harmony\v2_06\bin\framework\peripheral\PIC32MX130F064B_peripherals.a(peripheral.o)
 .text.PLIB_USART_ReceiverAddressDetectDisable
                0x00000000       0x10 ..\..\..\..\..\..\..\..\microchip\harmony\v2_06\bin\framework\peripheral\PIC32MX130F064B_peripherals.a(peripheral.o)
 .text.PLIB_USART_ReceiverAddressIsReceived
                0x00000000        0xc ..\..\..\..\..\..\..\..\microchip\harmony\v2_06\bin\framework\peripheral\PIC32MX130F064B_peripherals.a(peripheral.o)
 .text.PLIB_USART_ExistsReceiverAddress
                0x00000000        0x8 ..\..\..\..\..\..\..\..\microchip\harmony\v2_06\bin\framework\peripheral\PIC32MX130F064B_peripherals.a(peripheral.o)
 .text.PLIB_USART_AddressSet
                0x00000000       0x1c ..\..\..\..\..\..\..\..\microchip\harmony\v2_06\bin\framework\peripheral\PIC32MX130F064B_peripherals.a(peripheral.o)
 .text.PLIB_USART_AddressGet
                0x00000000        0xc ..\..\..\..\..\..\..\..\microchip\harmony\v2_06\bin\framework\peripheral\PIC32MX130F064B_peripherals.a(peripheral.o)
 .text.PLIB_USART_ExistsReceiverAddressMask
                0x00000000        0x8 ..\..\..\..\..\..\..\..\microchip\harmony\v2_06\bin\framework\peripheral\PIC32MX130F064B_peripherals.a(peripheral.o)
 .text.PLIB_USART_AddressMaskSet
                0x00000000        0x8 ..\..\..\..\..\..\..\..\microchip\harmony\v2_06\bin\framework\peripheral\PIC32MX130F064B_peripherals.a(peripheral.o)
 .text.PLIB_USART_AddressMaskGet
                0x00000000        0x8 ..\..\..\..\..\..\..\..\microchip\harmony\v2_06\bin\framework\peripheral\PIC32MX130F064B_peripherals.a(peripheral.o)
 .text.PLIB_USART_ExistsReceiverDataAvailableStatus
                0x00000000        0x8 ..\..\..\..\..\..\..\..\microchip\harmony\v2_06\bin\framework\peripheral\PIC32MX130F064B_peripherals.a(peripheral.o)
 .text.PLIB_USART_ReceiverDataIsAvailable
                0x00000000        0xc ..\..\..\..\..\..\..\..\microchip\harmony\v2_06\bin\framework\peripheral\PIC32MX130F064B_peripherals.a(peripheral.o)
 .text.PLIB_USART_ExistsReceiverEnable
                0x00000000        0x8 ..\..\..\..\..\..\..\..\microchip\harmony\v2_06\bin\framework\peripheral\PIC32MX130F064B_peripherals.a(peripheral.o)
 .text.PLIB_USART_ReceiverEnable
                0x00000000       0x10 ..\..\..\..\..\..\..\..\microchip\harmony\v2_06\bin\framework\peripheral\PIC32MX130F064B_peripherals.a(peripheral.o)
 .text.PLIB_USART_ReceiverDisable
                0x00000000       0x10 ..\..\..\..\..\..\..\..\microchip\harmony\v2_06\bin\framework\peripheral\PIC32MX130F064B_peripherals.a(peripheral.o)
 .text.PLIB_USART_ExistsReceiverIdleStatus
                0x00000000        0x8 ..\..\..\..\..\..\..\..\microchip\harmony\v2_06\bin\framework\peripheral\PIC32MX130F064B_peripherals.a(peripheral.o)
 .text.PLIB_USART_ReceiverIsIdle
                0x00000000        0xc ..\..\..\..\..\..\..\..\microchip\harmony\v2_06\bin\framework\peripheral\PIC32MX130F064B_peripherals.a(peripheral.o)
 .text.PLIB_USART_ExistsReceiverFramingErrorStatus
                0x00000000        0x8 ..\..\..\..\..\..\..\..\microchip\harmony\v2_06\bin\framework\peripheral\PIC32MX130F064B_peripherals.a(peripheral.o)
 .text.PLIB_USART_ReceiverFramingErrorHasOccurred
                0x00000000        0xc ..\..\..\..\..\..\..\..\microchip\harmony\v2_06\bin\framework\peripheral\PIC32MX130F064B_peripherals.a(peripheral.o)
 .text.PLIB_USART_ExistsReceiverInterruptMode
                0x00000000        0x8 ..\..\..\..\..\..\..\..\microchip\harmony\v2_06\bin\framework\peripheral\PIC32MX130F064B_peripherals.a(peripheral.o)
 .text.PLIB_USART_ReceiverInterruptModeSelect
                0x00000000       0x1c ..\..\..\..\..\..\..\..\microchip\harmony\v2_06\bin\framework\peripheral\PIC32MX130F064B_peripherals.a(peripheral.o)
 .text.PLIB_USART_InitializeOperation
                0x00000000       0x3c ..\..\..\..\..\..\..\..\microchip\harmony\v2_06\bin\framework\peripheral\PIC32MX130F064B_peripherals.a(peripheral.o)
 .text.PLIB_USART_ExistsReceiverIdleStateLowEnable
                0x00000000        0x8 ..\..\..\..\..\..\..\..\microchip\harmony\v2_06\bin\framework\peripheral\PIC32MX130F064B_peripherals.a(peripheral.o)
 .text.PLIB_USART_ReceiverIdleStateLowEnable
                0x00000000       0x10 ..\..\..\..\..\..\..\..\microchip\harmony\v2_06\bin\framework\peripheral\PIC32MX130F064B_peripherals.a(peripheral.o)
 .text.PLIB_USART_ReceiverIdleStateLowDisable
                0x00000000       0x10 ..\..\..\..\..\..\..\..\microchip\harmony\v2_06\bin\framework\peripheral\PIC32MX130F064B_peripherals.a(peripheral.o)
 .text.PLIB_USART_ExistsReceiverParityErrorStatus
                0x00000000        0x8 ..\..\..\..\..\..\..\..\microchip\harmony\v2_06\bin\framework\peripheral\PIC32MX130F064B_peripherals.a(peripheral.o)
 .text.PLIB_USART_ReceiverParityErrorHasOccurred
                0x00000000        0xc ..\..\..\..\..\..\..\..\microchip\harmony\v2_06\bin\framework\peripheral\PIC32MX130F064B_peripherals.a(peripheral.o)
 .text.PLIB_USART_ExistsReceiverOverrunStatus
                0x00000000        0x8 ..\..\..\..\..\..\..\..\microchip\harmony\v2_06\bin\framework\peripheral\PIC32MX130F064B_peripherals.a(peripheral.o)
 .text.PLIB_USART_ReceiverOverrunErrorClear
                0x00000000       0x10 ..\..\..\..\..\..\..\..\microchip\harmony\v2_06\bin\framework\peripheral\PIC32MX130F064B_peripherals.a(peripheral.o)
 .text.PLIB_USART_ReceiverOverrunHasOccurred
                0x00000000        0xc ..\..\..\..\..\..\..\..\microchip\harmony\v2_06\bin\framework\peripheral\PIC32MX130F064B_peripherals.a(peripheral.o)
 .text.PLIB_USART_ExistsTransmitter
                0x00000000        0x8 ..\..\..\..\..\..\..\..\microchip\harmony\v2_06\bin\framework\peripheral\PIC32MX130F064B_peripherals.a(peripheral.o)
 .text.PLIB_USART_TransmitterByteSend
                0x00000000        0xc ..\..\..\..\..\..\..\..\microchip\harmony\v2_06\bin\framework\peripheral\PIC32MX130F064B_peripherals.a(peripheral.o)
 .text.PLIB_USART_TransmitterAddressGet
                0x00000000        0x8 ..\..\..\..\..\..\..\..\microchip\harmony\v2_06\bin\framework\peripheral\PIC32MX130F064B_peripherals.a(peripheral.o)
 .text.PLIB_USART_ExistsTransmitter9BitsSend
                0x00000000        0x8 ..\..\..\..\..\..\..\..\microchip\harmony\v2_06\bin\framework\peripheral\PIC32MX130F064B_peripherals.a(peripheral.o)
 .text.PLIB_USART_Transmitter9BitsSend
                0x00000000       0x18 ..\..\..\..\..\..\..\..\microchip\harmony\v2_06\bin\framework\peripheral\PIC32MX130F064B_peripherals.a(peripheral.o)
 .text.PLIB_USART_ExistsTransmitterBreak
                0x00000000        0x8 ..\..\..\..\..\..\..\..\microchip\harmony\v2_06\bin\framework\peripheral\PIC32MX130F064B_peripherals.a(peripheral.o)
 .text.PLIB_USART_TransmitterBreakSend
                0x00000000       0x10 ..\..\..\..\..\..\..\..\microchip\harmony\v2_06\bin\framework\peripheral\PIC32MX130F064B_peripherals.a(peripheral.o)
 .text.PLIB_USART_TransmitterBreakSendIsComplete
                0x00000000        0xc ..\..\..\..\..\..\..\..\microchip\harmony\v2_06\bin\framework\peripheral\PIC32MX130F064B_peripherals.a(peripheral.o)
 .text.PLIB_USART_ExistsTransmitterBufferFullStatus
                0x00000000        0x8 ..\..\..\..\..\..\..\..\microchip\harmony\v2_06\bin\framework\peripheral\PIC32MX130F064B_peripherals.a(peripheral.o)
 .text.PLIB_USART_TransmitterBufferIsFull
                0x00000000        0xc ..\..\..\..\..\..\..\..\microchip\harmony\v2_06\bin\framework\peripheral\PIC32MX130F064B_peripherals.a(peripheral.o)
 .text.PLIB_USART_TransmitterIsEmpty
                0x00000000        0xc ..\..\..\..\..\..\..\..\microchip\harmony\v2_06\bin\framework\peripheral\PIC32MX130F064B_peripherals.a(peripheral.o)
 .text.PLIB_USART_ExistsTransmitterEmptyStatus
                0x00000000        0x8 ..\..\..\..\..\..\..\..\microchip\harmony\v2_06\bin\framework\peripheral\PIC32MX130F064B_peripherals.a(peripheral.o)
 .text.PLIB_USART_ExistsTransmitterEnable
                0x00000000        0x8 ..\..\..\..\..\..\..\..\microchip\harmony\v2_06\bin\framework\peripheral\PIC32MX130F064B_peripherals.a(peripheral.o)
 .text.PLIB_USART_TransmitterEnable
                0x00000000       0x10 ..\..\..\..\..\..\..\..\microchip\harmony\v2_06\bin\framework\peripheral\PIC32MX130F064B_peripherals.a(peripheral.o)
 .text.PLIB_USART_TransmitterDisable
                0x00000000       0x10 ..\..\..\..\..\..\..\..\microchip\harmony\v2_06\bin\framework\peripheral\PIC32MX130F064B_peripherals.a(peripheral.o)
 .text.PLIB_USART_TransmitterInterruptModeSelect
                0x00000000       0x1c ..\..\..\..\..\..\..\..\microchip\harmony\v2_06\bin\framework\peripheral\PIC32MX130F064B_peripherals.a(peripheral.o)
 .text.PLIB_USART_ExistsTransmitterInterruptMode
                0x00000000        0x8 ..\..\..\..\..\..\..\..\microchip\harmony\v2_06\bin\framework\peripheral\PIC32MX130F064B_peripherals.a(peripheral.o)
 .text.PLIB_USART_ExistsTransmitterIdleIsLow
                0x00000000        0x8 ..\..\..\..\..\..\..\..\microchip\harmony\v2_06\bin\framework\peripheral\PIC32MX130F064B_peripherals.a(peripheral.o)
 .text.PLIB_USART_TransmitterIdleIsLowDisable
                0x00000000       0x28 ..\..\..\..\..\..\..\..\microchip\harmony\v2_06\bin\framework\peripheral\PIC32MX130F064B_peripherals.a(peripheral.o)
 .text.PLIB_USART_TransmitterIdleIsLowEnable
                0x00000000       0x28 ..\..\..\..\..\..\..\..\microchip\harmony\v2_06\bin\framework\peripheral\PIC32MX130F064B_peripherals.a(peripheral.o)
 .text.PLIB_USB_OTG_InterruptFlagSet
                0x00000000       0x14 ..\..\..\..\..\..\..\..\microchip\harmony\v2_06\bin\framework\peripheral\PIC32MX130F064B_peripherals.a(peripheral.o)
 .text.PLIB_USB_OTG_InterruptFlagClear
                0x00000000        0xc ..\..\..\..\..\..\..\..\microchip\harmony\v2_06\bin\framework\peripheral\PIC32MX130F064B_peripherals.a(peripheral.o)
 .text.PLIB_USB_OTG_InterruptFlagGet
                0x00000000       0x10 ..\..\..\..\..\..\..\..\microchip\harmony\v2_06\bin\framework\peripheral\PIC32MX130F064B_peripherals.a(peripheral.o)
 .text.PLIB_USB_ExistsOTG_InterruptStatus
                0x00000000        0x8 ..\..\..\..\..\..\..\..\microchip\harmony\v2_06\bin\framework\peripheral\PIC32MX130F064B_peripherals.a(peripheral.o)
 .text.PLIB_USB_OTG_InterruptEnable
                0x00000000       0x14 ..\..\..\..\..\..\..\..\microchip\harmony\v2_06\bin\framework\peripheral\PIC32MX130F064B_peripherals.a(peripheral.o)
 .text.PLIB_USB_OTG_InterruptDisable
                0x00000000       0x18 ..\..\..\..\..\..\..\..\microchip\harmony\v2_06\bin\framework\peripheral\PIC32MX130F064B_peripherals.a(peripheral.o)
 .text.PLIB_USB_OTG_InterruptIsEnabled
                0x00000000       0x10 ..\..\..\..\..\..\..\..\microchip\harmony\v2_06\bin\framework\peripheral\PIC32MX130F064B_peripherals.a(peripheral.o)
 .text.PLIB_USB_ExistsOTG_Interrupt
                0x00000000        0x8 ..\..\..\..\..\..\..\..\microchip\harmony\v2_06\bin\framework\peripheral\PIC32MX130F064B_peripherals.a(peripheral.o)
 .text.PLIB_USB_OTG_IDPinStateIsTypeA
                0x00000000       0x10 ..\..\..\..\..\..\..\..\microchip\harmony\v2_06\bin\framework\peripheral\PIC32MX130F064B_peripherals.a(peripheral.o)
 .text.PLIB_USB_ExistsOTG_IDPinState
                0x00000000        0x8 ..\..\..\..\..\..\..\..\microchip\harmony\v2_06\bin\framework\peripheral\PIC32MX130F064B_peripherals.a(peripheral.o)
 .text.PLIB_USB_OTG_LineStateIsStable
                0x00000000        0xc ..\..\..\..\..\..\..\..\microchip\harmony\v2_06\bin\framework\peripheral\PIC32MX130F064B_peripherals.a(peripheral.o)
 .text.PLIB_USB_ExistsOTG_LineState
                0x00000000        0x8 ..\..\..\..\..\..\..\..\microchip\harmony\v2_06\bin\framework\peripheral\PIC32MX130F064B_peripherals.a(peripheral.o)
 .text.PLIB_USB_OTG_SessionValid
                0x00000000        0xc ..\..\..\..\..\..\..\..\microchip\harmony\v2_06\bin\framework\peripheral\PIC32MX130F064B_peripherals.a(peripheral.o)
 .text.PLIB_USB_ExistsOTG_SessionValid
                0x00000000        0x8 ..\..\..\..\..\..\..\..\microchip\harmony\v2_06\bin\framework\peripheral\PIC32MX130F064B_peripherals.a(peripheral.o)
 .text.PLIB_USB_OTG_BSessionHasEnded
                0x00000000        0xc ..\..\..\..\..\..\..\..\microchip\harmony\v2_06\bin\framework\peripheral\PIC32MX130F064B_peripherals.a(peripheral.o)
 .text.PLIB_USB_ExistsOTG_BSessionEnd
                0x00000000        0x8 ..\..\..\..\..\..\..\..\microchip\harmony\v2_06\bin\framework\peripheral\PIC32MX130F064B_peripherals.a(peripheral.o)
 .text.PLIB_USB_OTG_VBusValid
                0x00000000        0xc ..\..\..\..\..\..\..\..\microchip\harmony\v2_06\bin\framework\peripheral\PIC32MX130F064B_peripherals.a(peripheral.o)
 .text.PLIB_USB_ExistsOTG_ASessionValid
                0x00000000        0x8 ..\..\..\..\..\..\..\..\microchip\harmony\v2_06\bin\framework\peripheral\PIC32MX130F064B_peripherals.a(peripheral.o)
 .text.PLIB_USB_OTG_PullUpPullDownSetup
                0x00000000       0x20 ..\..\..\..\..\..\..\..\microchip\harmony\v2_06\bin\framework\peripheral\PIC32MX130F064B_peripherals.a(peripheral.o)
 .text.PLIB_USB_ExistsOTG_PullUpPullDown
                0x00000000        0x8 ..\..\..\..\..\..\..\..\microchip\harmony\v2_06\bin\framework\peripheral\PIC32MX130F064B_peripherals.a(peripheral.o)
 .text.PLIB_USB_OTG_VBusPowerOff
                0x00000000       0x14 ..\..\..\..\..\..\..\..\microchip\harmony\v2_06\bin\framework\peripheral\PIC32MX130F064B_peripherals.a(peripheral.o)
 .text.PLIB_USB_OTG_VBusPowerOn
                0x00000000       0x18 ..\..\..\..\..\..\..\..\microchip\harmony\v2_06\bin\framework\peripheral\PIC32MX130F064B_peripherals.a(peripheral.o)
 .text.PLIB_USB_ExistsOTG_VbusPowerOnOff
                0x00000000        0x8 ..\..\..\..\..\..\..\..\microchip\harmony\v2_06\bin\framework\peripheral\PIC32MX130F064B_peripherals.a(peripheral.o)
 .text.PLIB_USB_OTG_VBusChargeEnable
                0x00000000       0x10 ..\..\..\..\..\..\..\..\microchip\harmony\v2_06\bin\framework\peripheral\PIC32MX130F064B_peripherals.a(peripheral.o)
 .text.PLIB_USB_OTG_VBusChargeDisable
                0x00000000       0x10 ..\..\..\..\..\..\..\..\microchip\harmony\v2_06\bin\framework\peripheral\PIC32MX130F064B_peripherals.a(peripheral.o)
 .text.PLIB_USB_ExistsOTG_VbusCharge
                0x00000000        0x8 ..\..\..\..\..\..\..\..\microchip\harmony\v2_06\bin\framework\peripheral\PIC32MX130F064B_peripherals.a(peripheral.o)
 .text.PLIB_USB_OTG_VBusDischargeEnable
                0x00000000       0x10 ..\..\..\..\..\..\..\..\microchip\harmony\v2_06\bin\framework\peripheral\PIC32MX130F064B_peripherals.a(peripheral.o)
 .text.PLIB_USB_OTG_VBusDischargeDisable
                0x00000000       0x10 ..\..\..\..\..\..\..\..\microchip\harmony\v2_06\bin\framework\peripheral\PIC32MX130F064B_peripherals.a(peripheral.o)
 .text.PLIB_USB_ExistsOTG_VbusDischarge
                0x00000000        0x8 ..\..\..\..\..\..\..\..\microchip\harmony\v2_06\bin\framework\peripheral\PIC32MX130F064B_peripherals.a(peripheral.o)
 .text.PLIB_USB_ActivityPending
                0x00000000        0xc ..\..\..\..\..\..\..\..\microchip\harmony\v2_06\bin\framework\peripheral\PIC32MX130F064B_peripherals.a(peripheral.o)
 .text.PLIB_USB_ExistsActivityPending
                0x00000000        0x8 ..\..\..\..\..\..\..\..\microchip\harmony\v2_06\bin\framework\peripheral\PIC32MX130F064B_peripherals.a(peripheral.o)
 .text.PLIB_USB_SleepGuardEnable
                0x00000000       0x10 ..\..\..\..\..\..\..\..\microchip\harmony\v2_06\bin\framework\peripheral\PIC32MX130F064B_peripherals.a(peripheral.o)
 .text.PLIB_USB_SleepGuardDisable
                0x00000000       0x10 ..\..\..\..\..\..\..\..\microchip\harmony\v2_06\bin\framework\peripheral\PIC32MX130F064B_peripherals.a(peripheral.o)
 .text.PLIB_USB_ExistsSleepEntryGuard
                0x00000000        0x8 ..\..\..\..\..\..\..\..\microchip\harmony\v2_06\bin\framework\peripheral\PIC32MX130F064B_peripherals.a(peripheral.o)
 .text.PLIB_USB_ModuleIsBusy
                0x00000000        0xc ..\..\..\..\..\..\..\..\microchip\harmony\v2_06\bin\framework\peripheral\PIC32MX130F064B_peripherals.a(peripheral.o)
 .text.PLIB_USB_ExistsModuleBusy
                0x00000000        0x8 ..\..\..\..\..\..\..\..\microchip\harmony\v2_06\bin\framework\peripheral\PIC32MX130F064B_peripherals.a(peripheral.o)
 .text.PLIB_USB_SuspendEnable
                0x00000000       0x10 ..\..\..\..\..\..\..\..\microchip\harmony\v2_06\bin\framework\peripheral\PIC32MX130F064B_peripherals.a(peripheral.o)
 .text.PLIB_USB_SuspendDisable
                0x00000000       0x10 ..\..\..\..\..\..\..\..\microchip\harmony\v2_06\bin\framework\peripheral\PIC32MX130F064B_peripherals.a(peripheral.o)
 .text.PLIB_USB_ExistsSuspend
                0x00000000        0x8 ..\..\..\..\..\..\..\..\microchip\harmony\v2_06\bin\framework\peripheral\PIC32MX130F064B_peripherals.a(peripheral.o)
 .text.PLIB_USB_Enable
                0x00000000       0x18 ..\..\..\..\..\..\..\..\microchip\harmony\v2_06\bin\framework\peripheral\PIC32MX130F064B_peripherals.a(peripheral.o)
 .text.PLIB_USB_Disable
                0x00000000       0x14 ..\..\..\..\..\..\..\..\microchip\harmony\v2_06\bin\framework\peripheral\PIC32MX130F064B_peripherals.a(peripheral.o)
 .text.PLIB_USB_ExistsModulePower
                0x00000000        0x8 ..\..\..\..\..\..\..\..\microchip\harmony\v2_06\bin\framework\peripheral\PIC32MX130F064B_peripherals.a(peripheral.o)
 .text.PLIB_USB_InterruptFlagSet
                0x00000000       0x14 ..\..\..\..\..\..\..\..\microchip\harmony\v2_06\bin\framework\peripheral\PIC32MX130F064B_peripherals.a(peripheral.o)
 .text.PLIB_USB_InterruptFlagClear
                0x00000000        0xc ..\..\..\..\..\..\..\..\microchip\harmony\v2_06\bin\framework\peripheral\PIC32MX130F064B_peripherals.a(peripheral.o)
 .text.PLIB_USB_InterruptFlagGet
                0x00000000       0x10 ..\..\..\..\..\..\..\..\microchip\harmony\v2_06\bin\framework\peripheral\PIC32MX130F064B_peripherals.a(peripheral.o)
 .text.PLIB_USB_InterruptFlagAllGet
                0x00000000        0xc ..\..\..\..\..\..\..\..\microchip\harmony\v2_06\bin\framework\peripheral\PIC32MX130F064B_peripherals.a(peripheral.o)
 .text.PLIB_USB_ExistsGEN_InterruptStatus
                0x00000000        0x8 ..\..\..\..\..\..\..\..\microchip\harmony\v2_06\bin\framework\peripheral\PIC32MX130F064B_peripherals.a(peripheral.o)
 .text.PLIB_USB_InterruptEnable
                0x00000000       0x14 ..\..\..\..\..\..\..\..\microchip\harmony\v2_06\bin\framework\peripheral\PIC32MX130F064B_peripherals.a(peripheral.o)
 .text.PLIB_USB_InterruptDisable
                0x00000000       0x18 ..\..\..\..\..\..\..\..\microchip\harmony\v2_06\bin\framework\peripheral\PIC32MX130F064B_peripherals.a(peripheral.o)
 .text.PLIB_USB_InterruptIsEnabled
                0x00000000       0x10 ..\..\..\..\..\..\..\..\microchip\harmony\v2_06\bin\framework\peripheral\PIC32MX130F064B_peripherals.a(peripheral.o)
 .text.PLIB_USB_ExistsGEN_Interrupt
                0x00000000        0x8 ..\..\..\..\..\..\..\..\microchip\harmony\v2_06\bin\framework\peripheral\PIC32MX130F064B_peripherals.a(peripheral.o)
 .text.PLIB_USB_AllInterruptEnable
                0x00000000       0x14 ..\..\..\..\..\..\..\..\microchip\harmony\v2_06\bin\framework\peripheral\PIC32MX130F064B_peripherals.a(peripheral.o)
 .text.PLIB_USB_InterruptEnableGet
                0x00000000        0xc ..\..\..\..\..\..\..\..\microchip\harmony\v2_06\bin\framework\peripheral\PIC32MX130F064B_peripherals.a(peripheral.o)
 .text.PLIB_USB_ExistsALL_Interrupt
                0x00000000        0x8 ..\..\..\..\..\..\..\..\microchip\harmony\v2_06\bin\framework\peripheral\PIC32MX130F064B_peripherals.a(peripheral.o)
 .text.PLIB_USB_ErrorInterruptFlagSet
                0x00000000       0x14 ..\..\..\..\..\..\..\..\microchip\harmony\v2_06\bin\framework\peripheral\PIC32MX130F064B_peripherals.a(peripheral.o)
 .text.PLIB_USB_ErrorInterruptFlagClear
                0x00000000        0xc ..\..\..\..\..\..\..\..\microchip\harmony\v2_06\bin\framework\peripheral\PIC32MX130F064B_peripherals.a(peripheral.o)
 .text.PLIB_USB_ErrorInterruptFlagGet
                0x00000000       0x10 ..\..\..\..\..\..\..\..\microchip\harmony\v2_06\bin\framework\peripheral\PIC32MX130F064B_peripherals.a(peripheral.o)
 .text.PLIB_USB_ErrorInterruptFlagAllGet
                0x00000000        0xc ..\..\..\..\..\..\..\..\microchip\harmony\v2_06\bin\framework\peripheral\PIC32MX130F064B_peripherals.a(peripheral.o)
 .text.PLIB_USB_ExistsERR_InterruptStatus
                0x00000000        0x8 ..\..\..\..\..\..\..\..\microchip\harmony\v2_06\bin\framework\peripheral\PIC32MX130F064B_peripherals.a(peripheral.o)
 .text.PLIB_USB_ErrorInterruptEnable
                0x00000000       0x14 ..\..\..\..\..\..\..\..\microchip\harmony\v2_06\bin\framework\peripheral\PIC32MX130F064B_peripherals.a(peripheral.o)
 .text.PLIB_USB_ErrorInterruptDisable
                0x00000000       0x18 ..\..\..\..\..\..\..\..\microchip\harmony\v2_06\bin\framework\peripheral\PIC32MX130F064B_peripherals.a(peripheral.o)
 .text.PLIB_USB_ErrorInterruptIsEnabled
                0x00000000       0x10 ..\..\..\..\..\..\..\..\microchip\harmony\v2_06\bin\framework\peripheral\PIC32MX130F064B_peripherals.a(peripheral.o)
 .text.PLIB_USB_ExistsERR_Interrupt
                0x00000000        0x8 ..\..\..\..\..\..\..\..\microchip\harmony\v2_06\bin\framework\peripheral\PIC32MX130F064B_peripherals.a(peripheral.o)
 .text.PLIB_USB_LastTransactionEndPtGet
                0x00000000        0xc ..\..\..\..\..\..\..\..\microchip\harmony\v2_06\bin\framework\peripheral\PIC32MX130F064B_peripherals.a(peripheral.o)
 .text.PLIB_USB_ExistsLastEndpoint
                0x00000000        0x8 ..\..\..\..\..\..\..\..\microchip\harmony\v2_06\bin\framework\peripheral\PIC32MX130F064B_peripherals.a(peripheral.o)
 .text.PLIB_USB_LastTransactionDirectionGet
                0x00000000        0xc ..\..\..\..\..\..\..\..\microchip\harmony\v2_06\bin\framework\peripheral\PIC32MX130F064B_peripherals.a(peripheral.o)
 .text.PLIB_USB_ExistsLastDirection
                0x00000000        0x8 ..\..\..\..\..\..\..\..\microchip\harmony\v2_06\bin\framework\peripheral\PIC32MX130F064B_peripherals.a(peripheral.o)
 .text.PLIB_USB_LastTransactionPingPongStateGet
                0x00000000        0xc ..\..\..\..\..\..\..\..\microchip\harmony\v2_06\bin\framework\peripheral\PIC32MX130F064B_peripherals.a(peripheral.o)
 .text.PLIB_USB_ExistsLastPingPong
                0x00000000        0x8 ..\..\..\..\..\..\..\..\microchip\harmony\v2_06\bin\framework\peripheral\PIC32MX130F064B_peripherals.a(peripheral.o)
 .text.PLIB_USB_LastTransactionDetailsGet
                0x00000000       0x28 ..\..\..\..\..\..\..\..\microchip\harmony\v2_06\bin\framework\peripheral\PIC32MX130F064B_peripherals.a(peripheral.o)
 .text.PLIB_USB_ExistsLastTransactionDetails
                0x00000000        0x8 ..\..\..\..\..\..\..\..\microchip\harmony\v2_06\bin\framework\peripheral\PIC32MX130F064B_peripherals.a(peripheral.o)
 .text.PLIB_USB_JStateIsActive
                0x00000000        0xc ..\..\..\..\..\..\..\..\microchip\harmony\v2_06\bin\framework\peripheral\PIC32MX130F064B_peripherals.a(peripheral.o)
 .text.PLIB_USB_ExistsLiveJState
                0x00000000        0x8 ..\..\..\..\..\..\..\..\microchip\harmony\v2_06\bin\framework\peripheral\PIC32MX130F064B_peripherals.a(peripheral.o)
 .text.PLIB_USB_SE0InProgress
                0x00000000        0xc ..\..\..\..\..\..\..\..\microchip\harmony\v2_06\bin\framework\peripheral\PIC32MX130F064B_peripherals.a(peripheral.o)
 .text.PLIB_USB_ExistsLiveSingleEndedZero
                0x00000000        0x8 ..\..\..\..\..\..\..\..\microchip\harmony\v2_06\bin\framework\peripheral\PIC32MX130F064B_peripherals.a(peripheral.o)
 .text.PLIB_USB_PacketTransferIsDisabled
                0x00000000        0xc ..\..\..\..\..\..\..\..\microchip\harmony\v2_06\bin\framework\peripheral\PIC32MX130F064B_peripherals.a(peripheral.o)
 .text.PLIB_USB_PacketTransferEnable
                0x00000000       0x14 ..\..\..\..\..\..\..\..\microchip\harmony\v2_06\bin\framework\peripheral\PIC32MX130F064B_peripherals.a(peripheral.o)
 .text.PLIB_USB_PacketTransferDisable
                0x00000000       0x18 ..\..\..\..\..\..\..\..\microchip\harmony\v2_06\bin\framework\peripheral\PIC32MX130F064B_peripherals.a(peripheral.o)
 .text.PLIB_USB_ExistsPacketTransfer
                0x00000000        0x8 ..\..\..\..\..\..\..\..\microchip\harmony\v2_06\bin\framework\peripheral\PIC32MX130F064B_peripherals.a(peripheral.o)
 .text.PLIB_USB_IsBusyWithToken
                0x00000000        0xc ..\..\..\..\..\..\..\..\microchip\harmony\v2_06\bin\framework\peripheral\PIC32MX130F064B_peripherals.a(peripheral.o)
 .text.PLIB_USB_ExistsHostBusyWithToken
                0x00000000        0x8 ..\..\..\..\..\..\..\..\microchip\harmony\v2_06\bin\framework\peripheral\PIC32MX130F064B_peripherals.a(peripheral.o)
 .text.PLIB_USB_ResetSignalEnable
                0x00000000       0x14 ..\..\..\..\..\..\..\..\microchip\harmony\v2_06\bin\framework\peripheral\PIC32MX130F064B_peripherals.a(peripheral.o)
 .text.PLIB_USB_ResetSignalDisable
                0x00000000       0x14 ..\..\..\..\..\..\..\..\microchip\harmony\v2_06\bin\framework\peripheral\PIC32MX130F064B_peripherals.a(peripheral.o)
 .text.PLIB_USB_ExistsHostGeneratesReset
                0x00000000        0x8 ..\..\..\..\..\..\..\..\microchip\harmony\v2_06\bin\framework\peripheral\PIC32MX130F064B_peripherals.a(peripheral.o)
 .text.PLIB_USB_OperatingModeSelect
                0x00000000       0x8c ..\..\..\..\..\..\..\..\microchip\harmony\v2_06\bin\framework\peripheral\PIC32MX130F064B_peripherals.a(peripheral.o)
 .text.PLIB_USB_ExistsOpModeSelect
                0x00000000        0x8 ..\..\..\..\..\..\..\..\microchip\harmony\v2_06\bin\framework\peripheral\PIC32MX130F064B_peripherals.a(peripheral.o)
 .text.PLIB_USB_ResumeSignalingEnable
                0x00000000       0x14 ..\..\..\..\..\..\..\..\microchip\harmony\v2_06\bin\framework\peripheral\PIC32MX130F064B_peripherals.a(peripheral.o)
 .text.PLIB_USB_ResumeSignalingDisable
                0x00000000       0x14 ..\..\..\..\..\..\..\..\microchip\harmony\v2_06\bin\framework\peripheral\PIC32MX130F064B_peripherals.a(peripheral.o)
 .text.PLIB_USB_ExistsResumeSignaling
                0x00000000        0x8 ..\..\..\..\..\..\..\..\microchip\harmony\v2_06\bin\framework\peripheral\PIC32MX130F064B_peripherals.a(peripheral.o)
 .text.PLIB_USB_PingPongFreeze
                0x00000000       0x14 ..\..\..\..\..\..\..\..\microchip\harmony\v2_06\bin\framework\peripheral\PIC32MX130F064B_peripherals.a(peripheral.o)
 .text.PLIB_USB_PingPongUnfreeze
                0x00000000       0x14 ..\..\..\..\..\..\..\..\microchip\harmony\v2_06\bin\framework\peripheral\PIC32MX130F064B_peripherals.a(peripheral.o)
 .text.PLIB_USB_PingPongReset
                0x00000000       0x20 ..\..\..\..\..\..\..\..\microchip\harmony\v2_06\bin\framework\peripheral\PIC32MX130F064B_peripherals.a(peripheral.o)
 .text.PLIB_USB_ExistsBufferFreeze
                0x00000000        0x8 ..\..\..\..\..\..\..\..\microchip\harmony\v2_06\bin\framework\peripheral\PIC32MX130F064B_peripherals.a(peripheral.o)
 .text.PLIB_USB_SOFEnable
                0x00000000       0x14 ..\..\..\..\..\..\..\..\microchip\harmony\v2_06\bin\framework\peripheral\PIC32MX130F064B_peripherals.a(peripheral.o)
 .text.PLIB_USB_SOFDisable
                0x00000000       0x14 ..\..\..\..\..\..\..\..\microchip\harmony\v2_06\bin\framework\peripheral\PIC32MX130F064B_peripherals.a(peripheral.o)
 .text.PLIB_USB_ExistsStartOfFrames
                0x00000000        0x8 ..\..\..\..\..\..\..\..\microchip\harmony\v2_06\bin\framework\peripheral\PIC32MX130F064B_peripherals.a(peripheral.o)
 .text.PLIB_USB_TokenSpeedSelect
                0x00000000       0x1c ..\..\..\..\..\..\..\..\microchip\harmony\v2_06\bin\framework\peripheral\PIC32MX130F064B_peripherals.a(peripheral.o)
 .text.PLIB_USB_ExistsNextTokenSpeed
                0x00000000        0x8 ..\..\..\..\..\..\..\..\microchip\harmony\v2_06\bin\framework\peripheral\PIC32MX130F064B_peripherals.a(peripheral.o)
 .text.PLIB_USB_DeviceAddressSet
                0x00000000       0x14 ..\..\..\..\..\..\..\..\microchip\harmony\v2_06\bin\framework\peripheral\PIC32MX130F064B_peripherals.a(peripheral.o)
 .text.PLIB_USB_DeviceAddressGet
                0x00000000        0xc ..\..\..\..\..\..\..\..\microchip\harmony\v2_06\bin\framework\peripheral\PIC32MX130F064B_peripherals.a(peripheral.o)
 .text.PLIB_USB_ExistsDeviceAddress
                0x00000000        0x8 ..\..\..\..\..\..\..\..\microchip\harmony\v2_06\bin\framework\peripheral\PIC32MX130F064B_peripherals.a(peripheral.o)
 .text.PLIB_USB_FrameNumberGet
                0x00000000       0x1c ..\..\..\..\..\..\..\..\microchip\harmony\v2_06\bin\framework\peripheral\PIC32MX130F064B_peripherals.a(peripheral.o)
 .text.PLIB_USB_ExistsFrameNumber
                0x00000000        0x8 ..\..\..\..\..\..\..\..\microchip\harmony\v2_06\bin\framework\peripheral\PIC32MX130F064B_peripherals.a(peripheral.o)
 .text.PLIB_USB_TokenPIDGet
                0x00000000        0xc ..\..\..\..\..\..\..\..\microchip\harmony\v2_06\bin\framework\peripheral\PIC32MX130F064B_peripherals.a(peripheral.o)
 .text.PLIB_USB_TokenPIDSet
                0x00000000       0x14 ..\..\..\..\..\..\..\..\microchip\harmony\v2_06\bin\framework\peripheral\PIC32MX130F064B_peripherals.a(peripheral.o)
 .text.PLIB_USB_TokenSend
                0x00000000       0x30 ..\..\..\..\..\..\..\..\microchip\harmony\v2_06\bin\framework\peripheral\PIC32MX130F064B_peripherals.a(peripheral.o)
 .text.PLIB_USB_ExistsTokenPID
                0x00000000        0x8 ..\..\..\..\..\..\..\..\microchip\harmony\v2_06\bin\framework\peripheral\PIC32MX130F064B_peripherals.a(peripheral.o)
 .text.PLIB_USB_TokenEPGet
                0x00000000        0xc ..\..\..\..\..\..\..\..\microchip\harmony\v2_06\bin\framework\peripheral\PIC32MX130F064B_peripherals.a(peripheral.o)
 .text.PLIB_USB_TokenEPSet
                0x00000000       0x14 ..\..\..\..\..\..\..\..\microchip\harmony\v2_06\bin\framework\peripheral\PIC32MX130F064B_peripherals.a(peripheral.o)
 .text.PLIB_USB_ExistsTokenEP
                0x00000000        0x8 ..\..\..\..\..\..\..\..\microchip\harmony\v2_06\bin\framework\peripheral\PIC32MX130F064B_peripherals.a(peripheral.o)
 .text.PLIB_USB_SOFThresholdGet
                0x00000000        0xc ..\..\..\..\..\..\..\..\microchip\harmony\v2_06\bin\framework\peripheral\PIC32MX130F064B_peripherals.a(peripheral.o)
 .text.PLIB_USB_SOFThresholdSet
                0x00000000        0xc ..\..\..\..\..\..\..\..\microchip\harmony\v2_06\bin\framework\peripheral\PIC32MX130F064B_peripherals.a(peripheral.o)
 .text.PLIB_USB_ExistsSOFThreshold
                0x00000000        0x8 ..\..\..\..\..\..\..\..\microchip\harmony\v2_06\bin\framework\peripheral\PIC32MX130F064B_peripherals.a(peripheral.o)
 .text.PLIB_USB_BDTBaseAddressGet
                0x00000000       0x2c ..\..\..\..\..\..\..\..\microchip\harmony\v2_06\bin\framework\peripheral\PIC32MX130F064B_peripherals.a(peripheral.o)
 .text.PLIB_USB_BDTBaseAddressSet
                0x00000000       0x28 ..\..\..\..\..\..\..\..\microchip\harmony\v2_06\bin\framework\peripheral\PIC32MX130F064B_peripherals.a(peripheral.o)
 .text.PLIB_USB_ExistsBDTBaseAddress
                0x00000000        0x8 ..\..\..\..\..\..\..\..\microchip\harmony\v2_06\bin\framework\peripheral\PIC32MX130F064B_peripherals.a(peripheral.o)
 .text.PLIB_USB_EyePatternDisable
                0x00000000       0x10 ..\..\..\..\..\..\..\..\microchip\harmony\v2_06\bin\framework\peripheral\PIC32MX130F064B_peripherals.a(peripheral.o)
 .text.PLIB_USB_EyePatternEnable
                0x00000000       0x10 ..\..\..\..\..\..\..\..\microchip\harmony\v2_06\bin\framework\peripheral\PIC32MX130F064B_peripherals.a(peripheral.o)
 .text.PLIB_USB_ExistsEyePattern
                0x00000000        0x8 ..\..\..\..\..\..\..\..\microchip\harmony\v2_06\bin\framework\peripheral\PIC32MX130F064B_peripherals.a(peripheral.o)
 .text.PLIB_USB_StopInIdleEnable
                0x00000000       0x18 ..\..\..\..\..\..\..\..\microchip\harmony\v2_06\bin\framework\peripheral\PIC32MX130F064B_peripherals.a(peripheral.o)
 .text.PLIB_USB_StopInIdleDisable
                0x00000000       0x18 ..\..\..\..\..\..\..\..\microchip\harmony\v2_06\bin\framework\peripheral\PIC32MX130F064B_peripherals.a(peripheral.o)
 .text.PLIB_USB_ExistsStopInIdle
                0x00000000        0x8 ..\..\..\..\..\..\..\..\microchip\harmony\v2_06\bin\framework\peripheral\PIC32MX130F064B_peripherals.a(peripheral.o)
 .text.PLIB_USB_AutoSuspendDisable
                0x00000000       0x10 ..\..\..\..\..\..\..\..\microchip\harmony\v2_06\bin\framework\peripheral\PIC32MX130F064B_peripherals.a(peripheral.o)
 .text.PLIB_USB_AutoSuspendEnable
                0x00000000       0x10 ..\..\..\..\..\..\..\..\microchip\harmony\v2_06\bin\framework\peripheral\PIC32MX130F064B_peripherals.a(peripheral.o)
 .text.PLIB_USB_ExistsAutomaticSuspend
                0x00000000        0x8 ..\..\..\..\..\..\..\..\microchip\harmony\v2_06\bin\framework\peripheral\PIC32MX130F064B_peripherals.a(peripheral.o)
 .text.PLIB_USB_PingPongModeSelect
                0x00000000        0x8 ..\..\..\..\..\..\..\..\microchip\harmony\v2_06\bin\framework\peripheral\PIC32MX130F064B_peripherals.a(peripheral.o)
 .text.PLIB_USB_PingPongModeGet
                0x00000000        0x8 ..\..\..\..\..\..\..\..\microchip\harmony\v2_06\bin\framework\peripheral\PIC32MX130F064B_peripherals.a(peripheral.o)
 .text.PLIB_USB_ExistsPingPongMode
                0x00000000        0x8 ..\..\..\..\..\..\..\..\microchip\harmony\v2_06\bin\framework\peripheral\PIC32MX130F064B_peripherals.a(peripheral.o)
 .text.PLIB_USB_UOEMonitorEnable
                0x00000000        0x8 ..\..\..\..\..\..\..\..\microchip\harmony\v2_06\bin\framework\peripheral\PIC32MX130F064B_peripherals.a(peripheral.o)
 .text.PLIB_USB_UOEMonitorDisable
                0x00000000        0x8 ..\..\..\..\..\..\..\..\microchip\harmony\v2_06\bin\framework\peripheral\PIC32MX130F064B_peripherals.a(peripheral.o)
 .text.PLIB_USB_ExistsUOEMonitor
                0x00000000        0x8 ..\..\..\..\..\..\..\..\microchip\harmony\v2_06\bin\framework\peripheral\PIC32MX130F064B_peripherals.a(peripheral.o)
 .text.PLIB_USB_OnChipPullUpEnable
                0x00000000        0x8 ..\..\..\..\..\..\..\..\microchip\harmony\v2_06\bin\framework\peripheral\PIC32MX130F064B_peripherals.a(peripheral.o)
 .text.PLIB_USB_OnChipPullUpDisable
                0x00000000        0x8 ..\..\..\..\..\..\..\..\microchip\harmony\v2_06\bin\framework\peripheral\PIC32MX130F064B_peripherals.a(peripheral.o)
 .text.PLIB_USB_ExistsOnChipPullup
                0x00000000        0x8 ..\..\..\..\..\..\..\..\microchip\harmony\v2_06\bin\framework\peripheral\PIC32MX130F064B_peripherals.a(peripheral.o)
 .text.PLIB_USB_TransceiverEnable
                0x00000000        0x8 ..\..\..\..\..\..\..\..\microchip\harmony\v2_06\bin\framework\peripheral\PIC32MX130F064B_peripherals.a(peripheral.o)
 .text.PLIB_USB_TransceiverDisable
                0x00000000        0x8 ..\..\..\..\..\..\..\..\microchip\harmony\v2_06\bin\framework\peripheral\PIC32MX130F064B_peripherals.a(peripheral.o)
 .text.PLIB_USB_ExistsOnChipTransceiver
                0x00000000        0x8 ..\..\..\..\..\..\..\..\microchip\harmony\v2_06\bin\framework\peripheral\PIC32MX130F064B_peripherals.a(peripheral.o)
 .text.PLIB_USB_FullSpeedEnable
                0x00000000        0x8 ..\..\..\..\..\..\..\..\microchip\harmony\v2_06\bin\framework\peripheral\PIC32MX130F064B_peripherals.a(peripheral.o)
 .text.PLIB_USB_FullSpeedDisable
                0x00000000        0x8 ..\..\..\..\..\..\..\..\microchip\harmony\v2_06\bin\framework\peripheral\PIC32MX130F064B_peripherals.a(peripheral.o)
 .text.PLIB_USB_ExistsSpeedControl
                0x00000000        0x8 ..\..\..\..\..\..\..\..\microchip\harmony\v2_06\bin\framework\peripheral\PIC32MX130F064B_peripherals.a(peripheral.o)
 .text.PLIB_USB_EP0LSDirectConnectEnable
                0x00000000       0x10 ..\..\..\..\..\..\..\..\microchip\harmony\v2_06\bin\framework\peripheral\PIC32MX130F064B_peripherals.a(peripheral.o)
 .text.PLIB_USB_EP0LSDirectConnectDisable
                0x00000000       0x10 ..\..\..\..\..\..\..\..\microchip\harmony\v2_06\bin\framework\peripheral\PIC32MX130F064B_peripherals.a(peripheral.o)
 .text.PLIB_USB_ExistsEP0LowSpeedConnect
                0x00000000        0x8 ..\..\..\..\..\..\..\..\microchip\harmony\v2_06\bin\framework\peripheral\PIC32MX130F064B_peripherals.a(peripheral.o)
 .text.PLIB_USB_EP0NakRetryEnable
                0x00000000       0x10 ..\..\..\..\..\..\..\..\microchip\harmony\v2_06\bin\framework\peripheral\PIC32MX130F064B_peripherals.a(peripheral.o)
 .text.PLIB_USB_EP0NakRetryDisable
                0x00000000       0x10 ..\..\..\..\..\..\..\..\microchip\harmony\v2_06\bin\framework\peripheral\PIC32MX130F064B_peripherals.a(peripheral.o)
 .text.PLIB_USB_ExistsEP0NAKRetry
                0x00000000        0x8 ..\..\..\..\..\..\..\..\microchip\harmony\v2_06\bin\framework\peripheral\PIC32MX130F064B_peripherals.a(peripheral.o)
 .text.PLIB_USB_EPnTxSelect
                0x00000000       0x20 ..\..\..\..\..\..\..\..\microchip\harmony\v2_06\bin\framework\peripheral\PIC32MX130F064B_peripherals.a(peripheral.o)
 .text.PLIB_USB_EPnRxSelect
                0x00000000       0x20 ..\..\..\..\..\..\..\..\microchip\harmony\v2_06\bin\framework\peripheral\PIC32MX130F064B_peripherals.a(peripheral.o)
 .text.PLIB_USB_EPnTxRxSelect
                0x00000000       0x2c ..\..\..\..\..\..\..\..\microchip\harmony\v2_06\bin\framework\peripheral\PIC32MX130F064B_peripherals.a(peripheral.o)
 .text.PLIB_USB_ExistsEPnTxRx
                0x00000000        0x8 ..\..\..\..\..\..\..\..\microchip\harmony\v2_06\bin\framework\peripheral\PIC32MX130F064B_peripherals.a(peripheral.o)
 .text.PLIB_USB_EPnRxEnable
                0x00000000       0x24 ..\..\..\..\..\..\..\..\microchip\harmony\v2_06\bin\framework\peripheral\PIC32MX130F064B_peripherals.a(peripheral.o)
 .text.PLIB_USB_EPnRxDisable
                0x00000000       0x20 ..\..\..\..\..\..\..\..\microchip\harmony\v2_06\bin\framework\peripheral\PIC32MX130F064B_peripherals.a(peripheral.o)
 .text.PLIB_USB_EPnTxEnable
                0x00000000       0x24 ..\..\..\..\..\..\..\..\microchip\harmony\v2_06\bin\framework\peripheral\PIC32MX130F064B_peripherals.a(peripheral.o)
 .text.PLIB_USB_EPnTxDisable
                0x00000000       0x20 ..\..\..\..\..\..\..\..\microchip\harmony\v2_06\bin\framework\peripheral\PIC32MX130F064B_peripherals.a(peripheral.o)
 .text.PLIB_USB_EPnHandshakeEnable
                0x00000000       0x24 ..\..\..\..\..\..\..\..\microchip\harmony\v2_06\bin\framework\peripheral\PIC32MX130F064B_peripherals.a(peripheral.o)
 .text.PLIB_USB_EPnHandshakeDisable
                0x00000000       0x20 ..\..\..\..\..\..\..\..\microchip\harmony\v2_06\bin\framework\peripheral\PIC32MX130F064B_peripherals.a(peripheral.o)
 .text.PLIB_USB_EPnControlTransferEnable
                0x00000000       0x28 ..\..\..\..\..\..\..\..\microchip\harmony\v2_06\bin\framework\peripheral\PIC32MX130F064B_peripherals.a(peripheral.o)
 .text.PLIB_USB_EPnControlTransferDisable
                0x00000000       0x24 ..\..\..\..\..\..\..\..\microchip\harmony\v2_06\bin\framework\peripheral\PIC32MX130F064B_peripherals.a(peripheral.o)
 .text.PLIB_USB_EPnAttributesSet
                0x00000000       0x4c ..\..\..\..\..\..\..\..\microchip\harmony\v2_06\bin\framework\peripheral\PIC32MX130F064B_peripherals.a(peripheral.o)
 .text.PLIB_USB_EPnDirectionDisable
                0x00000000       0x28 ..\..\..\..\..\..\..\..\microchip\harmony\v2_06\bin\framework\peripheral\PIC32MX130F064B_peripherals.a(peripheral.o)
 .text.PLIB_USB_EPnAttributesClear
                0x00000000       0x2c ..\..\..\..\..\..\..\..\microchip\harmony\v2_06\bin\framework\peripheral\PIC32MX130F064B_peripherals.a(peripheral.o)
 .text.PLIB_USB_EPnIsStalled
                0x00000000       0x18 ..\..\..\..\..\..\..\..\microchip\harmony\v2_06\bin\framework\peripheral\PIC32MX130F064B_peripherals.a(peripheral.o)
 .text.PLIB_USB_EPnStallClear
                0x00000000       0x20 ..\..\..\..\..\..\..\..\microchip\harmony\v2_06\bin\framework\peripheral\PIC32MX130F064B_peripherals.a(peripheral.o)
 .text.PLIB_USB_EP0HostSetup
                0x00000000       0x18 ..\..\..\..\..\..\..\..\microchip\harmony\v2_06\bin\framework\peripheral\PIC32MX130F064B_peripherals.a(peripheral.o)
 .text.PLIB_USB_ExistsEPnRxEnable
                0x00000000        0x8 ..\..\..\..\..\..\..\..\microchip\harmony\v2_06\bin\framework\peripheral\PIC32MX130F064B_peripherals.a(peripheral.o)
 .text.PLIB_USB_BufferAddressGet
                0x00000000       0x38 ..\..\..\..\..\..\..\..\microchip\harmony\v2_06\bin\framework\peripheral\PIC32MX130F064B_peripherals.a(peripheral.o)
 .text.PLIB_USB_BufferAddressSet
                0x00000000       0x38 ..\..\..\..\..\..\..\..\microchip\harmony\v2_06\bin\framework\peripheral\PIC32MX130F064B_peripherals.a(peripheral.o)
 .text.PLIB_USB_BufferByteCountGet
                0x00000000       0x3c ..\..\..\..\..\..\..\..\microchip\harmony\v2_06\bin\framework\peripheral\PIC32MX130F064B_peripherals.a(peripheral.o)
 .text.PLIB_USB_BufferByteCountSet
                0x00000000       0x44 ..\..\..\..\..\..\..\..\microchip\harmony\v2_06\bin\framework\peripheral\PIC32MX130F064B_peripherals.a(peripheral.o)
 .text.PLIB_USB_BufferCancelReleaseToUSB
                0x00000000       0x34 ..\..\..\..\..\..\..\..\microchip\harmony\v2_06\bin\framework\peripheral\PIC32MX130F064B_peripherals.a(peripheral.o)
 .text.PLIB_USB_BufferAllCancelReleaseToUSB
                0x00000000       0x2c ..\..\..\..\..\..\..\..\microchip\harmony\v2_06\bin\framework\peripheral\PIC32MX130F064B_peripherals.a(peripheral.o)
 .text.PLIB_USB_BufferClearAll
                0x00000000       0x38 ..\..\..\..\..\..\..\..\microchip\harmony\v2_06\bin\framework\peripheral\PIC32MX130F064B_peripherals.a(peripheral.o)
 .text.PLIB_USB_BufferDataToggleGet
                0x00000000       0x30 ..\..\..\..\..\..\..\..\microchip\harmony\v2_06\bin\framework\peripheral\PIC32MX130F064B_peripherals.a(peripheral.o)
 .text.PLIB_USB_BufferDataToggleSelect
                0x00000000       0x38 ..\..\..\..\..\..\..\..\microchip\harmony\v2_06\bin\framework\peripheral\PIC32MX130F064B_peripherals.a(peripheral.o)
 .text.PLIB_USB_BufferDataToggleSyncEnable
                0x00000000       0x38 ..\..\..\..\..\..\..\..\microchip\harmony\v2_06\bin\framework\peripheral\PIC32MX130F064B_peripherals.a(peripheral.o)
 .text.PLIB_USB_BufferDataToggleSyncDisable
                0x00000000       0x34 ..\..\..\..\..\..\..\..\microchip\harmony\v2_06\bin\framework\peripheral\PIC32MX130F064B_peripherals.a(peripheral.o)
 .text.PLIB_USB_BufferIndexGet
                0x00000000       0x1c ..\..\..\..\..\..\..\..\microchip\harmony\v2_06\bin\framework\peripheral\PIC32MX130F064B_peripherals.a(peripheral.o)
 .text.PLIB_USB_BufferPIDBitsClear
                0x00000000       0x34 ..\..\..\..\..\..\..\..\microchip\harmony\v2_06\bin\framework\peripheral\PIC32MX130F064B_peripherals.a(peripheral.o)
 .text.PLIB_USB_BufferPIDGet
                0x00000000       0x30 ..\..\..\..\..\..\..\..\microchip\harmony\v2_06\bin\framework\peripheral\PIC32MX130F064B_peripherals.a(peripheral.o)
 .text.PLIB_USB_BufferReleasedToSW
                0x00000000        0x8 ..\..\..\..\..\..\..\..\microchip\harmony\v2_06\bin\framework\peripheral\PIC32MX130F064B_peripherals.a(peripheral.o)
 .text.PLIB_USB_BufferReleaseToUSB
                0x00000000       0x38 ..\..\..\..\..\..\..\..\microchip\harmony\v2_06\bin\framework\peripheral\PIC32MX130F064B_peripherals.a(peripheral.o)
 .text.PLIB_USB_BufferSchedule
                0x00000000       0x8c ..\..\..\..\..\..\..\..\microchip\harmony\v2_06\bin\framework\peripheral\PIC32MX130F064B_peripherals.a(peripheral.o)
 .text.PLIB_USB_BufferStallDisable
                0x00000000       0x44 ..\..\..\..\..\..\..\..\microchip\harmony\v2_06\bin\framework\peripheral\PIC32MX130F064B_peripherals.a(peripheral.o)
 .text.PLIB_USB_BufferStallEnable
                0x00000000       0x3c ..\..\..\..\..\..\..\..\microchip\harmony\v2_06\bin\framework\peripheral\PIC32MX130F064B_peripherals.a(peripheral.o)
 .text.PLIB_USB_BufferStallGet
                0x00000000       0x30 ..\..\..\..\..\..\..\..\microchip\harmony\v2_06\bin\framework\peripheral\PIC32MX130F064B_peripherals.a(peripheral.o)
 .text.PLIB_USB_BufferEP0RxStatusInitialize
                0x00000000       0x44 ..\..\..\..\..\..\..\..\microchip\harmony\v2_06\bin\framework\peripheral\PIC32MX130F064B_peripherals.a(peripheral.o)
 .text.PLIB_USB_BufferClearAllDTSEnable
                0x00000000       0x58 ..\..\..\..\..\..\..\..\microchip\harmony\v2_06\bin\framework\peripheral\PIC32MX130F064B_peripherals.a(peripheral.o)
 .text.PLIB_USB_ExistsBDTFunctions
                0x00000000        0x8 ..\..\..\..\..\..\..\..\microchip\harmony\v2_06\bin\framework\peripheral\PIC32MX130F064B_peripherals.a(peripheral.o)
 .text.PLIB_USBHS_EndpointFIFOLoad
                0x00000000        0x8 ..\..\..\..\..\..\..\..\microchip\harmony\v2_06\bin\framework\peripheral\PIC32MX130F064B_peripherals.a(peripheral.o)
 .text.PLIB_USBHS_EndpointFIFOUnload
                0x00000000        0x8 ..\..\..\..\..\..\..\..\microchip\harmony\v2_06\bin\framework\peripheral\PIC32MX130F064B_peripherals.a(peripheral.o)
 .text.PLIB_USBHS_Endpoint0FIFOFlush
                0x00000000        0x8 ..\..\..\..\..\..\..\..\microchip\harmony\v2_06\bin\framework\peripheral\PIC32MX130F064B_peripherals.a(peripheral.o)
 .text.PLIB_USBHS_EndpointTxFIFOFlush
                0x00000000        0x8 ..\..\..\..\..\..\..\..\microchip\harmony\v2_06\bin\framework\peripheral\PIC32MX130F064B_peripherals.a(peripheral.o)
 .text.PLIB_USBHS_EndpointRxFIFOFlush
                0x00000000        0x8 ..\..\..\..\..\..\..\..\microchip\harmony\v2_06\bin\framework\peripheral\PIC32MX130F064B_peripherals.a(peripheral.o)
 .text.PLIB_USBHS_Endpoint0SetupPacketLoad
                0x00000000        0x8 ..\..\..\..\..\..\..\..\microchip\harmony\v2_06\bin\framework\peripheral\PIC32MX130F064B_peripherals.a(peripheral.o)
 .text.PLIB_USBHS_Endpoint0SetupPacketUnload
                0x00000000        0x8 ..\..\..\..\..\..\..\..\microchip\harmony\v2_06\bin\framework\peripheral\PIC32MX130F064B_peripherals.a(peripheral.o)
 .text.PLIB_USBHS_DeviceEPFIFOLoad
                0x00000000        0x8 ..\..\..\..\..\..\..\..\microchip\harmony\v2_06\bin\framework\peripheral\PIC32MX130F064B_peripherals.a(peripheral.o)
 .text.PLIB_USBHS_DeviceEPFIFOUnload
                0x00000000        0x8 ..\..\..\..\..\..\..\..\microchip\harmony\v2_06\bin\framework\peripheral\PIC32MX130F064B_peripherals.a(peripheral.o)
 .text.PLIB_USBHS_ExistsEndpointFIFO
                0x00000000        0x8 ..\..\..\..\..\..\..\..\microchip\harmony\v2_06\bin\framework\peripheral\PIC32MX130F064B_peripherals.a(peripheral.o)
 .text.PLIB_USBHS_SoftResetEnable
                0x00000000        0x8 ..\..\..\..\..\..\..\..\microchip\harmony\v2_06\bin\framework\peripheral\PIC32MX130F064B_peripherals.a(peripheral.o)
 .text.PLIB_USBHS_SoftResetNRSTXEnable
                0x00000000        0x8 ..\..\..\..\..\..\..\..\microchip\harmony\v2_06\bin\framework\peripheral\PIC32MX130F064B_peripherals.a(peripheral.o)
 .text.PLIB_USBHS_SoftResetDisable
                0x00000000        0x8 ..\..\..\..\..\..\..\..\microchip\harmony\v2_06\bin\framework\peripheral\PIC32MX130F064B_peripherals.a(peripheral.o)
 .text.PLIB_USBHS_ExistsSoftReset
                0x00000000        0x8 ..\..\..\..\..\..\..\..\microchip\harmony\v2_06\bin\framework\peripheral\PIC32MX130F064B_peripherals.a(peripheral.o)
 .text.PLIB_USBHS_InterruptEnableSet
                0x00000000        0x8 ..\..\..\..\..\..\..\..\microchip\harmony\v2_06\bin\framework\peripheral\PIC32MX130F064B_peripherals.a(peripheral.o)
 .text.PLIB_USBHS_TxInterruptFlagsGet
                0x00000000        0x8 ..\..\..\..\..\..\..\..\microchip\harmony\v2_06\bin\framework\peripheral\PIC32MX130F064B_peripherals.a(peripheral.o)
 .text.PLIB_USBHS_RxInterruptFlagsGet
                0x00000000        0x8 ..\..\..\..\..\..\..\..\microchip\harmony\v2_06\bin\framework\peripheral\PIC32MX130F064B_peripherals.a(peripheral.o)
 .text.PLIB_USBHS_GenInterruptFlagsGet
                0x00000000        0x8 ..\..\..\..\..\..\..\..\microchip\harmony\v2_06\bin\framework\peripheral\PIC32MX130F064B_peripherals.a(peripheral.o)
 .text.PLIB_USBHS_TxInterruptEnable
                0x00000000        0x8 ..\..\..\..\..\..\..\..\microchip\harmony\v2_06\bin\framework\peripheral\PIC32MX130F064B_peripherals.a(peripheral.o)
 .text.PLIB_USBHS_RxInterruptEnable
                0x00000000        0x8 ..\..\..\..\..\..\..\..\microchip\harmony\v2_06\bin\framework\peripheral\PIC32MX130F064B_peripherals.a(peripheral.o)
 .text.PLIB_USBHS_TxInterruptDisable
                0x00000000        0x8 ..\..\..\..\..\..\..\..\microchip\harmony\v2_06\bin\framework\peripheral\PIC32MX130F064B_peripherals.a(peripheral.o)
 .text.PLIB_USBHS_RxInterruptDisable
                0x00000000        0x8 ..\..\..\..\..\..\..\..\microchip\harmony\v2_06\bin\framework\peripheral\PIC32MX130F064B_peripherals.a(peripheral.o)
 .text.PLIB_USBHS_ExistsInterrupts
                0x00000000        0x8 ..\..\..\..\..\..\..\..\microchip\harmony\v2_06\bin\framework\peripheral\PIC32MX130F064B_peripherals.a(peripheral.o)
 .text.PLIB_USBHS_HighSpeedEnable
                0x00000000        0x8 ..\..\..\..\..\..\..\..\microchip\harmony\v2_06\bin\framework\peripheral\PIC32MX130F064B_peripherals.a(peripheral.o)
 .text.PLIB_USBHS_HighSpeedDisable
                0x00000000        0x8 ..\..\..\..\..\..\..\..\microchip\harmony\v2_06\bin\framework\peripheral\PIC32MX130F064B_peripherals.a(peripheral.o)
 .text.PLIB_USBHS_HighSpeedIsConnected
                0x00000000        0x8 ..\..\..\..\..\..\..\..\microchip\harmony\v2_06\bin\framework\peripheral\PIC32MX130F064B_peripherals.a(peripheral.o)
 .text.PLIB_USBHS_FullOrHighSpeedIsConnected
                0x00000000        0x8 ..\..\..\..\..\..\..\..\microchip\harmony\v2_06\bin\framework\peripheral\PIC32MX130F064B_peripherals.a(peripheral.o)
 .text.PLIB_USBHS_ExistsHighSpeedSupport
                0x00000000        0x8 ..\..\..\..\..\..\..\..\microchip\harmony\v2_06\bin\framework\peripheral\PIC32MX130F064B_peripherals.a(peripheral.o)
 .text.PLIB_USBHS_DMAErrorGet
                0x00000000        0x8 ..\..\..\..\..\..\..\..\microchip\harmony\v2_06\bin\framework\peripheral\PIC32MX130F064B_peripherals.a(peripheral.o)
 .text.PLIB_USBHS_DMAInterruptGet
                0x00000000        0x8 ..\..\..\..\..\..\..\..\microchip\harmony\v2_06\bin\framework\peripheral\PIC32MX130F064B_peripherals.a(peripheral.o)
 .text.PLIB_USBHS_DMAOperationEnable
                0x00000000        0x8 ..\..\..\..\..\..\..\..\microchip\harmony\v2_06\bin\framework\peripheral\PIC32MX130F064B_peripherals.a(peripheral.o)
 .text.PLIB_USBHS_LoadEPInIndex
                0x00000000        0x8 ..\..\..\..\..\..\..\..\microchip\harmony\v2_06\bin\framework\peripheral\PIC32MX130F064B_peripherals.a(peripheral.o)
 .text.PLIB_USBHS_GetEP0FIFOAddress
                0x00000000        0x8 ..\..\..\..\..\..\..\..\microchip\harmony\v2_06\bin\framework\peripheral\PIC32MX130F064B_peripherals.a(peripheral.o)
 .text.PLIB_USBHS_GetEP0CSRAddress
                0x00000000        0x8 ..\..\..\..\..\..\..\..\microchip\harmony\v2_06\bin\framework\peripheral\PIC32MX130F064B_peripherals.a(peripheral.o)
 .text.PLIB_USBHS_GetReceiveDataCount
                0x00000000        0x8 ..\..\..\..\..\..\..\..\microchip\harmony\v2_06\bin\framework\peripheral\PIC32MX130F064B_peripherals.a(peripheral.o)
 .text.PLIB_USBHS_TestModeEnter
                0x00000000        0x8 ..\..\..\..\..\..\..\..\microchip\harmony\v2_06\bin\framework\peripheral\PIC32MX130F064B_peripherals.a(peripheral.o)
 .text.PLIB_USBHS_TestModeExit
                0x00000000        0x8 ..\..\..\..\..\..\..\..\microchip\harmony\v2_06\bin\framework\peripheral\PIC32MX130F064B_peripherals.a(peripheral.o)
 .text.PLIB_USBHS_ExistsClockResetControl
                0x00000000        0x8 ..\..\..\..\..\..\..\..\microchip\harmony\v2_06\bin\framework\peripheral\PIC32MX130F064B_peripherals.a(peripheral.o)
 .text.PLIB_USBHS_GlobalInterruptEnable
                0x00000000        0x8 ..\..\..\..\..\..\..\..\microchip\harmony\v2_06\bin\framework\peripheral\PIC32MX130F064B_peripherals.a(peripheral.o)
 .text.PLIB_USBHS_GlobalInterruptDisable
                0x00000000        0x8 ..\..\..\..\..\..\..\..\microchip\harmony\v2_06\bin\framework\peripheral\PIC32MX130F064B_peripherals.a(peripheral.o)
 .text.PLIB_USBHS_ExistsUSBIDControl
                0x00000000        0x8 ..\..\..\..\..\..\..\..\microchip\harmony\v2_06\bin\framework\peripheral\PIC32MX130F064B_peripherals.a(peripheral.o)
 .text.PLIB_USBHS_USBIDOverrideEnable
                0x00000000        0x8 ..\..\..\..\..\..\..\..\microchip\harmony\v2_06\bin\framework\peripheral\PIC32MX130F064B_peripherals.a(peripheral.o)
 .text.PLIB_USBHS_USBIDOverrideDisable
                0x00000000        0x8 ..\..\..\..\..\..\..\..\microchip\harmony\v2_06\bin\framework\peripheral\PIC32MX130F064B_peripherals.a(peripheral.o)
 .text.PLIB_USBHS_USBIDOverrideValueSet
                0x00000000        0x8 ..\..\..\..\..\..\..\..\microchip\harmony\v2_06\bin\framework\peripheral\PIC32MX130F064B_peripherals.a(peripheral.o)
 .text.PLIB_USBHS_PhyIDMonitoringEnable
                0x00000000        0x8 ..\..\..\..\..\..\..\..\microchip\harmony\v2_06\bin\framework\peripheral\PIC32MX130F064B_peripherals.a(peripheral.o)
 .text.PLIB_USBHS_PhyIDMonitoringDisable
                0x00000000        0x8 ..\..\..\..\..\..\..\..\microchip\harmony\v2_06\bin\framework\peripheral\PIC32MX130F064B_peripherals.a(peripheral.o)
 .text.PLIB_USBHS_ResumeEnable
                0x00000000        0x8 ..\..\..\..\..\..\..\..\microchip\harmony\v2_06\bin\framework\peripheral\PIC32MX130F064B_peripherals.a(peripheral.o)
 .text.PLIB_USBHS_ResumeDisable
                0x00000000        0x8 ..\..\..\..\..\..\..\..\microchip\harmony\v2_06\bin\framework\peripheral\PIC32MX130F064B_peripherals.a(peripheral.o)
 .text.PLIB_USBHS_SuspendEnable
                0x00000000        0x8 ..\..\..\..\..\..\..\..\microchip\harmony\v2_06\bin\framework\peripheral\PIC32MX130F064B_peripherals.a(peripheral.o)
 .text.PLIB_USBHS_SuspendDisable
                0x00000000        0x8 ..\..\..\..\..\..\..\..\microchip\harmony\v2_06\bin\framework\peripheral\PIC32MX130F064B_peripherals.a(peripheral.o)
 .text.PLIB_USBHS_ResetEnable
                0x00000000        0x8 ..\..\..\..\..\..\..\..\microchip\harmony\v2_06\bin\framework\peripheral\PIC32MX130F064B_peripherals.a(peripheral.o)
 .text.PLIB_USBHS_ResetDisable
                0x00000000        0x8 ..\..\..\..\..\..\..\..\microchip\harmony\v2_06\bin\framework\peripheral\PIC32MX130F064B_peripherals.a(peripheral.o)
 .text.PLIB_USBHS_VBUSLevelGet
                0x00000000        0x8 ..\..\..\..\..\..\..\..\microchip\harmony\v2_06\bin\framework\peripheral\PIC32MX130F064B_peripherals.a(peripheral.o)
 .text.PLIB_USBHS_HostModeIsEnabled
                0x00000000        0x8 ..\..\..\..\..\..\..\..\microchip\harmony\v2_06\bin\framework\peripheral\PIC32MX130F064B_peripherals.a(peripheral.o)
 .text.PLIB_USBHS_IsBDevice
                0x00000000        0x8 ..\..\..\..\..\..\..\..\microchip\harmony\v2_06\bin\framework\peripheral\PIC32MX130F064B_peripherals.a(peripheral.o)
 .text.PLIB_USBHS_SessionEnable
                0x00000000        0x8 ..\..\..\..\..\..\..\..\microchip\harmony\v2_06\bin\framework\peripheral\PIC32MX130F064B_peripherals.a(peripheral.o)
 .text.PLIB_USBHS_SessionDisable
                0x00000000        0x8 ..\..\..\..\..\..\..\..\microchip\harmony\v2_06\bin\framework\peripheral\PIC32MX130F064B_peripherals.a(peripheral.o)
 .text.PLIB_USBHS_DeviceAddressSet
                0x00000000        0x8 ..\..\..\..\..\..\..\..\microchip\harmony\v2_06\bin\framework\peripheral\PIC32MX130F064B_peripherals.a(peripheral.o)
 .text.PLIB_USBHS_DeviceAttach
                0x00000000        0x8 ..\..\..\..\..\..\..\..\microchip\harmony\v2_06\bin\framework\peripheral\PIC32MX130F064B_peripherals.a(peripheral.o)
 .text.PLIB_USBHS_DeviceDetach
                0x00000000        0x8 ..\..\..\..\..\..\..\..\microchip\harmony\v2_06\bin\framework\peripheral\PIC32MX130F064B_peripherals.a(peripheral.o)
 .text.PLIB_USBHS_ExistsModuleControl
                0x00000000        0x8 ..\..\..\..\..\..\..\..\microchip\harmony\v2_06\bin\framework\peripheral\PIC32MX130F064B_peripherals.a(peripheral.o)
 .text.PLIB_USBHS_EP0StatusGet
                0x00000000        0x8 ..\..\..\..\..\..\..\..\microchip\harmony\v2_06\bin\framework\peripheral\PIC32MX130F064B_peripherals.a(peripheral.o)
 .text.PLIB_USBHS_EP0StatusClear
                0x00000000        0x8 ..\..\..\..\..\..\..\..\microchip\harmony\v2_06\bin\framework\peripheral\PIC32MX130F064B_peripherals.a(peripheral.o)
 .text.PLIB_USBHS_EP0SentStallClear
                0x00000000        0x8 ..\..\..\..\..\..\..\..\microchip\harmony\v2_06\bin\framework\peripheral\PIC32MX130F064B_peripherals.a(peripheral.o)
 .text.PLIB_USBHS_EP0INHandshakeSend
                0x00000000        0x8 ..\..\..\..\..\..\..\..\microchip\harmony\v2_06\bin\framework\peripheral\PIC32MX130F064B_peripherals.a(peripheral.o)
 .text.PLIB_USBHS_EP0INTokenSend
                0x00000000        0x8 ..\..\..\..\..\..\..\..\microchip\harmony\v2_06\bin\framework\peripheral\PIC32MX130F064B_peripherals.a(peripheral.o)
 .text.PLIB_USBHS_EP0OUTHandshakeSend
                0x00000000        0x8 ..\..\..\..\..\..\..\..\microchip\harmony\v2_06\bin\framework\peripheral\PIC32MX130F064B_peripherals.a(peripheral.o)
 .text.PLIB_USBHS_EP0INHandshakeClear
                0x00000000        0x8 ..\..\..\..\..\..\..\..\microchip\harmony\v2_06\bin\framework\peripheral\PIC32MX130F064B_peripherals.a(peripheral.o)
 .text.PLIB_USBHS_EP0StallEnable
                0x00000000        0x8 ..\..\..\..\..\..\..\..\microchip\harmony\v2_06\bin\framework\peripheral\PIC32MX130F064B_peripherals.a(peripheral.o)
 .text.PLIB_USBHS_EP0StallDisable
                0x00000000        0x8 ..\..\..\..\..\..\..\..\microchip\harmony\v2_06\bin\framework\peripheral\PIC32MX130F064B_peripherals.a(peripheral.o)
 .text.PLIB_USBHS_EP0SetupEndServiced
                0x00000000        0x8 ..\..\..\..\..\..\..\..\microchip\harmony\v2_06\bin\framework\peripheral\PIC32MX130F064B_peripherals.a(peripheral.o)
 .text.PLIB_USBHS_EP0RxPktRdyServiced
                0x00000000        0x8 ..\..\..\..\..\..\..\..\microchip\harmony\v2_06\bin\framework\peripheral\PIC32MX130F064B_peripherals.a(peripheral.o)
 .text.PLIB_USBHS_EP0RxPktRdyServicedDataEnd
                0x00000000        0x8 ..\..\..\..\..\..\..\..\microchip\harmony\v2_06\bin\framework\peripheral\PIC32MX130F064B_peripherals.a(peripheral.o)
 .text.PLIB_USBHS_EP0TxPktRdyDataEnd
                0x00000000        0x8 ..\..\..\..\..\..\..\..\microchip\harmony\v2_06\bin\framework\peripheral\PIC32MX130F064B_peripherals.a(peripheral.o)
 .text.PLIB_USBHS_EP0TxPktRdy
                0x00000000        0x8 ..\..\..\..\..\..\..\..\microchip\harmony\v2_06\bin\framework\peripheral\PIC32MX130F064B_peripherals.a(peripheral.o)
 .text.PLIB_USBHS_EP0DataEndSet
                0x00000000        0x8 ..\..\..\..\..\..\..\..\microchip\harmony\v2_06\bin\framework\peripheral\PIC32MX130F064B_peripherals.a(peripheral.o)
 .text.PLIB_USBHS_ExistsEP0Status
                0x00000000        0x8 ..\..\..\..\..\..\..\..\microchip\harmony\v2_06\bin\framework\peripheral\PIC32MX130F064B_peripherals.a(peripheral.o)
 .text.PLIB_USBHS_TxEPStatusGet
                0x00000000        0x8 ..\..\..\..\..\..\..\..\microchip\harmony\v2_06\bin\framework\peripheral\PIC32MX130F064B_peripherals.a(peripheral.o)
 .text.PLIB_USBHS_TxEPStatusClear
                0x00000000        0x8 ..\..\..\..\..\..\..\..\microchip\harmony\v2_06\bin\framework\peripheral\PIC32MX130F064B_peripherals.a(peripheral.o)
 .text.PLIB_USBHS_ExistsTxEPStatus
                0x00000000        0x8 ..\..\..\..\..\..\..\..\microchip\harmony\v2_06\bin\framework\peripheral\PIC32MX130F064B_peripherals.a(peripheral.o)
 .text.PLIB_USBHS_RxEPStatusGet
                0x00000000        0x8 ..\..\..\..\..\..\..\..\microchip\harmony\v2_06\bin\framework\peripheral\PIC32MX130F064B_peripherals.a(peripheral.o)
 .text.PLIB_USBHS_RxEPStatusClear
                0x00000000        0x8 ..\..\..\..\..\..\..\..\microchip\harmony\v2_06\bin\framework\peripheral\PIC32MX130F064B_peripherals.a(peripheral.o)
 .text.PLIB_USBHS_RxEPINTokenSend
                0x00000000        0x8 ..\..\..\..\..\..\..\..\microchip\harmony\v2_06\bin\framework\peripheral\PIC32MX130F064B_peripherals.a(peripheral.o)
 .text.PLIB_USBHS_ExistsRxEPStatus
                0x00000000        0x8 ..\..\..\..\..\..\..\..\microchip\harmony\v2_06\bin\framework\peripheral\PIC32MX130F064B_peripherals.a(peripheral.o)
 .text.PLIB_USBHS_EndpointRxRequestEnable
                0x00000000        0x8 ..\..\..\..\..\..\..\..\microchip\harmony\v2_06\bin\framework\peripheral\PIC32MX130F064B_peripherals.a(peripheral.o)
 .text.PLIB_USBHS_EndpointRxRequestClear
                0x00000000        0x8 ..\..\..\..\..\..\..\..\microchip\harmony\v2_06\bin\framework\peripheral\PIC32MX130F064B_peripherals.a(peripheral.o)
 .text.PLIB_USBHS_HostRxEndpointConfigure
                0x00000000        0x8 ..\..\..\..\..\..\..\..\microchip\harmony\v2_06\bin\framework\peripheral\PIC32MX130F064B_peripherals.a(peripheral.o)
 .text.PLIB_USBHS_HostTxEndpointConfigure
                0x00000000        0x8 ..\..\..\..\..\..\..\..\microchip\harmony\v2_06\bin\framework\peripheral\PIC32MX130F064B_peripherals.a(peripheral.o)
 .text.PLIB_USBHS_HostTxEndpointDataToggleClear
                0x00000000        0x8 ..\..\..\..\..\..\..\..\microchip\harmony\v2_06\bin\framework\peripheral\PIC32MX130F064B_peripherals.a(peripheral.o)
 .text.PLIB_USBHS_HostRxEndpointDataToggleClear
                0x00000000        0x8 ..\..\..\..\..\..\..\..\microchip\harmony\v2_06\bin\framework\peripheral\PIC32MX130F064B_peripherals.a(peripheral.o)
 .text.PLIB_USBHS_DeviceRxEndpointConfigure
                0x00000000        0x8 ..\..\..\..\..\..\..\..\microchip\harmony\v2_06\bin\framework\peripheral\PIC32MX130F064B_peripherals.a(peripheral.o)
 .text.PLIB_USBHS_DeviceTxEndpointConfigure
                0x00000000        0x8 ..\..\..\..\..\..\..\..\microchip\harmony\v2_06\bin\framework\peripheral\PIC32MX130F064B_peripherals.a(peripheral.o)
 .text.PLIB_USBHS_DeviceRxEndpointStallEnable
                0x00000000        0x8 ..\..\..\..\..\..\..\..\microchip\harmony\v2_06\bin\framework\peripheral\PIC32MX130F064B_peripherals.a(peripheral.o)
 .text.PLIB_USBHS_DeviceTxEndpointStallEnable
                0x00000000        0x8 ..\..\..\..\..\..\..\..\microchip\harmony\v2_06\bin\framework\peripheral\PIC32MX130F064B_peripherals.a(peripheral.o)
 .text.PLIB_USBHS_DeviceRxEndpointStallDisable
                0x00000000        0x8 ..\..\..\..\..\..\..\..\microchip\harmony\v2_06\bin\framework\peripheral\PIC32MX130F064B_peripherals.a(peripheral.o)
 .text.PLIB_USBHS_DeviceTxEndpointStallDisable
                0x00000000        0x8 ..\..\..\..\..\..\..\..\microchip\harmony\v2_06\bin\framework\peripheral\PIC32MX130F064B_peripherals.a(peripheral.o)
 .text.PLIB_USBHS_DeviceTxEndpointPacketReady
                0x00000000        0x8 ..\..\..\..\..\..\..\..\microchip\harmony\v2_06\bin\framework\peripheral\PIC32MX130F064B_peripherals.a(peripheral.o)
 .text.PLIB_USBHS_ExistsEndpointOperations
                0x00000000        0x8 ..\..\..\..\..\..\..\..\microchip\harmony\v2_06\bin\framework\peripheral\PIC32MX130F064B_peripherals.a(peripheral.o)
 .text.PLIB_WDT_ExistsEnableControl
                0x00000000        0x8 ..\..\..\..\..\..\..\..\microchip\harmony\v2_06\bin\framework\peripheral\PIC32MX130F064B_peripherals.a(peripheral.o)
 .text.PLIB_WDT_Enable
                0x00000000       0x14 ..\..\..\..\..\..\..\..\microchip\harmony\v2_06\bin\framework\peripheral\PIC32MX130F064B_peripherals.a(peripheral.o)
 .text.PLIB_WDT_Disable
                0x00000000       0x14 ..\..\..\..\..\..\..\..\microchip\harmony\v2_06\bin\framework\peripheral\PIC32MX130F064B_peripherals.a(peripheral.o)
 .text.PLIB_WDT_IsEnabled
                0x00000000       0x10 ..\..\..\..\..\..\..\..\microchip\harmony\v2_06\bin\framework\peripheral\PIC32MX130F064B_peripherals.a(peripheral.o)
 .text.PLIB_WDT_ExistsWindowEnable
                0x00000000        0x8 ..\..\..\..\..\..\..\..\microchip\harmony\v2_06\bin\framework\peripheral\PIC32MX130F064B_peripherals.a(peripheral.o)
 .text.PLIB_WDT_WindowEnable
                0x00000000       0x14 ..\..\..\..\..\..\..\..\microchip\harmony\v2_06\bin\framework\peripheral\PIC32MX130F064B_peripherals.a(peripheral.o)
 .text.PLIB_WDT_WindowDisable
                0x00000000       0x14 ..\..\..\..\..\..\..\..\microchip\harmony\v2_06\bin\framework\peripheral\PIC32MX130F064B_peripherals.a(peripheral.o)
 .text.PLIB_WDT_ExistsTimerClear
                0x00000000        0x8 ..\..\..\..\..\..\..\..\microchip\harmony\v2_06\bin\framework\peripheral\PIC32MX130F064B_peripherals.a(peripheral.o)
 .text.PLIB_WDT_TimerClear
                0x00000000       0x14 ..\..\..\..\..\..\..\..\microchip\harmony\v2_06\bin\framework\peripheral\PIC32MX130F064B_peripherals.a(peripheral.o)
 .text.PLIB_WDT_ExistsPostscalerValue
                0x00000000        0x8 ..\..\..\..\..\..\..\..\microchip\harmony\v2_06\bin\framework\peripheral\PIC32MX130F064B_peripherals.a(peripheral.o)
 .text.PLIB_WDT_PostscalerValueGet
                0x00000000       0x10 ..\..\..\..\..\..\..\..\microchip\harmony\v2_06\bin\framework\peripheral\PIC32MX130F064B_peripherals.a(peripheral.o)
 .text.PLIB_WDT_ExistsSleepModePostscalerValue
                0x00000000        0x8 ..\..\..\..\..\..\..\..\microchip\harmony\v2_06\bin\framework\peripheral\PIC32MX130F064B_peripherals.a(peripheral.o)
 .text.PLIB_WDT_SleepModePostscalerValueGet
                0x00000000        0x8 ..\..\..\..\..\..\..\..\microchip\harmony\v2_06\bin\framework\peripheral\PIC32MX130F064B_peripherals.a(peripheral.o)
 .text.PLIB_CTMU_EdgeSensitivitySet
                0x00000000       0x28 ..\..\..\..\..\..\..\..\microchip\harmony\v2_06\bin\framework\peripheral\PIC32MX130F064B_peripherals.a(peripheral.o)
 .text.PLIB_CTMU_ExistsEdgeSensitivity
                0x00000000        0x8 ..\..\..\..\..\..\..\..\microchip\harmony\v2_06\bin\framework\peripheral\PIC32MX130F064B_peripherals.a(peripheral.o)
 .text.PLIB_CTMU_EdgePolaritySet
                0x00000000       0x28 ..\..\..\..\..\..\..\..\microchip\harmony\v2_06\bin\framework\peripheral\PIC32MX130F064B_peripherals.a(peripheral.o)
 .text.PLIB_CTMU_ExistsEdgePolarity
                0x00000000        0x8 ..\..\..\..\..\..\..\..\microchip\harmony\v2_06\bin\framework\peripheral\PIC32MX130F064B_peripherals.a(peripheral.o)
 .text.PLIB_CTMU_EdgeTriggerSourceSelect
                0x00000000       0x28 ..\..\..\..\..\..\..\..\microchip\harmony\v2_06\bin\framework\peripheral\PIC32MX130F064B_peripherals.a(peripheral.o)
 .text.PLIB_CTMU_ExistsEdgeTriggerSource
                0x00000000        0x8 ..\..\..\..\..\..\..\..\microchip\harmony\v2_06\bin\framework\peripheral\PIC32MX130F064B_peripherals.a(peripheral.o)
 .text.PLIB_CTMU_EdgeIsSet
                0x00000000       0x1c ..\..\..\..\..\..\..\..\microchip\harmony\v2_06\bin\framework\peripheral\PIC32MX130F064B_peripherals.a(peripheral.o)
 .text.PLIB_CTMU_EdgeSet
                0x00000000       0x24 ..\..\..\..\..\..\..\..\microchip\harmony\v2_06\bin\framework\peripheral\PIC32MX130F064B_peripherals.a(peripheral.o)
 .text.PLIB_CTMU_ExistsEdgeStatus
                0x00000000        0x8 ..\..\..\..\..\..\..\..\microchip\harmony\v2_06\bin\framework\peripheral\PIC32MX130F064B_peripherals.a(peripheral.o)
 .text.PLIB_CTMU_Disable
                0x00000000       0x10 ..\..\..\..\..\..\..\..\microchip\harmony\v2_06\bin\framework\peripheral\PIC32MX130F064B_peripherals.a(peripheral.o)
 .text.PLIB_CTMU_Enable
                0x00000000       0x10 ..\..\..\..\..\..\..\..\microchip\harmony\v2_06\bin\framework\peripheral\PIC32MX130F064B_peripherals.a(peripheral.o)
 .text.PLIB_CTMU_ExistsModuleEnable
                0x00000000        0x8 ..\..\..\..\..\..\..\..\microchip\harmony\v2_06\bin\framework\peripheral\PIC32MX130F064B_peripherals.a(peripheral.o)
 .text.PLIB_CTMU_StopInIdleDisable
                0x00000000       0x10 ..\..\..\..\..\..\..\..\microchip\harmony\v2_06\bin\framework\peripheral\PIC32MX130F064B_peripherals.a(peripheral.o)
 .text.PLIB_CTMU_StopInIdleEnable
                0x00000000       0x10 ..\..\..\..\..\..\..\..\microchip\harmony\v2_06\bin\framework\peripheral\PIC32MX130F064B_peripherals.a(peripheral.o)
 .text.PLIB_CTMU_ExistsStopInIdle
                0x00000000        0x8 ..\..\..\..\..\..\..\..\microchip\harmony\v2_06\bin\framework\peripheral\PIC32MX130F064B_peripherals.a(peripheral.o)
 .text.PLIB_CTMU_TimePulseGenerationDisable
                0x00000000       0x10 ..\..\..\..\..\..\..\..\microchip\harmony\v2_06\bin\framework\peripheral\PIC32MX130F064B_peripherals.a(peripheral.o)
 .text.PLIB_CTMU_TimePulseGenerationEnable
                0x00000000       0x10 ..\..\..\..\..\..\..\..\microchip\harmony\v2_06\bin\framework\peripheral\PIC32MX130F064B_peripherals.a(peripheral.o)
 .text.PLIB_CTMU_ExistsTimePulseGeneration
                0x00000000        0x8 ..\..\..\..\..\..\..\..\microchip\harmony\v2_06\bin\framework\peripheral\PIC32MX130F064B_peripherals.a(peripheral.o)
 .text.PLIB_CTMU_EdgeDisable
                0x00000000       0x10 ..\..\..\..\..\..\..\..\microchip\harmony\v2_06\bin\framework\peripheral\PIC32MX130F064B_peripherals.a(peripheral.o)
 .text.PLIB_CTMU_EdgeEnable
                0x00000000       0x10 ..\..\..\..\..\..\..\..\microchip\harmony\v2_06\bin\framework\peripheral\PIC32MX130F064B_peripherals.a(peripheral.o)
 .text.PLIB_CTMU_ExistsEdgeEnable
                0x00000000        0x8 ..\..\..\..\..\..\..\..\microchip\harmony\v2_06\bin\framework\peripheral\PIC32MX130F064B_peripherals.a(peripheral.o)
 .text.PLIB_CTMU_EdgeSequenceDisable
                0x00000000       0x10 ..\..\..\..\..\..\..\..\microchip\harmony\v2_06\bin\framework\peripheral\PIC32MX130F064B_peripherals.a(peripheral.o)
 .text.PLIB_CTMU_EdgeSequenceEnable
                0x00000000       0x10 ..\..\..\..\..\..\..\..\microchip\harmony\v2_06\bin\framework\peripheral\PIC32MX130F064B_peripherals.a(peripheral.o)
 .text.PLIB_CTMU_ExistsEdgeSequencing
                0x00000000        0x8 ..\..\..\..\..\..\..\..\microchip\harmony\v2_06\bin\framework\peripheral\PIC32MX130F064B_peripherals.a(peripheral.o)
 .text.PLIB_CTMU_CurrentDischargeEnable
                0x00000000       0x10 ..\..\..\..\..\..\..\..\microchip\harmony\v2_06\bin\framework\peripheral\PIC32MX130F064B_peripherals.a(peripheral.o)
 .text.PLIB_CTMU_CurrentDischargeDisable
                0x00000000       0x10 ..\..\..\..\..\..\..\..\microchip\harmony\v2_06\bin\framework\peripheral\PIC32MX130F064B_peripherals.a(peripheral.o)
 .text.PLIB_CTMU_ExistsCurrentDischarge
                0x00000000        0x8 ..\..\..\..\..\..\..\..\microchip\harmony\v2_06\bin\framework\peripheral\PIC32MX130F064B_peripherals.a(peripheral.o)
 .text.PLIB_CTMU_AutomaticADCTriggerDisable
                0x00000000       0x10 ..\..\..\..\..\..\..\..\microchip\harmony\v2_06\bin\framework\peripheral\PIC32MX130F064B_peripherals.a(peripheral.o)
 .text.PLIB_CTMU_AutomaticADCTriggerEnable
                0x00000000       0x10 ..\..\..\..\..\..\..\..\microchip\harmony\v2_06\bin\framework\peripheral\PIC32MX130F064B_peripherals.a(peripheral.o)
 .text.PLIB_CTMU_ExistsAutomaticADCTrigger
                0x00000000        0x8 ..\..\..\..\..\..\..\..\microchip\harmony\v2_06\bin\framework\peripheral\PIC32MX130F064B_peripherals.a(peripheral.o)
 .text.PLIB_CTMU_CurrentTrimSet
                0x00000000       0x14 ..\..\..\..\..\..\..\..\microchip\harmony\v2_06\bin\framework\peripheral\PIC32MX130F064B_peripherals.a(peripheral.o)
 .text.PLIB_CTMU_ExistsCurrentTrim
                0x00000000        0x8 ..\..\..\..\..\..\..\..\microchip\harmony\v2_06\bin\framework\peripheral\PIC32MX130F064B_peripherals.a(peripheral.o)
 .text.PLIB_CTMU_CurrentRangeSet
                0x00000000       0x14 ..\..\..\..\..\..\..\..\microchip\harmony\v2_06\bin\framework\peripheral\PIC32MX130F064B_peripherals.a(peripheral.o)
 .text.PLIB_CTMU_ExistsCurrentRange
                0x00000000        0x8 ..\..\..\..\..\..\..\..\microchip\harmony\v2_06\bin\framework\peripheral\PIC32MX130F064B_peripherals.a(peripheral.o)
 .text.PLIB_GLCD_ExistsRGBSequentialMode
                0x00000000        0x8 ..\..\..\..\..\..\..\..\microchip\harmony\v2_06\bin\framework\peripheral\PIC32MX130F064B_peripherals.a(peripheral.o)
 .text.PLIB_GLCD_RGBSequentialModeSet
                0x00000000        0x8 ..\..\..\..\..\..\..\..\microchip\harmony\v2_06\bin\framework\peripheral\PIC32MX130F064B_peripherals.a(peripheral.o)
 .text.PLIB_GLCD_RGBSequentialModeGet
                0x00000000        0x8 ..\..\..\..\..\..\..\..\microchip\harmony\v2_06\bin\framework\peripheral\PIC32MX130F064B_peripherals.a(peripheral.o)
 .text.PLIB_GLCD_ExistsFormattingClockDivide
                0x00000000        0x8 ..\..\..\..\..\..\..\..\microchip\harmony\v2_06\bin\framework\peripheral\PIC32MX130F064B_peripherals.a(peripheral.o)
 .text.PLIB_GLCD_FormattingClockDivideEnable
                0x00000000        0x8 ..\..\..\..\..\..\..\..\microchip\harmony\v2_06\bin\framework\peripheral\PIC32MX130F064B_peripherals.a(peripheral.o)
 .text.PLIB_GLCD_FormattingClockDivideDisable
                0x00000000        0x8 ..\..\..\..\..\..\..\..\microchip\harmony\v2_06\bin\framework\peripheral\PIC32MX130F064B_peripherals.a(peripheral.o)
 .text.PLIB_GLCD_FormattingClockDivideIsEnabled
                0x00000000        0x8 ..\..\..\..\..\..\..\..\microchip\harmony\v2_06\bin\framework\peripheral\PIC32MX130F064B_peripherals.a(peripheral.o)
 .text.PLIB_GLCD_ExistsYUVOutput
                0x00000000        0x8 ..\..\..\..\..\..\..\..\microchip\harmony\v2_06\bin\framework\peripheral\PIC32MX130F064B_peripherals.a(peripheral.o)
 .text.PLIB_GLCD_YUVOutputEnable
                0x00000000        0x8 ..\..\..\..\..\..\..\..\microchip\harmony\v2_06\bin\framework\peripheral\PIC32MX130F064B_peripherals.a(peripheral.o)
 .text.PLIB_GLCD_YUVOutputDisable
                0x00000000        0x8 ..\..\..\..\..\..\..\..\microchip\harmony\v2_06\bin\framework\peripheral\PIC32MX130F064B_peripherals.a(peripheral.o)
 .text.PLIB_GLCD_YUVOutputIsEnabled
                0x00000000        0x8 ..\..\..\..\..\..\..\..\microchip\harmony\v2_06\bin\framework\peripheral\PIC32MX130F064B_peripherals.a(peripheral.o)
 .text.PLIB_GLCD_ExistsForceOutputBlank
                0x00000000        0x8 ..\..\..\..\..\..\..\..\microchip\harmony\v2_06\bin\framework\peripheral\PIC32MX130F064B_peripherals.a(peripheral.o)
 .text.PLIB_GLCD_ForceOutputBlankEnable
                0x00000000        0x8 ..\..\..\..\..\..\..\..\microchip\harmony\v2_06\bin\framework\peripheral\PIC32MX130F064B_peripherals.a(peripheral.o)
 .text.PLIB_GLCD_ForceOutputBlankDisable
                0x00000000        0x8 ..\..\..\..\..\..\..\..\microchip\harmony\v2_06\bin\framework\peripheral\PIC32MX130F064B_peripherals.a(peripheral.o)
 .text.PLIB_GLCD_ForceOutputBlankIsEnabled
                0x00000000        0x8 ..\..\..\..\..\..\..\..\microchip\harmony\v2_06\bin\framework\peripheral\PIC32MX130F064B_peripherals.a(peripheral.o)
 .text.PLIB_GLCD_ExistsPaletteGammaRamp
                0x00000000        0x8 ..\..\..\..\..\..\..\..\microchip\harmony\v2_06\bin\framework\peripheral\PIC32MX130F064B_peripherals.a(peripheral.o)
 .text.PLIB_GLCD_PaletteGammaRampEnable
                0x00000000        0x8 ..\..\..\..\..\..\..\..\microchip\harmony\v2_06\bin\framework\peripheral\PIC32MX130F064B_peripherals.a(peripheral.o)
 .text.PLIB_GLCD_PaletteGammaRampDisable
                0x00000000        0x8 ..\..\..\..\..\..\..\..\microchip\harmony\v2_06\bin\framework\peripheral\PIC32MX130F064B_peripherals.a(peripheral.o)
 .text.PLIB_GLCD_PaletteGammaRampIsEnabled
                0x00000000        0x8 ..\..\..\..\..\..\..\..\microchip\harmony\v2_06\bin\framework\peripheral\PIC32MX130F064B_peripherals.a(peripheral.o)
 .text.PLIB_GLCD_ExistsSignalPolarity
                0x00000000        0x8 ..\..\..\..\..\..\..\..\microchip\harmony\v2_06\bin\framework\peripheral\PIC32MX130F064B_peripherals.a(peripheral.o)
 .text.PLIB_GLCD_SignalPolaritySet
                0x00000000        0x8 ..\..\..\..\..\..\..\..\microchip\harmony\v2_06\bin\framework\peripheral\PIC32MX130F064B_peripherals.a(peripheral.o)
 .text.PLIB_GLCD_SignalPolarityGet
                0x00000000        0x8 ..\..\..\..\..\..\..\..\microchip\harmony\v2_06\bin\framework\peripheral\PIC32MX130F064B_peripherals.a(peripheral.o)
 .text.PLIB_GLCD_ExistsSingleCyclePerLineVsync
                0x00000000        0x8 ..\..\..\..\..\..\..\..\microchip\harmony\v2_06\bin\framework\peripheral\PIC32MX130F064B_peripherals.a(peripheral.o)
 .text.PLIB_GLCD_SingleCyclePerLineVsyncEnable
                0x00000000        0x8 ..\..\..\..\..\..\..\..\microchip\harmony\v2_06\bin\framework\peripheral\PIC32MX130F064B_peripherals.a(peripheral.o)
 .text.PLIB_GLCD_SingleCyclePerLineVsyncDisable
                0x00000000        0x8 ..\..\..\..\..\..\..\..\microchip\harmony\v2_06\bin\framework\peripheral\PIC32MX130F064B_peripherals.a(peripheral.o)
 .text.PLIB_GLCD_SingleCyclePerLineVsyncIsEnabled
                0x00000000        0x8 ..\..\..\..\..\..\..\..\microchip\harmony\v2_06\bin\framework\peripheral\PIC32MX130F064B_peripherals.a(peripheral.o)
 .text.PLIB_GLCD_ExistsDithering
                0x00000000        0x8 ..\..\..\..\..\..\..\..\microchip\harmony\v2_06\bin\framework\peripheral\PIC32MX130F064B_peripherals.a(peripheral.o)
 .text.PLIB_GLCD_DitheringEnable
                0x00000000        0x8 ..\..\..\..\..\..\..\..\microchip\harmony\v2_06\bin\framework\peripheral\PIC32MX130F064B_peripherals.a(peripheral.o)
 .text.PLIB_GLCD_DitheringDisable
                0x00000000        0x8 ..\..\..\..\..\..\..\..\microchip\harmony\v2_06\bin\framework\peripheral\PIC32MX130F064B_peripherals.a(peripheral.o)
 .text.PLIB_GLCD_DitheringIsEnabled
                0x00000000        0x8 ..\..\..\..\..\..\..\..\microchip\harmony\v2_06\bin\framework\peripheral\PIC32MX130F064B_peripherals.a(peripheral.o)
 .text.PLIB_GLCD_ExistsCursor
                0x00000000        0x8 ..\..\..\..\..\..\..\..\microchip\harmony\v2_06\bin\framework\peripheral\PIC32MX130F064B_peripherals.a(peripheral.o)
 .text.PLIB_GLCD_CursorEnable
                0x00000000        0x8 ..\..\..\..\..\..\..\..\microchip\harmony\v2_06\bin\framework\peripheral\PIC32MX130F064B_peripherals.a(peripheral.o)
 .text.PLIB_GLCD_CursorDisable
                0x00000000        0x8 ..\..\..\..\..\..\..\..\microchip\harmony\v2_06\bin\framework\peripheral\PIC32MX130F064B_peripherals.a(peripheral.o)
 .text.PLIB_GLCD_CursorIsEnabled
                0x00000000        0x8 ..\..\..\..\..\..\..\..\microchip\harmony\v2_06\bin\framework\peripheral\PIC32MX130F064B_peripherals.a(peripheral.o)
 .text.PLIB_GLCD_ExistsEnable
                0x00000000        0x8 ..\..\..\..\..\..\..\..\microchip\harmony\v2_06\bin\framework\peripheral\PIC32MX130F064B_peripherals.a(peripheral.o)
 .text.PLIB_GLCD_Enable
                0x00000000        0x8 ..\..\..\..\..\..\..\..\microchip\harmony\v2_06\bin\framework\peripheral\PIC32MX130F064B_peripherals.a(peripheral.o)
 .text.PLIB_GLCD_Disable
                0x00000000        0x8 ..\..\..\..\..\..\..\..\microchip\harmony\v2_06\bin\framework\peripheral\PIC32MX130F064B_peripherals.a(peripheral.o)
 .text.PLIB_GLCD_IsEnabled
                0x00000000        0x8 ..\..\..\..\..\..\..\..\microchip\harmony\v2_06\bin\framework\peripheral\PIC32MX130F064B_peripherals.a(peripheral.o)
 .text.PLIB_GLCD_ExistsClockDivider
                0x00000000        0x8 ..\..\..\..\..\..\..\..\microchip\harmony\v2_06\bin\framework\peripheral\PIC32MX130F064B_peripherals.a(peripheral.o)
 .text.PLIB_GLCD_ClockDividerSet
                0x00000000        0x8 ..\..\..\..\..\..\..\..\microchip\harmony\v2_06\bin\framework\peripheral\PIC32MX130F064B_peripherals.a(peripheral.o)
 .text.PLIB_GLCD_ClockDividerGet
                0x00000000        0x8 ..\..\..\..\..\..\..\..\microchip\harmony\v2_06\bin\framework\peripheral\PIC32MX130F064B_peripherals.a(peripheral.o)
 .text.PLIB_GLCD_ExistsLinesPrefetch
                0x00000000        0x8 ..\..\..\..\..\..\..\..\microchip\harmony\v2_06\bin\framework\peripheral\PIC32MX130F064B_peripherals.a(peripheral.o)
 .text.PLIB_GLCD_LinesPrefetchSet
                0x00000000        0x8 ..\..\..\..\..\..\..\..\microchip\harmony\v2_06\bin\framework\peripheral\PIC32MX130F064B_peripherals.a(peripheral.o)
 .text.PLIB_GLCD_LinesPrefetchGet
                0x00000000        0x8 ..\..\..\..\..\..\..\..\microchip\harmony\v2_06\bin\framework\peripheral\PIC32MX130F064B_peripherals.a(peripheral.o)
 .text.PLIB_GLCD_ExistsBackgroundColor
                0x00000000        0x8 ..\..\..\..\..\..\..\..\microchip\harmony\v2_06\bin\framework\peripheral\PIC32MX130F064B_peripherals.a(peripheral.o)
 .text.PLIB_GLCD_BackgroundColorSet
                0x00000000        0x8 ..\..\..\..\..\..\..\..\microchip\harmony\v2_06\bin\framework\peripheral\PIC32MX130F064B_peripherals.a(peripheral.o)
 .text.PLIB_GLCD_BackgroundColorGet
                0x00000000        0x8 ..\..\..\..\..\..\..\..\microchip\harmony\v2_06\bin\framework\peripheral\PIC32MX130F064B_peripherals.a(peripheral.o)
 .text.PLIB_GLCD_ExistsResolutionXY
                0x00000000        0x8 ..\..\..\..\..\..\..\..\microchip\harmony\v2_06\bin\framework\peripheral\PIC32MX130F064B_peripherals.a(peripheral.o)
 .text.PLIB_GLCD_ResolutionXYSet
                0x00000000        0x8 ..\..\..\..\..\..\..\..\microchip\harmony\v2_06\bin\framework\peripheral\PIC32MX130F064B_peripherals.a(peripheral.o)
 .text.PLIB_GLCD_ResolutionXGet
                0x00000000        0x8 ..\..\..\..\..\..\..\..\microchip\harmony\v2_06\bin\framework\peripheral\PIC32MX130F064B_peripherals.a(peripheral.o)
 .text.PLIB_GLCD_ResolutionYGet
                0x00000000        0x8 ..\..\..\..\..\..\..\..\microchip\harmony\v2_06\bin\framework\peripheral\PIC32MX130F064B_peripherals.a(peripheral.o)
 .text.PLIB_GLCD_ExistsFrontPorchXY
                0x00000000        0x8 ..\..\..\..\..\..\..\..\microchip\harmony\v2_06\bin\framework\peripheral\PIC32MX130F064B_peripherals.a(peripheral.o)
 .text.PLIB_GLCD_FrontPorchXYSet
                0x00000000        0x8 ..\..\..\..\..\..\..\..\microchip\harmony\v2_06\bin\framework\peripheral\PIC32MX130F064B_peripherals.a(peripheral.o)
 .text.PLIB_GLCD_FrontPorchXGet
                0x00000000        0x8 ..\..\..\..\..\..\..\..\microchip\harmony\v2_06\bin\framework\peripheral\PIC32MX130F064B_peripherals.a(peripheral.o)
 .text.PLIB_GLCD_FrontPorchYGet
                0x00000000        0x8 ..\..\..\..\..\..\..\..\microchip\harmony\v2_06\bin\framework\peripheral\PIC32MX130F064B_peripherals.a(peripheral.o)
 .text.PLIB_GLCD_ExistsBlankingXY
                0x00000000        0x8 ..\..\..\..\..\..\..\..\microchip\harmony\v2_06\bin\framework\peripheral\PIC32MX130F064B_peripherals.a(peripheral.o)
 .text.PLIB_GLCD_BlankingXYSet
                0x00000000        0x8 ..\..\..\..\..\..\..\..\microchip\harmony\v2_06\bin\framework\peripheral\PIC32MX130F064B_peripherals.a(peripheral.o)
 .text.PLIB_GLCD_BlankingXGet
                0x00000000        0x8 ..\..\..\..\..\..\..\..\microchip\harmony\v2_06\bin\framework\peripheral\PIC32MX130F064B_peripherals.a(peripheral.o)
 .text.PLIB_GLCD_BlankingYGet
                0x00000000        0x8 ..\..\..\..\..\..\..\..\microchip\harmony\v2_06\bin\framework\peripheral\PIC32MX130F064B_peripherals.a(peripheral.o)
 .text.PLIB_GLCD_ExistsBackPorchXY
                0x00000000        0x8 ..\..\..\..\..\..\..\..\microchip\harmony\v2_06\bin\framework\peripheral\PIC32MX130F064B_peripherals.a(peripheral.o)
 .text.PLIB_GLCD_BackPorchXYSet
                0x00000000        0x8 ..\..\..\..\..\..\..\..\microchip\harmony\v2_06\bin\framework\peripheral\PIC32MX130F064B_peripherals.a(peripheral.o)
 .text.PLIB_GLCD_BackPorchXGet
                0x00000000        0x8 ..\..\..\..\..\..\..\..\microchip\harmony\v2_06\bin\framework\peripheral\PIC32MX130F064B_peripherals.a(peripheral.o)
 .text.PLIB_GLCD_BackPorchYGet
                0x00000000        0x8 ..\..\..\..\..\..\..\..\microchip\harmony\v2_06\bin\framework\peripheral\PIC32MX130F064B_peripherals.a(peripheral.o)
 .text.PLIB_GLCD_ExistsCursorXY
                0x00000000        0x8 ..\..\..\..\..\..\..\..\microchip\harmony\v2_06\bin\framework\peripheral\PIC32MX130F064B_peripherals.a(peripheral.o)
 .text.PLIB_GLCD_CursorXYSet
                0x00000000        0x8 ..\..\..\..\..\..\..\..\microchip\harmony\v2_06\bin\framework\peripheral\PIC32MX130F064B_peripherals.a(peripheral.o)
 .text.PLIB_GLCD_CursorXGet
                0x00000000        0x8 ..\..\..\..\..\..\..\..\microchip\harmony\v2_06\bin\framework\peripheral\PIC32MX130F064B_peripherals.a(peripheral.o)
 .text.PLIB_GLCD_CursorYGet
                0x00000000        0x8 ..\..\..\..\..\..\..\..\microchip\harmony\v2_06\bin\framework\peripheral\PIC32MX130F064B_peripherals.a(peripheral.o)
 .text.PLIB_GLCD_ExistsLayerColorMode
                0x00000000        0x8 ..\..\..\..\..\..\..\..\microchip\harmony\v2_06\bin\framework\peripheral\PIC32MX130F064B_peripherals.a(peripheral.o)
 .text.PLIB_GLCD_LayerColorModeSet
                0x00000000        0x8 ..\..\..\..\..\..\..\..\microchip\harmony\v2_06\bin\framework\peripheral\PIC32MX130F064B_peripherals.a(peripheral.o)
 .text.PLIB_GLCD_LayerColorModeGet
                0x00000000        0x8 ..\..\..\..\..\..\..\..\microchip\harmony\v2_06\bin\framework\peripheral\PIC32MX130F064B_peripherals.a(peripheral.o)
 .text.PLIB_GLCD_ExistsLayerSrcBlendFunc
                0x00000000        0x8 ..\..\..\..\..\..\..\..\microchip\harmony\v2_06\bin\framework\peripheral\PIC32MX130F064B_peripherals.a(peripheral.o)
 .text.PLIB_GLCD_LayerSrcBlendFuncSet
                0x00000000        0x8 ..\..\..\..\..\..\..\..\microchip\harmony\v2_06\bin\framework\peripheral\PIC32MX130F064B_peripherals.a(peripheral.o)
 .text.PLIB_GLCD_LayerSrcBlendFuncGet
                0x00000000        0x8 ..\..\..\..\..\..\..\..\microchip\harmony\v2_06\bin\framework\peripheral\PIC32MX130F064B_peripherals.a(peripheral.o)
 .text.PLIB_GLCD_ExistsLayerDestBlendFunc
                0x00000000        0x8 ..\..\..\..\..\..\..\..\microchip\harmony\v2_06\bin\framework\peripheral\PIC32MX130F064B_peripherals.a(peripheral.o)
 .text.PLIB_GLCD_LayerDestBlendFuncSet
                0x00000000        0x8 ..\..\..\..\..\..\..\..\microchip\harmony\v2_06\bin\framework\peripheral\PIC32MX130F064B_peripherals.a(peripheral.o)
 .text.PLIB_GLCD_LayerDestBlendFuncGet
                0x00000000        0x8 ..\..\..\..\..\..\..\..\microchip\harmony\v2_06\bin\framework\peripheral\PIC32MX130F064B_peripherals.a(peripheral.o)
 .text.PLIB_GLCD_ExistsLayerGlobalAlpha
                0x00000000        0x8 ..\..\..\..\..\..\..\..\microchip\harmony\v2_06\bin\framework\peripheral\PIC32MX130F064B_peripherals.a(peripheral.o)
 .text.PLIB_GLCD_LayerGlobalAlphaSet
                0x00000000        0x8 ..\..\..\..\..\..\..\..\microchip\harmony\v2_06\bin\framework\peripheral\PIC32MX130F064B_peripherals.a(peripheral.o)
 .text.PLIB_GLCD_LayerGlobalAlphaGet
                0x00000000        0x8 ..\..\..\..\..\..\..\..\microchip\harmony\v2_06\bin\framework\peripheral\PIC32MX130F064B_peripherals.a(peripheral.o)
 .text.PLIB_GLCD_ExistsLayerPreMultiplyImageAlpha
                0x00000000        0x8 ..\..\..\..\..\..\..\..\microchip\harmony\v2_06\bin\framework\peripheral\PIC32MX130F064B_peripherals.a(peripheral.o)
 .text.PLIB_GLCD_LayerPreMultiplyImageAlphaEnable
                0x00000000        0x8 ..\..\..\..\..\..\..\..\microchip\harmony\v2_06\bin\framework\peripheral\PIC32MX130F064B_peripherals.a(peripheral.o)
 .text.PLIB_GLCD_LayerPreMultiplyImageAlphaDisable
                0x00000000        0x8 ..\..\..\..\..\..\..\..\microchip\harmony\v2_06\bin\framework\peripheral\PIC32MX130F064B_peripherals.a(peripheral.o)
 .text.PLIB_GLCD_LayerPreMultiplyImageAlphaIsEnabled
                0x00000000        0x8 ..\..\..\..\..\..\..\..\microchip\harmony\v2_06\bin\framework\peripheral\PIC32MX130F064B_peripherals.a(peripheral.o)
 .text.PLIB_GLCD_ExistsLayerForceWithGlobalAlpha
                0x00000000        0x8 ..\..\..\..\..\..\..\..\microchip\harmony\v2_06\bin\framework\peripheral\PIC32MX130F064B_peripherals.a(peripheral.o)
 .text.PLIB_GLCD_LayerForceWithGlobalAlphaEnable
                0x00000000        0x8 ..\..\..\..\..\..\..\..\microchip\harmony\v2_06\bin\framework\peripheral\PIC32MX130F064B_peripherals.a(peripheral.o)
 .text.PLIB_GLCD_LayerForceWithGlobalAlphaDisable
                0x00000000        0x8 ..\..\..\..\..\..\..\..\microchip\harmony\v2_06\bin\framework\peripheral\PIC32MX130F064B_peripherals.a(peripheral.o)
 .text.PLIB_GLCD_LayerForceWithGlobalAlphaIsEnabled
                0x00000000        0x8 ..\..\..\..\..\..\..\..\microchip\harmony\v2_06\bin\framework\peripheral\PIC32MX130F064B_peripherals.a(peripheral.o)
 .text.PLIB_GLCD_ExistsLayerBilinearFilterEnable
                0x00000000        0x8 ..\..\..\..\..\..\..\..\microchip\harmony\v2_06\bin\framework\peripheral\PIC32MX130F064B_peripherals.a(peripheral.o)
 .text.PLIB_GLCD_LayerBilinearFilterEnable
                0x00000000        0x8 ..\..\..\..\..\..\..\..\microchip\harmony\v2_06\bin\framework\peripheral\PIC32MX130F064B_peripherals.a(peripheral.o)
 .text.PLIB_GLCD_LayerBilinearFilterDisable
                0x00000000        0x8 ..\..\..\..\..\..\..\..\microchip\harmony\v2_06\bin\framework\peripheral\PIC32MX130F064B_peripherals.a(peripheral.o)
 .text.PLIB_GLCD_LayerBilinearFilterIsEnabled
                0x00000000        0x8 ..\..\..\..\..\..\..\..\microchip\harmony\v2_06\bin\framework\peripheral\PIC32MX130F064B_peripherals.a(peripheral.o)
 .text.PLIB_GLCD_ExistsLayerEnable
                0x00000000        0x8 ..\..\..\..\..\..\..\..\microchip\harmony\v2_06\bin\framework\peripheral\PIC32MX130F064B_peripherals.a(peripheral.o)
 .text.PLIB_GLCD_LayerEnable
                0x00000000        0x8 ..\..\..\..\..\..\..\..\microchip\harmony\v2_06\bin\framework\peripheral\PIC32MX130F064B_peripherals.a(peripheral.o)
 .text.PLIB_GLCD_LayerDisable
                0x00000000        0x8 ..\..\..\..\..\..\..\..\microchip\harmony\v2_06\bin\framework\peripheral\PIC32MX130F064B_peripherals.a(peripheral.o)
 .text.PLIB_GLCD_LayerIsEnabled
                0x00000000        0x8 ..\..\..\..\..\..\..\..\microchip\harmony\v2_06\bin\framework\peripheral\PIC32MX130F064B_peripherals.a(peripheral.o)
 .text.PLIB_GLCD_ExistsLayerStartXY
                0x00000000        0x8 ..\..\..\..\..\..\..\..\microchip\harmony\v2_06\bin\framework\peripheral\PIC32MX130F064B_peripherals.a(peripheral.o)
 .text.PLIB_GLCD_LayerStartXYSet
                0x00000000        0x8 ..\..\..\..\..\..\..\..\microchip\harmony\v2_06\bin\framework\peripheral\PIC32MX130F064B_peripherals.a(peripheral.o)
 .text.PLIB_GLCD_LayerStartXGet
                0x00000000        0x8 ..\..\..\..\..\..\..\..\microchip\harmony\v2_06\bin\framework\peripheral\PIC32MX130F064B_peripherals.a(peripheral.o)
 .text.PLIB_GLCD_LayerStartYGet
                0x00000000        0x8 ..\..\..\..\..\..\..\..\microchip\harmony\v2_06\bin\framework\peripheral\PIC32MX130F064B_peripherals.a(peripheral.o)
 .text.PLIB_GLCD_ExistsLayerSizeXY
                0x00000000        0x8 ..\..\..\..\..\..\..\..\microchip\harmony\v2_06\bin\framework\peripheral\PIC32MX130F064B_peripherals.a(peripheral.o)
 .text.PLIB_GLCD_LayerSizeXYSet
                0x00000000        0x8 ..\..\..\..\..\..\..\..\microchip\harmony\v2_06\bin\framework\peripheral\PIC32MX130F064B_peripherals.a(peripheral.o)
 .text.PLIB_GLCD_LayerSizeXGet
                0x00000000        0x8 ..\..\..\..\..\..\..\..\microchip\harmony\v2_06\bin\framework\peripheral\PIC32MX130F064B_peripherals.a(peripheral.o)
 .text.PLIB_GLCD_LayerSizeYGet
                0x00000000        0x8 ..\..\..\..\..\..\..\..\microchip\harmony\v2_06\bin\framework\peripheral\PIC32MX130F064B_peripherals.a(peripheral.o)
 .text.PLIB_GLCD_ExistsLayerBaseAddress
                0x00000000        0x8 ..\..\..\..\..\..\..\..\microchip\harmony\v2_06\bin\framework\peripheral\PIC32MX130F064B_peripherals.a(peripheral.o)
 .text.PLIB_GLCD_LayerBaseAddressSet
                0x00000000        0x8 ..\..\..\..\..\..\..\..\microchip\harmony\v2_06\bin\framework\peripheral\PIC32MX130F064B_peripherals.a(peripheral.o)
 .text.PLIB_GLCD_LayerBaseAddressGet
                0x00000000        0x8 ..\..\..\..\..\..\..\..\microchip\harmony\v2_06\bin\framework\peripheral\PIC32MX130F064B_peripherals.a(peripheral.o)
 .text.PLIB_GLCD_ExistsLayerStride
                0x00000000        0x8 ..\..\..\..\..\..\..\..\microchip\harmony\v2_06\bin\framework\peripheral\PIC32MX130F064B_peripherals.a(peripheral.o)
 .text.PLIB_GLCD_LayerStrideSet
                0x00000000        0x8 ..\..\..\..\..\..\..\..\microchip\harmony\v2_06\bin\framework\peripheral\PIC32MX130F064B_peripherals.a(peripheral.o)
 .text.PLIB_GLCD_LayerStrideGet
                0x00000000        0x8 ..\..\..\..\..\..\..\..\microchip\harmony\v2_06\bin\framework\peripheral\PIC32MX130F064B_peripherals.a(peripheral.o)
 .text.PLIB_GLCD_ExistsLayerResXY
                0x00000000        0x8 ..\..\..\..\..\..\..\..\microchip\harmony\v2_06\bin\framework\peripheral\PIC32MX130F064B_peripherals.a(peripheral.o)
 .text.PLIB_GLCD_LayerResXYSet
                0x00000000        0x8 ..\..\..\..\..\..\..\..\microchip\harmony\v2_06\bin\framework\peripheral\PIC32MX130F064B_peripherals.a(peripheral.o)
 .text.PLIB_GLCD_LayerResXGet
                0x00000000        0x8 ..\..\..\..\..\..\..\..\microchip\harmony\v2_06\bin\framework\peripheral\PIC32MX130F064B_peripherals.a(peripheral.o)
 .text.PLIB_GLCD_LayerResYGet
                0x00000000        0x8 ..\..\..\..\..\..\..\..\microchip\harmony\v2_06\bin\framework\peripheral\PIC32MX130F064B_peripherals.a(peripheral.o)
 .text.PLIB_GLCD_ExistsHSyncInterruptEnable
                0x00000000        0x8 ..\..\..\..\..\..\..\..\microchip\harmony\v2_06\bin\framework\peripheral\PIC32MX130F064B_peripherals.a(peripheral.o)
 .text.PLIB_GLCD_HSyncInterruptEnable
                0x00000000        0x8 ..\..\..\..\..\..\..\..\microchip\harmony\v2_06\bin\framework\peripheral\PIC32MX130F064B_peripherals.a(peripheral.o)
 .text.PLIB_GLCD_HSyncInterruptDisable
                0x00000000        0x8 ..\..\..\..\..\..\..\..\microchip\harmony\v2_06\bin\framework\peripheral\PIC32MX130F064B_peripherals.a(peripheral.o)
 .text.PLIB_GLCD_HSyncInterruptIsEnabled
                0x00000000        0x8 ..\..\..\..\..\..\..\..\microchip\harmony\v2_06\bin\framework\peripheral\PIC32MX130F064B_peripherals.a(peripheral.o)
 .text.PLIB_GLCD_ExistsVSyncInterruptEnable
                0x00000000        0x8 ..\..\..\..\..\..\..\..\microchip\harmony\v2_06\bin\framework\peripheral\PIC32MX130F064B_peripherals.a(peripheral.o)
 .text.PLIB_GLCD_VSyncInterruptEnable
                0x00000000        0x8 ..\..\..\..\..\..\..\..\microchip\harmony\v2_06\bin\framework\peripheral\PIC32MX130F064B_peripherals.a(peripheral.o)
 .text.PLIB_GLCD_VSyncInterruptDisable
                0x00000000        0x8 ..\..\..\..\..\..\..\..\microchip\harmony\v2_06\bin\framework\peripheral\PIC32MX130F064B_peripherals.a(peripheral.o)
 .text.PLIB_GLCD_VSyncInterruptIsEnabled
                0x00000000        0x8 ..\..\..\..\..\..\..\..\microchip\harmony\v2_06\bin\framework\peripheral\PIC32MX130F064B_peripherals.a(peripheral.o)
 .text.PLIB_GLCD_ExistsIRQTriggerControl
                0x00000000        0x8 ..\..\..\..\..\..\..\..\microchip\harmony\v2_06\bin\framework\peripheral\PIC32MX130F064B_peripherals.a(peripheral.o)
 .text.PLIB_GLCD_IRQTriggerControlSet
                0x00000000        0x8 ..\..\..\..\..\..\..\..\microchip\harmony\v2_06\bin\framework\peripheral\PIC32MX130F064B_peripherals.a(peripheral.o)
 .text.PLIB_GLCD_IRQTriggerControlGet
                0x00000000        0x8 ..\..\..\..\..\..\..\..\microchip\harmony\v2_06\bin\framework\peripheral\PIC32MX130F064B_peripherals.a(peripheral.o)
 .text.PLIB_GLCD_ExistsIsVerticalBlankingActive
                0x00000000        0x8 ..\..\..\..\..\..\..\..\microchip\harmony\v2_06\bin\framework\peripheral\PIC32MX130F064B_peripherals.a(peripheral.o)
 .text.PLIB_GLCD_IsVerticalBlankingActive
                0x00000000        0x8 ..\..\..\..\..\..\..\..\microchip\harmony\v2_06\bin\framework\peripheral\PIC32MX130F064B_peripherals.a(peripheral.o)
 .text.PLIB_GLCD_ExistsDESignalLevel
                0x00000000        0x8 ..\..\..\..\..\..\..\..\microchip\harmony\v2_06\bin\framework\peripheral\PIC32MX130F064B_peripherals.a(peripheral.o)
 .text.PLIB_GLCD_DESignalLevelGet
                0x00000000        0x8 ..\..\..\..\..\..\..\..\microchip\harmony\v2_06\bin\framework\peripheral\PIC32MX130F064B_peripherals.a(peripheral.o)
 .text.PLIB_GLCD_ExistsHSyncSignalLevel
                0x00000000        0x8 ..\..\..\..\..\..\..\..\microchip\harmony\v2_06\bin\framework\peripheral\PIC32MX130F064B_peripherals.a(peripheral.o)
 .text.PLIB_GLCD_HSyncSignalLevelGet
                0x00000000        0x8 ..\..\..\..\..\..\..\..\microchip\harmony\v2_06\bin\framework\peripheral\PIC32MX130F064B_peripherals.a(peripheral.o)
 .text.PLIB_GLCD_ExistsVSyncSignalLevel
                0x00000000        0x8 ..\..\..\..\..\..\..\..\microchip\harmony\v2_06\bin\framework\peripheral\PIC32MX130F064B_peripherals.a(peripheral.o)
 .text.PLIB_GLCD_VSyncSignalLevelGet
                0x00000000        0x8 ..\..\..\..\..\..\..\..\microchip\harmony\v2_06\bin\framework\peripheral\PIC32MX130F064B_peripherals.a(peripheral.o)
 .text.PLIB_GLCD_ExistsIsLastRow
                0x00000000        0x8 ..\..\..\..\..\..\..\..\microchip\harmony\v2_06\bin\framework\peripheral\PIC32MX130F064B_peripherals.a(peripheral.o)
 .text.PLIB_GLCD_IsLastRow
                0x00000000        0x8 ..\..\..\..\..\..\..\..\microchip\harmony\v2_06\bin\framework\peripheral\PIC32MX130F064B_peripherals.a(peripheral.o)
 .text.PLIB_GLCD_ExistsGlobalColorLUT
                0x00000000        0x8 ..\..\..\..\..\..\..\..\microchip\harmony\v2_06\bin\framework\peripheral\PIC32MX130F064B_peripherals.a(peripheral.o)
 .text.PLIB_GLCD_GlobalColorLUTSet
                0x00000000        0x8 ..\..\..\..\..\..\..\..\microchip\harmony\v2_06\bin\framework\peripheral\PIC32MX130F064B_peripherals.a(peripheral.o)
 .text.PLIB_GLCD_GlobalColorLUTGet
                0x00000000        0x8 ..\..\..\..\..\..\..\..\microchip\harmony\v2_06\bin\framework\peripheral\PIC32MX130F064B_peripherals.a(peripheral.o)
 .text.PLIB_GLCD_ExistsCursorData
                0x00000000        0x8 ..\..\..\..\..\..\..\..\microchip\harmony\v2_06\bin\framework\peripheral\PIC32MX130F064B_peripherals.a(peripheral.o)
 .text.PLIB_GLCD_CursorDataSet
                0x00000000        0x8 ..\..\..\..\..\..\..\..\microchip\harmony\v2_06\bin\framework\peripheral\PIC32MX130F064B_peripherals.a(peripheral.o)
 .text.PLIB_GLCD_CursorDataGet
                0x00000000        0x8 ..\..\..\..\..\..\..\..\microchip\harmony\v2_06\bin\framework\peripheral\PIC32MX130F064B_peripherals.a(peripheral.o)
 .text.PLIB_GLCD_ExistsCursorLUT
                0x00000000        0x8 ..\..\..\..\..\..\..\..\microchip\harmony\v2_06\bin\framework\peripheral\PIC32MX130F064B_peripherals.a(peripheral.o)
 .text.PLIB_GLCD_CursorLUTSet
                0x00000000        0x8 ..\..\..\..\..\..\..\..\microchip\harmony\v2_06\bin\framework\peripheral\PIC32MX130F064B_peripherals.a(peripheral.o)
 .text.PLIB_GLCD_CursorLUTGet
                0x00000000        0x8 ..\..\..\..\..\..\..\..\microchip\harmony\v2_06\bin\framework\peripheral\PIC32MX130F064B_peripherals.a(peripheral.o)
 .rodata        0x00000000        0x8 ..\..\..\..\..\..\..\..\microchip\harmony\v2_06\bin\framework\peripheral\PIC32MX130F064B_peripherals.a(peripheral.o)
 .text          0x00000000        0x0 C:\Users\MIGSAN~1\AppData\Local\Temp\ccqKeKlV.o
 .data          0x00000000        0x0 C:\Users\MIGSAN~1\AppData\Local\Temp\ccqKeKlV.o
 .bss           0x00000000        0x0 C:\Users\MIGSAN~1\AppData\Local\Temp\ccqKeKlV.o
 .reginfo       0x00000000       0x18 C:\Users\MIGSAN~1\AppData\Local\Temp\ccqKeKlV.o
 .text          0x00000000        0x0 C:\Users\MIGSAN~1\AppData\Local\Temp\cclT3o7d.o
 .data          0x00000000        0x0 C:\Users\MIGSAN~1\AppData\Local\Temp\cclT3o7d.o
 .bss           0x00000000        0x0 C:\Users\MIGSAN~1\AppData\Local\Temp\cclT3o7d.o
 .reginfo       0x00000000       0x18 C:\Users\MIGSAN~1\AppData\Local\Temp\cclT3o7d.o
 .text          0x00000000        0x0 C:\Users\MIGSAN~1\AppData\Local\Temp\ccowi2wX.o
 .data          0x00000000        0x0 C:\Users\MIGSAN~1\AppData\Local\Temp\ccowi2wX.o
 .bss           0x00000000        0x0 C:\Users\MIGSAN~1\AppData\Local\Temp\ccowi2wX.o
 .reginfo       0x00000000       0x18 C:\Users\MIGSAN~1\AppData\Local\Temp\ccowi2wX.o
 .discard       0x00000000       0xb0 C:\Users\MIGSAN~1\AppData\Local\Temp\ccowi2wX.o
 .data          0x00000000        0x0 c:/program files/microchip/xc32/v2.50/bin/bin/../../lib/gcc/pic32mx/4.8.3/../../../../pic32mx/lib\pic32_software_reset.o
 .bss           0x00000000        0x0 c:/program files/microchip/xc32/v2.50/bin/bin/../../lib/gcc/pic32mx/4.8.3/../../../../pic32mx/lib\pic32_software_reset.o
 .reginfo       0x00000000       0x18 c:/program files/microchip/xc32/v2.50/bin/bin/../../lib/gcc/pic32mx/4.8.3/../../../../pic32mx/lib\pic32_software_reset.o
 .text          0x00000000        0x0 c:/program files/microchip/xc32/v2.50/bin/bin/../../lib/gcc/pic32mx/4.8.3/../../../../pic32mx/lib/./proc/32MX130F064B\processor.o
 .data          0x00000000        0x0 c:/program files/microchip/xc32/v2.50/bin/bin/../../lib/gcc/pic32mx/4.8.3/../../../../pic32mx/lib/./proc/32MX130F064B\processor.o
 .bss           0x00000000        0x0 c:/program files/microchip/xc32/v2.50/bin/bin/../../lib/gcc/pic32mx/4.8.3/../../../../pic32mx/lib/./proc/32MX130F064B\processor.o
 .reginfo       0x00000000       0x18 c:/program files/microchip/xc32/v2.50/bin/bin/../../lib/gcc/pic32mx/4.8.3/../../../../pic32mx/lib/./proc/32MX130F064B\processor.o
 .text          0x00000000        0x0 c:/program files/microchip/xc32/v2.50/bin/bin/../../lib/gcc/pic32mx/4.8.3/../../../../pic32mx/lib\libpic32.a(default-bootstrap-exception-handler.o)
 .data          0x00000000        0x0 c:/program files/microchip/xc32/v2.50/bin/bin/../../lib/gcc/pic32mx/4.8.3/../../../../pic32mx/lib\libpic32.a(default-bootstrap-exception-handler.o)
 .bss           0x00000000        0x0 c:/program files/microchip/xc32/v2.50/bin/bin/../../lib/gcc/pic32mx/4.8.3/../../../../pic32mx/lib\libpic32.a(default-bootstrap-exception-handler.o)
 .reginfo       0x00000000       0x18 c:/program files/microchip/xc32/v2.50/bin/bin/../../lib/gcc/pic32mx/4.8.3/../../../../pic32mx/lib\libpic32.a(default-bootstrap-exception-handler.o)
 .text          0x00000000        0x0 c:/program files/microchip/xc32/v2.50/bin/bin/../../lib/gcc/pic32mx/4.8.3/../../../../pic32mx/lib\libpic32.a(default-on-reset.o)
 .data          0x00000000        0x0 c:/program files/microchip/xc32/v2.50/bin/bin/../../lib/gcc/pic32mx/4.8.3/../../../../pic32mx/lib\libpic32.a(default-on-reset.o)
 .bss           0x00000000        0x0 c:/program files/microchip/xc32/v2.50/bin/bin/../../lib/gcc/pic32mx/4.8.3/../../../../pic32mx/lib\libpic32.a(default-on-reset.o)
 .reginfo       0x00000000       0x18 c:/program files/microchip/xc32/v2.50/bin/bin/../../lib/gcc/pic32mx/4.8.3/../../../../pic32mx/lib\libpic32.a(default-on-reset.o)
 .text          0x00000000        0x0 c:/program files/microchip/xc32/v2.50/bin/bin/../../lib/gcc/pic32mx/4.8.3/../../../../pic32mx/lib\libpic32.a(default-on-bootstrap.o)
 .data          0x00000000        0x0 c:/program files/microchip/xc32/v2.50/bin/bin/../../lib/gcc/pic32mx/4.8.3/../../../../pic32mx/lib\libpic32.a(default-on-bootstrap.o)
 .bss           0x00000000        0x0 c:/program files/microchip/xc32/v2.50/bin/bin/../../lib/gcc/pic32mx/4.8.3/../../../../pic32mx/lib\libpic32.a(default-on-bootstrap.o)
 .reginfo       0x00000000       0x18 c:/program files/microchip/xc32/v2.50/bin/bin/../../lib/gcc/pic32mx/4.8.3/../../../../pic32mx/lib\libpic32.a(default-on-bootstrap.o)
 .data          0x00000000        0x0 c:/program files/microchip/xc32/v2.50/bin/bin/../../lib/gcc/pic32mx/4.8.3/../../../../pic32mx/lib\libpic32.a(default-nmi-handler.o)
 .bss           0x00000000        0x0 c:/program files/microchip/xc32/v2.50/bin/bin/../../lib/gcc/pic32mx/4.8.3/../../../../pic32mx/lib\libpic32.a(default-nmi-handler.o)
 .reginfo       0x00000000       0x18 c:/program files/microchip/xc32/v2.50/bin/bin/../../lib/gcc/pic32mx/4.8.3/../../../../pic32mx/lib\libpic32.a(default-nmi-handler.o)
 .data          0x00000000        0x0 c:/program files/microchip/xc32/v2.50/bin/bin/../../lib/gcc/pic32mx/4.8.3/../../../../pic32mx/lib\libpic32.a(pic32_data_init.o)
 .bss           0x00000000        0x0 c:/program files/microchip/xc32/v2.50/bin/bin/../../lib/gcc/pic32mx/4.8.3/../../../../pic32mx/lib\libpic32.a(pic32_data_init.o)
 .reginfo       0x00000000       0x18 c:/program files/microchip/xc32/v2.50/bin/bin/../../lib/gcc/pic32mx/4.8.3/../../../../pic32mx/lib\libpic32.a(pic32_data_init.o)
 .text          0x00000000        0x0 c:/program files/microchip/xc32/v2.50/bin/bin/../../lib/gcc/pic32mx/4.8.3/../../../../pic32mx/lib\libpic32.a(general-exception.o)
 .data          0x00000000        0x0 c:/program files/microchip/xc32/v2.50/bin/bin/../../lib/gcc/pic32mx/4.8.3/../../../../pic32mx/lib\libpic32.a(general-exception.o)
 .bss           0x00000000        0x0 c:/program files/microchip/xc32/v2.50/bin/bin/../../lib/gcc/pic32mx/4.8.3/../../../../pic32mx/lib\libpic32.a(general-exception.o)
 .reginfo       0x00000000       0x18 c:/program files/microchip/xc32/v2.50/bin/bin/../../lib/gcc/pic32mx/4.8.3/../../../../pic32mx/lib\libpic32.a(general-exception.o)
 .text          0x00000000        0x0 c:/program files/microchip/xc32/v2.50/bin/bin/../../lib/gcc/pic32mx/4.8.3/../../../../pic32mx/lib\libpic32.a(vector0.o)
 .data          0x00000000        0x0 c:/program files/microchip/xc32/v2.50/bin/bin/../../lib/gcc/pic32mx/4.8.3/../../../../pic32mx/lib\libpic32.a(vector0.o)
 .bss           0x00000000        0x0 c:/program files/microchip/xc32/v2.50/bin/bin/../../lib/gcc/pic32mx/4.8.3/../../../../pic32mx/lib\libpic32.a(vector0.o)
 .reginfo       0x00000000       0x18 c:/program files/microchip/xc32/v2.50/bin/bin/../../lib/gcc/pic32mx/4.8.3/../../../../pic32mx/lib\libpic32.a(vector0.o)
 .text          0x00000000        0x0 c:/program files/microchip/xc32/v2.50/bin/bin/../../lib/gcc/pic32mx/4.8.3/../../../../pic32mx/lib\libpic32.a(vector1.o)
 .data          0x00000000        0x0 c:/program files/microchip/xc32/v2.50/bin/bin/../../lib/gcc/pic32mx/4.8.3/../../../../pic32mx/lib\libpic32.a(vector1.o)
 .bss           0x00000000        0x0 c:/program files/microchip/xc32/v2.50/bin/bin/../../lib/gcc/pic32mx/4.8.3/../../../../pic32mx/lib\libpic32.a(vector1.o)
 .reginfo       0x00000000       0x18 c:/program files/microchip/xc32/v2.50/bin/bin/../../lib/gcc/pic32mx/4.8.3/../../../../pic32mx/lib\libpic32.a(vector1.o)
 .text          0x00000000        0x0 c:/program files/microchip/xc32/v2.50/bin/bin/../../lib/gcc/pic32mx/4.8.3/../../../../pic32mx/lib\libpic32.a(vector2.o)
 .data          0x00000000        0x0 c:/program files/microchip/xc32/v2.50/bin/bin/../../lib/gcc/pic32mx/4.8.3/../../../../pic32mx/lib\libpic32.a(vector2.o)
 .bss           0x00000000        0x0 c:/program files/microchip/xc32/v2.50/bin/bin/../../lib/gcc/pic32mx/4.8.3/../../../../pic32mx/lib\libpic32.a(vector2.o)
 .reginfo       0x00000000       0x18 c:/program files/microchip/xc32/v2.50/bin/bin/../../lib/gcc/pic32mx/4.8.3/../../../../pic32mx/lib\libpic32.a(vector2.o)
 .text          0x00000000        0x0 c:/program files/microchip/xc32/v2.50/bin/bin/../../lib/gcc/pic32mx/4.8.3/../../../../pic32mx/lib\libpic32.a(vector3.o)
 .data          0x00000000        0x0 c:/program files/microchip/xc32/v2.50/bin/bin/../../lib/gcc/pic32mx/4.8.3/../../../../pic32mx/lib\libpic32.a(vector3.o)
 .bss           0x00000000        0x0 c:/program files/microchip/xc32/v2.50/bin/bin/../../lib/gcc/pic32mx/4.8.3/../../../../pic32mx/lib\libpic32.a(vector3.o)
 .reginfo       0x00000000       0x18 c:/program files/microchip/xc32/v2.50/bin/bin/../../lib/gcc/pic32mx/4.8.3/../../../../pic32mx/lib\libpic32.a(vector3.o)
 .text          0x00000000        0x0 c:/program files/microchip/xc32/v2.50/bin/bin/../../lib/gcc/pic32mx/4.8.3/../../../../pic32mx/lib\libpic32.a(vector4.o)
 .data          0x00000000        0x0 c:/program files/microchip/xc32/v2.50/bin/bin/../../lib/gcc/pic32mx/4.8.3/../../../../pic32mx/lib\libpic32.a(vector4.o)
 .bss           0x00000000        0x0 c:/program files/microchip/xc32/v2.50/bin/bin/../../lib/gcc/pic32mx/4.8.3/../../../../pic32mx/lib\libpic32.a(vector4.o)
 .reginfo       0x00000000       0x18 c:/program files/microchip/xc32/v2.50/bin/bin/../../lib/gcc/pic32mx/4.8.3/../../../../pic32mx/lib\libpic32.a(vector4.o)
 .text          0x00000000        0x0 c:/program files/microchip/xc32/v2.50/bin/bin/../../lib/gcc/pic32mx/4.8.3/../../../../pic32mx/lib\libpic32.a(vector5.o)
 .data          0x00000000        0x0 c:/program files/microchip/xc32/v2.50/bin/bin/../../lib/gcc/pic32mx/4.8.3/../../../../pic32mx/lib\libpic32.a(vector5.o)
 .bss           0x00000000        0x0 c:/program files/microchip/xc32/v2.50/bin/bin/../../lib/gcc/pic32mx/4.8.3/../../../../pic32mx/lib\libpic32.a(vector5.o)
 .reginfo       0x00000000       0x18 c:/program files/microchip/xc32/v2.50/bin/bin/../../lib/gcc/pic32mx/4.8.3/../../../../pic32mx/lib\libpic32.a(vector5.o)
 .text          0x00000000        0x0 c:/program files/microchip/xc32/v2.50/bin/bin/../../lib/gcc/pic32mx/4.8.3/../../../../pic32mx/lib\libpic32.a(vector6.o)
 .data          0x00000000        0x0 c:/program files/microchip/xc32/v2.50/bin/bin/../../lib/gcc/pic32mx/4.8.3/../../../../pic32mx/lib\libpic32.a(vector6.o)
 .bss           0x00000000        0x0 c:/program files/microchip/xc32/v2.50/bin/bin/../../lib/gcc/pic32mx/4.8.3/../../../../pic32mx/lib\libpic32.a(vector6.o)
 .reginfo       0x00000000       0x18 c:/program files/microchip/xc32/v2.50/bin/bin/../../lib/gcc/pic32mx/4.8.3/../../../../pic32mx/lib\libpic32.a(vector6.o)
 .text          0x00000000        0x0 c:/program files/microchip/xc32/v2.50/bin/bin/../../lib/gcc/pic32mx/4.8.3/../../../../pic32mx/lib\libpic32.a(vector7.o)
 .data          0x00000000        0x0 c:/program files/microchip/xc32/v2.50/bin/bin/../../lib/gcc/pic32mx/4.8.3/../../../../pic32mx/lib\libpic32.a(vector7.o)
 .bss           0x00000000        0x0 c:/program files/microchip/xc32/v2.50/bin/bin/../../lib/gcc/pic32mx/4.8.3/../../../../pic32mx/lib\libpic32.a(vector7.o)
 .reginfo       0x00000000       0x18 c:/program files/microchip/xc32/v2.50/bin/bin/../../lib/gcc/pic32mx/4.8.3/../../../../pic32mx/lib\libpic32.a(vector7.o)
 .text          0x00000000        0x0 c:/program files/microchip/xc32/v2.50/bin/bin/../../lib/gcc/pic32mx/4.8.3/../../../../pic32mx/lib\libpic32.a(vector8.o)
 .data          0x00000000        0x0 c:/program files/microchip/xc32/v2.50/bin/bin/../../lib/gcc/pic32mx/4.8.3/../../../../pic32mx/lib\libpic32.a(vector8.o)
 .bss           0x00000000        0x0 c:/program files/microchip/xc32/v2.50/bin/bin/../../lib/gcc/pic32mx/4.8.3/../../../../pic32mx/lib\libpic32.a(vector8.o)
 .reginfo       0x00000000       0x18 c:/program files/microchip/xc32/v2.50/bin/bin/../../lib/gcc/pic32mx/4.8.3/../../../../pic32mx/lib\libpic32.a(vector8.o)
 .text          0x00000000        0x0 c:/program files/microchip/xc32/v2.50/bin/bin/../../lib/gcc/pic32mx/4.8.3/../../../../pic32mx/lib\libpic32.a(vector9.o)
 .data          0x00000000        0x0 c:/program files/microchip/xc32/v2.50/bin/bin/../../lib/gcc/pic32mx/4.8.3/../../../../pic32mx/lib\libpic32.a(vector9.o)
 .bss           0x00000000        0x0 c:/program files/microchip/xc32/v2.50/bin/bin/../../lib/gcc/pic32mx/4.8.3/../../../../pic32mx/lib\libpic32.a(vector9.o)
 .reginfo       0x00000000       0x18 c:/program files/microchip/xc32/v2.50/bin/bin/../../lib/gcc/pic32mx/4.8.3/../../../../pic32mx/lib\libpic32.a(vector9.o)
 .text          0x00000000        0x0 c:/program files/microchip/xc32/v2.50/bin/bin/../../lib/gcc/pic32mx/4.8.3/../../../../pic32mx/lib\libpic32.a(vector10.o)
 .data          0x00000000        0x0 c:/program files/microchip/xc32/v2.50/bin/bin/../../lib/gcc/pic32mx/4.8.3/../../../../pic32mx/lib\libpic32.a(vector10.o)
 .bss           0x00000000        0x0 c:/program files/microchip/xc32/v2.50/bin/bin/../../lib/gcc/pic32mx/4.8.3/../../../../pic32mx/lib\libpic32.a(vector10.o)
 .reginfo       0x00000000       0x18 c:/program files/microchip/xc32/v2.50/bin/bin/../../lib/gcc/pic32mx/4.8.3/../../../../pic32mx/lib\libpic32.a(vector10.o)
 .text          0x00000000        0x0 c:/program files/microchip/xc32/v2.50/bin/bin/../../lib/gcc/pic32mx/4.8.3/../../../../pic32mx/lib\libpic32.a(vector11.o)
 .data          0x00000000        0x0 c:/program files/microchip/xc32/v2.50/bin/bin/../../lib/gcc/pic32mx/4.8.3/../../../../pic32mx/lib\libpic32.a(vector11.o)
 .bss           0x00000000        0x0 c:/program files/microchip/xc32/v2.50/bin/bin/../../lib/gcc/pic32mx/4.8.3/../../../../pic32mx/lib\libpic32.a(vector11.o)
 .reginfo       0x00000000       0x18 c:/program files/microchip/xc32/v2.50/bin/bin/../../lib/gcc/pic32mx/4.8.3/../../../../pic32mx/lib\libpic32.a(vector11.o)
 .text          0x00000000        0x0 c:/program files/microchip/xc32/v2.50/bin/bin/../../lib/gcc/pic32mx/4.8.3/../../../../pic32mx/lib\libpic32.a(vector12.o)
 .data          0x00000000        0x0 c:/program files/microchip/xc32/v2.50/bin/bin/../../lib/gcc/pic32mx/4.8.3/../../../../pic32mx/lib\libpic32.a(vector12.o)
 .bss           0x00000000        0x0 c:/program files/microchip/xc32/v2.50/bin/bin/../../lib/gcc/pic32mx/4.8.3/../../../../pic32mx/lib\libpic32.a(vector12.o)
 .reginfo       0x00000000       0x18 c:/program files/microchip/xc32/v2.50/bin/bin/../../lib/gcc/pic32mx/4.8.3/../../../../pic32mx/lib\libpic32.a(vector12.o)
 .text          0x00000000        0x0 c:/program files/microchip/xc32/v2.50/bin/bin/../../lib/gcc/pic32mx/4.8.3/../../../../pic32mx/lib\libpic32.a(vector13.o)
 .data          0x00000000        0x0 c:/program files/microchip/xc32/v2.50/bin/bin/../../lib/gcc/pic32mx/4.8.3/../../../../pic32mx/lib\libpic32.a(vector13.o)
 .bss           0x00000000        0x0 c:/program files/microchip/xc32/v2.50/bin/bin/../../lib/gcc/pic32mx/4.8.3/../../../../pic32mx/lib\libpic32.a(vector13.o)
 .reginfo       0x00000000       0x18 c:/program files/microchip/xc32/v2.50/bin/bin/../../lib/gcc/pic32mx/4.8.3/../../../../pic32mx/lib\libpic32.a(vector13.o)
 .text          0x00000000        0x0 c:/program files/microchip/xc32/v2.50/bin/bin/../../lib/gcc/pic32mx/4.8.3/../../../../pic32mx/lib\libpic32.a(vector14.o)
 .data          0x00000000        0x0 c:/program files/microchip/xc32/v2.50/bin/bin/../../lib/gcc/pic32mx/4.8.3/../../../../pic32mx/lib\libpic32.a(vector14.o)
 .bss           0x00000000        0x0 c:/program files/microchip/xc32/v2.50/bin/bin/../../lib/gcc/pic32mx/4.8.3/../../../../pic32mx/lib\libpic32.a(vector14.o)
 .reginfo       0x00000000       0x18 c:/program files/microchip/xc32/v2.50/bin/bin/../../lib/gcc/pic32mx/4.8.3/../../../../pic32mx/lib\libpic32.a(vector14.o)
 .text          0x00000000        0x0 c:/program files/microchip/xc32/v2.50/bin/bin/../../lib/gcc/pic32mx/4.8.3/../../../../pic32mx/lib\libpic32.a(vector15.o)
 .data          0x00000000        0x0 c:/program files/microchip/xc32/v2.50/bin/bin/../../lib/gcc/pic32mx/4.8.3/../../../../pic32mx/lib\libpic32.a(vector15.o)
 .bss           0x00000000        0x0 c:/program files/microchip/xc32/v2.50/bin/bin/../../lib/gcc/pic32mx/4.8.3/../../../../pic32mx/lib\libpic32.a(vector15.o)
 .reginfo       0x00000000       0x18 c:/program files/microchip/xc32/v2.50/bin/bin/../../lib/gcc/pic32mx/4.8.3/../../../../pic32mx/lib\libpic32.a(vector15.o)
 .text          0x00000000        0x0 c:/program files/microchip/xc32/v2.50/bin/bin/../../lib/gcc/pic32mx/4.8.3/../../../../pic32mx/lib\libpic32.a(vector16.o)
 .data          0x00000000        0x0 c:/program files/microchip/xc32/v2.50/bin/bin/../../lib/gcc/pic32mx/4.8.3/../../../../pic32mx/lib\libpic32.a(vector16.o)
 .bss           0x00000000        0x0 c:/program files/microchip/xc32/v2.50/bin/bin/../../lib/gcc/pic32mx/4.8.3/../../../../pic32mx/lib\libpic32.a(vector16.o)
 .reginfo       0x00000000       0x18 c:/program files/microchip/xc32/v2.50/bin/bin/../../lib/gcc/pic32mx/4.8.3/../../../../pic32mx/lib\libpic32.a(vector16.o)
 .text          0x00000000        0x0 c:/program files/microchip/xc32/v2.50/bin/bin/../../lib/gcc/pic32mx/4.8.3/../../../../pic32mx/lib\libpic32.a(vector17.o)
 .data          0x00000000        0x0 c:/program files/microchip/xc32/v2.50/bin/bin/../../lib/gcc/pic32mx/4.8.3/../../../../pic32mx/lib\libpic32.a(vector17.o)
 .bss           0x00000000        0x0 c:/program files/microchip/xc32/v2.50/bin/bin/../../lib/gcc/pic32mx/4.8.3/../../../../pic32mx/lib\libpic32.a(vector17.o)
 .reginfo       0x00000000       0x18 c:/program files/microchip/xc32/v2.50/bin/bin/../../lib/gcc/pic32mx/4.8.3/../../../../pic32mx/lib\libpic32.a(vector17.o)
 .text          0x00000000        0x0 c:/program files/microchip/xc32/v2.50/bin/bin/../../lib/gcc/pic32mx/4.8.3/../../../../pic32mx/lib\libpic32.a(vector18.o)
 .data          0x00000000        0x0 c:/program files/microchip/xc32/v2.50/bin/bin/../../lib/gcc/pic32mx/4.8.3/../../../../pic32mx/lib\libpic32.a(vector18.o)
 .bss           0x00000000        0x0 c:/program files/microchip/xc32/v2.50/bin/bin/../../lib/gcc/pic32mx/4.8.3/../../../../pic32mx/lib\libpic32.a(vector18.o)
 .reginfo       0x00000000       0x18 c:/program files/microchip/xc32/v2.50/bin/bin/../../lib/gcc/pic32mx/4.8.3/../../../../pic32mx/lib\libpic32.a(vector18.o)
 .text          0x00000000        0x0 c:/program files/microchip/xc32/v2.50/bin/bin/../../lib/gcc/pic32mx/4.8.3/../../../../pic32mx/lib\libpic32.a(vector19.o)
 .data          0x00000000        0x0 c:/program files/microchip/xc32/v2.50/bin/bin/../../lib/gcc/pic32mx/4.8.3/../../../../pic32mx/lib\libpic32.a(vector19.o)
 .bss           0x00000000        0x0 c:/program files/microchip/xc32/v2.50/bin/bin/../../lib/gcc/pic32mx/4.8.3/../../../../pic32mx/lib\libpic32.a(vector19.o)
 .reginfo       0x00000000       0x18 c:/program files/microchip/xc32/v2.50/bin/bin/../../lib/gcc/pic32mx/4.8.3/../../../../pic32mx/lib\libpic32.a(vector19.o)
 .text          0x00000000        0x0 c:/program files/microchip/xc32/v2.50/bin/bin/../../lib/gcc/pic32mx/4.8.3/../../../../pic32mx/lib\libpic32.a(vector20.o)
 .data          0x00000000        0x0 c:/program files/microchip/xc32/v2.50/bin/bin/../../lib/gcc/pic32mx/4.8.3/../../../../pic32mx/lib\libpic32.a(vector20.o)
 .bss           0x00000000        0x0 c:/program files/microchip/xc32/v2.50/bin/bin/../../lib/gcc/pic32mx/4.8.3/../../../../pic32mx/lib\libpic32.a(vector20.o)
 .reginfo       0x00000000       0x18 c:/program files/microchip/xc32/v2.50/bin/bin/../../lib/gcc/pic32mx/4.8.3/../../../../pic32mx/lib\libpic32.a(vector20.o)
 .text          0x00000000        0x0 c:/program files/microchip/xc32/v2.50/bin/bin/../../lib/gcc/pic32mx/4.8.3/../../../../pic32mx/lib\libpic32.a(vector21.o)
 .data          0x00000000        0x0 c:/program files/microchip/xc32/v2.50/bin/bin/../../lib/gcc/pic32mx/4.8.3/../../../../pic32mx/lib\libpic32.a(vector21.o)
 .bss           0x00000000        0x0 c:/program files/microchip/xc32/v2.50/bin/bin/../../lib/gcc/pic32mx/4.8.3/../../../../pic32mx/lib\libpic32.a(vector21.o)
 .reginfo       0x00000000       0x18 c:/program files/microchip/xc32/v2.50/bin/bin/../../lib/gcc/pic32mx/4.8.3/../../../../pic32mx/lib\libpic32.a(vector21.o)
 .text          0x00000000        0x0 c:/program files/microchip/xc32/v2.50/bin/bin/../../lib/gcc/pic32mx/4.8.3/../../../../pic32mx/lib\libpic32.a(vector22.o)
 .data          0x00000000        0x0 c:/program files/microchip/xc32/v2.50/bin/bin/../../lib/gcc/pic32mx/4.8.3/../../../../pic32mx/lib\libpic32.a(vector22.o)
 .bss           0x00000000        0x0 c:/program files/microchip/xc32/v2.50/bin/bin/../../lib/gcc/pic32mx/4.8.3/../../../../pic32mx/lib\libpic32.a(vector22.o)
 .reginfo       0x00000000       0x18 c:/program files/microchip/xc32/v2.50/bin/bin/../../lib/gcc/pic32mx/4.8.3/../../../../pic32mx/lib\libpic32.a(vector22.o)
 .text          0x00000000        0x0 c:/program files/microchip/xc32/v2.50/bin/bin/../../lib/gcc/pic32mx/4.8.3/../../../../pic32mx/lib\libpic32.a(vector23.o)
 .data          0x00000000        0x0 c:/program files/microchip/xc32/v2.50/bin/bin/../../lib/gcc/pic32mx/4.8.3/../../../../pic32mx/lib\libpic32.a(vector23.o)
 .bss           0x00000000        0x0 c:/program files/microchip/xc32/v2.50/bin/bin/../../lib/gcc/pic32mx/4.8.3/../../../../pic32mx/lib\libpic32.a(vector23.o)
 .reginfo       0x00000000       0x18 c:/program files/microchip/xc32/v2.50/bin/bin/../../lib/gcc/pic32mx/4.8.3/../../../../pic32mx/lib\libpic32.a(vector23.o)
 .text          0x00000000        0x0 c:/program files/microchip/xc32/v2.50/bin/bin/../../lib/gcc/pic32mx/4.8.3/../../../../pic32mx/lib\libpic32.a(vector24.o)
 .data          0x00000000        0x0 c:/program files/microchip/xc32/v2.50/bin/bin/../../lib/gcc/pic32mx/4.8.3/../../../../pic32mx/lib\libpic32.a(vector24.o)
 .bss           0x00000000        0x0 c:/program files/microchip/xc32/v2.50/bin/bin/../../lib/gcc/pic32mx/4.8.3/../../../../pic32mx/lib\libpic32.a(vector24.o)
 .reginfo       0x00000000       0x18 c:/program files/microchip/xc32/v2.50/bin/bin/../../lib/gcc/pic32mx/4.8.3/../../../../pic32mx/lib\libpic32.a(vector24.o)
 .text          0x00000000        0x0 c:/program files/microchip/xc32/v2.50/bin/bin/../../lib/gcc/pic32mx/4.8.3/../../../../pic32mx/lib\libpic32.a(vector25.o)
 .data          0x00000000        0x0 c:/program files/microchip/xc32/v2.50/bin/bin/../../lib/gcc/pic32mx/4.8.3/../../../../pic32mx/lib\libpic32.a(vector25.o)
 .bss           0x00000000        0x0 c:/program files/microchip/xc32/v2.50/bin/bin/../../lib/gcc/pic32mx/4.8.3/../../../../pic32mx/lib\libpic32.a(vector25.o)
 .reginfo       0x00000000       0x18 c:/program files/microchip/xc32/v2.50/bin/bin/../../lib/gcc/pic32mx/4.8.3/../../../../pic32mx/lib\libpic32.a(vector25.o)
 .text          0x00000000        0x0 c:/program files/microchip/xc32/v2.50/bin/bin/../../lib/gcc/pic32mx/4.8.3/../../../../pic32mx/lib\libpic32.a(vector26.o)
 .data          0x00000000        0x0 c:/program files/microchip/xc32/v2.50/bin/bin/../../lib/gcc/pic32mx/4.8.3/../../../../pic32mx/lib\libpic32.a(vector26.o)
 .bss           0x00000000        0x0 c:/program files/microchip/xc32/v2.50/bin/bin/../../lib/gcc/pic32mx/4.8.3/../../../../pic32mx/lib\libpic32.a(vector26.o)
 .reginfo       0x00000000       0x18 c:/program files/microchip/xc32/v2.50/bin/bin/../../lib/gcc/pic32mx/4.8.3/../../../../pic32mx/lib\libpic32.a(vector26.o)
 .text          0x00000000        0x0 c:/program files/microchip/xc32/v2.50/bin/bin/../../lib/gcc/pic32mx/4.8.3/../../../../pic32mx/lib\libpic32.a(vector27.o)
 .data          0x00000000        0x0 c:/program files/microchip/xc32/v2.50/bin/bin/../../lib/gcc/pic32mx/4.8.3/../../../../pic32mx/lib\libpic32.a(vector27.o)
 .bss           0x00000000        0x0 c:/program files/microchip/xc32/v2.50/bin/bin/../../lib/gcc/pic32mx/4.8.3/../../../../pic32mx/lib\libpic32.a(vector27.o)
 .reginfo       0x00000000       0x18 c:/program files/microchip/xc32/v2.50/bin/bin/../../lib/gcc/pic32mx/4.8.3/../../../../pic32mx/lib\libpic32.a(vector27.o)
 .text          0x00000000        0x0 c:/program files/microchip/xc32/v2.50/bin/bin/../../lib/gcc/pic32mx/4.8.3/../../../../pic32mx/lib\libpic32.a(vector28.o)
 .data          0x00000000        0x0 c:/program files/microchip/xc32/v2.50/bin/bin/../../lib/gcc/pic32mx/4.8.3/../../../../pic32mx/lib\libpic32.a(vector28.o)
 .bss           0x00000000        0x0 c:/program files/microchip/xc32/v2.50/bin/bin/../../lib/gcc/pic32mx/4.8.3/../../../../pic32mx/lib\libpic32.a(vector28.o)
 .reginfo       0x00000000       0x18 c:/program files/microchip/xc32/v2.50/bin/bin/../../lib/gcc/pic32mx/4.8.3/../../../../pic32mx/lib\libpic32.a(vector28.o)
 .text          0x00000000        0x0 c:/program files/microchip/xc32/v2.50/bin/bin/../../lib/gcc/pic32mx/4.8.3/../../../../pic32mx/lib\libpic32.a(vector29.o)
 .data          0x00000000        0x0 c:/program files/microchip/xc32/v2.50/bin/bin/../../lib/gcc/pic32mx/4.8.3/../../../../pic32mx/lib\libpic32.a(vector29.o)
 .bss           0x00000000        0x0 c:/program files/microchip/xc32/v2.50/bin/bin/../../lib/gcc/pic32mx/4.8.3/../../../../pic32mx/lib\libpic32.a(vector29.o)
 .reginfo       0x00000000       0x18 c:/program files/microchip/xc32/v2.50/bin/bin/../../lib/gcc/pic32mx/4.8.3/../../../../pic32mx/lib\libpic32.a(vector29.o)
 .text          0x00000000        0x0 c:/program files/microchip/xc32/v2.50/bin/bin/../../lib/gcc/pic32mx/4.8.3/../../../../pic32mx/lib\libpic32.a(vector30.o)
 .data          0x00000000        0x0 c:/program files/microchip/xc32/v2.50/bin/bin/../../lib/gcc/pic32mx/4.8.3/../../../../pic32mx/lib\libpic32.a(vector30.o)
 .bss           0x00000000        0x0 c:/program files/microchip/xc32/v2.50/bin/bin/../../lib/gcc/pic32mx/4.8.3/../../../../pic32mx/lib\libpic32.a(vector30.o)
 .reginfo       0x00000000       0x18 c:/program files/microchip/xc32/v2.50/bin/bin/../../lib/gcc/pic32mx/4.8.3/../../../../pic32mx/lib\libpic32.a(vector30.o)
 .text          0x00000000        0x0 c:/program files/microchip/xc32/v2.50/bin/bin/../../lib/gcc/pic32mx/4.8.3/../../../../pic32mx/lib\libpic32.a(vector31.o)
 .data          0x00000000        0x0 c:/program files/microchip/xc32/v2.50/bin/bin/../../lib/gcc/pic32mx/4.8.3/../../../../pic32mx/lib\libpic32.a(vector31.o)
 .bss           0x00000000        0x0 c:/program files/microchip/xc32/v2.50/bin/bin/../../lib/gcc/pic32mx/4.8.3/../../../../pic32mx/lib\libpic32.a(vector31.o)
 .reginfo       0x00000000       0x18 c:/program files/microchip/xc32/v2.50/bin/bin/../../lib/gcc/pic32mx/4.8.3/../../../../pic32mx/lib\libpic32.a(vector31.o)
 .text          0x00000000        0x0 c:/program files/microchip/xc32/v2.50/bin/bin/../../lib/gcc/pic32mx/4.8.3/../../../../pic32mx/lib\libpic32.a(vector32.o)
 .data          0x00000000        0x0 c:/program files/microchip/xc32/v2.50/bin/bin/../../lib/gcc/pic32mx/4.8.3/../../../../pic32mx/lib\libpic32.a(vector32.o)
 .bss           0x00000000        0x0 c:/program files/microchip/xc32/v2.50/bin/bin/../../lib/gcc/pic32mx/4.8.3/../../../../pic32mx/lib\libpic32.a(vector32.o)
 .reginfo       0x00000000       0x18 c:/program files/microchip/xc32/v2.50/bin/bin/../../lib/gcc/pic32mx/4.8.3/../../../../pic32mx/lib\libpic32.a(vector32.o)
 .text          0x00000000        0x0 c:/program files/microchip/xc32/v2.50/bin/bin/../../lib/gcc/pic32mx/4.8.3/../../../../pic32mx/lib\libpic32.a(vector33.o)
 .data          0x00000000        0x0 c:/program files/microchip/xc32/v2.50/bin/bin/../../lib/gcc/pic32mx/4.8.3/../../../../pic32mx/lib\libpic32.a(vector33.o)
 .bss           0x00000000        0x0 c:/program files/microchip/xc32/v2.50/bin/bin/../../lib/gcc/pic32mx/4.8.3/../../../../pic32mx/lib\libpic32.a(vector33.o)
 .reginfo       0x00000000       0x18 c:/program files/microchip/xc32/v2.50/bin/bin/../../lib/gcc/pic32mx/4.8.3/../../../../pic32mx/lib\libpic32.a(vector33.o)
 .text          0x00000000        0x0 c:/program files/microchip/xc32/v2.50/bin/bin/../../lib/gcc/pic32mx/4.8.3/../../../../pic32mx/lib\libpic32.a(vector34.o)
 .data          0x00000000        0x0 c:/program files/microchip/xc32/v2.50/bin/bin/../../lib/gcc/pic32mx/4.8.3/../../../../pic32mx/lib\libpic32.a(vector34.o)
 .bss           0x00000000        0x0 c:/program files/microchip/xc32/v2.50/bin/bin/../../lib/gcc/pic32mx/4.8.3/../../../../pic32mx/lib\libpic32.a(vector34.o)
 .reginfo       0x00000000       0x18 c:/program files/microchip/xc32/v2.50/bin/bin/../../lib/gcc/pic32mx/4.8.3/../../../../pic32mx/lib\libpic32.a(vector34.o)
 .text          0x00000000        0x0 c:/program files/microchip/xc32/v2.50/bin/bin/../../lib/gcc/pic32mx/4.8.3/../../../../pic32mx/lib\libpic32.a(vector35.o)
 .data          0x00000000        0x0 c:/program files/microchip/xc32/v2.50/bin/bin/../../lib/gcc/pic32mx/4.8.3/../../../../pic32mx/lib\libpic32.a(vector35.o)
 .bss           0x00000000        0x0 c:/program files/microchip/xc32/v2.50/bin/bin/../../lib/gcc/pic32mx/4.8.3/../../../../pic32mx/lib\libpic32.a(vector35.o)
 .reginfo       0x00000000       0x18 c:/program files/microchip/xc32/v2.50/bin/bin/../../lib/gcc/pic32mx/4.8.3/../../../../pic32mx/lib\libpic32.a(vector35.o)
 .text          0x00000000        0x0 c:/program files/microchip/xc32/v2.50/bin/bin/../../lib/gcc/pic32mx/4.8.3/../../../../pic32mx/lib\libpic32.a(vector36.o)
 .data          0x00000000        0x0 c:/program files/microchip/xc32/v2.50/bin/bin/../../lib/gcc/pic32mx/4.8.3/../../../../pic32mx/lib\libpic32.a(vector36.o)
 .bss           0x00000000        0x0 c:/program files/microchip/xc32/v2.50/bin/bin/../../lib/gcc/pic32mx/4.8.3/../../../../pic32mx/lib\libpic32.a(vector36.o)
 .reginfo       0x00000000       0x18 c:/program files/microchip/xc32/v2.50/bin/bin/../../lib/gcc/pic32mx/4.8.3/../../../../pic32mx/lib\libpic32.a(vector36.o)
 .text          0x00000000        0x0 c:/program files/microchip/xc32/v2.50/bin/bin/../../lib/gcc/pic32mx/4.8.3/../../../../pic32mx/lib\libpic32.a(vector37.o)
 .data          0x00000000        0x0 c:/program files/microchip/xc32/v2.50/bin/bin/../../lib/gcc/pic32mx/4.8.3/../../../../pic32mx/lib\libpic32.a(vector37.o)
 .bss           0x00000000        0x0 c:/program files/microchip/xc32/v2.50/bin/bin/../../lib/gcc/pic32mx/4.8.3/../../../../pic32mx/lib\libpic32.a(vector37.o)
 .reginfo       0x00000000       0x18 c:/program files/microchip/xc32/v2.50/bin/bin/../../lib/gcc/pic32mx/4.8.3/../../../../pic32mx/lib\libpic32.a(vector37.o)
 .text          0x00000000        0x0 c:/program files/microchip/xc32/v2.50/bin/bin/../../lib/gcc/pic32mx/4.8.3/../../../../pic32mx/lib\libpic32.a(vector38.o)
 .data          0x00000000        0x0 c:/program files/microchip/xc32/v2.50/bin/bin/../../lib/gcc/pic32mx/4.8.3/../../../../pic32mx/lib\libpic32.a(vector38.o)
 .bss           0x00000000        0x0 c:/program files/microchip/xc32/v2.50/bin/bin/../../lib/gcc/pic32mx/4.8.3/../../../../pic32mx/lib\libpic32.a(vector38.o)
 .reginfo       0x00000000       0x18 c:/program files/microchip/xc32/v2.50/bin/bin/../../lib/gcc/pic32mx/4.8.3/../../../../pic32mx/lib\libpic32.a(vector38.o)
 .text          0x00000000        0x0 c:/program files/microchip/xc32/v2.50/bin/bin/../../lib/gcc/pic32mx/4.8.3/../../../../pic32mx/lib\libpic32.a(vector39.o)
 .data          0x00000000        0x0 c:/program files/microchip/xc32/v2.50/bin/bin/../../lib/gcc/pic32mx/4.8.3/../../../../pic32mx/lib\libpic32.a(vector39.o)
 .bss           0x00000000        0x0 c:/program files/microchip/xc32/v2.50/bin/bin/../../lib/gcc/pic32mx/4.8.3/../../../../pic32mx/lib\libpic32.a(vector39.o)
 .reginfo       0x00000000       0x18 c:/program files/microchip/xc32/v2.50/bin/bin/../../lib/gcc/pic32mx/4.8.3/../../../../pic32mx/lib\libpic32.a(vector39.o)
 .text          0x00000000        0x0 c:/program files/microchip/xc32/v2.50/bin/bin/../../lib/gcc/pic32mx/4.8.3/../../../../pic32mx/lib\libpic32.a(vector40.o)
 .data          0x00000000        0x0 c:/program files/microchip/xc32/v2.50/bin/bin/../../lib/gcc/pic32mx/4.8.3/../../../../pic32mx/lib\libpic32.a(vector40.o)
 .bss           0x00000000        0x0 c:/program files/microchip/xc32/v2.50/bin/bin/../../lib/gcc/pic32mx/4.8.3/../../../../pic32mx/lib\libpic32.a(vector40.o)
 .reginfo       0x00000000       0x18 c:/program files/microchip/xc32/v2.50/bin/bin/../../lib/gcc/pic32mx/4.8.3/../../../../pic32mx/lib\libpic32.a(vector40.o)
 .text          0x00000000        0x0 c:/program files/microchip/xc32/v2.50/bin/bin/../../lib/gcc/pic32mx/4.8.3/../../../../pic32mx/lib\libpic32.a(vector41.o)
 .data          0x00000000        0x0 c:/program files/microchip/xc32/v2.50/bin/bin/../../lib/gcc/pic32mx/4.8.3/../../../../pic32mx/lib\libpic32.a(vector41.o)
 .bss           0x00000000        0x0 c:/program files/microchip/xc32/v2.50/bin/bin/../../lib/gcc/pic32mx/4.8.3/../../../../pic32mx/lib\libpic32.a(vector41.o)
 .reginfo       0x00000000       0x18 c:/program files/microchip/xc32/v2.50/bin/bin/../../lib/gcc/pic32mx/4.8.3/../../../../pic32mx/lib\libpic32.a(vector41.o)
 .text          0x00000000        0x0 c:/program files/microchip/xc32/v2.50/bin/bin/../../lib/gcc/pic32mx/4.8.3/../../../../pic32mx/lib\libpic32.a(vector42.o)
 .data          0x00000000        0x0 c:/program files/microchip/xc32/v2.50/bin/bin/../../lib/gcc/pic32mx/4.8.3/../../../../pic32mx/lib\libpic32.a(vector42.o)
 .bss           0x00000000        0x0 c:/program files/microchip/xc32/v2.50/bin/bin/../../lib/gcc/pic32mx/4.8.3/../../../../pic32mx/lib\libpic32.a(vector42.o)
 .reginfo       0x00000000       0x18 c:/program files/microchip/xc32/v2.50/bin/bin/../../lib/gcc/pic32mx/4.8.3/../../../../pic32mx/lib\libpic32.a(vector42.o)
 .text          0x00000000        0x0 c:/program files/microchip/xc32/v2.50/bin/bin/../../lib/gcc/pic32mx/4.8.3/../../../../pic32mx/lib\libpic32.a(vector43.o)
 .data          0x00000000        0x0 c:/program files/microchip/xc32/v2.50/bin/bin/../../lib/gcc/pic32mx/4.8.3/../../../../pic32mx/lib\libpic32.a(vector43.o)
 .bss           0x00000000        0x0 c:/program files/microchip/xc32/v2.50/bin/bin/../../lib/gcc/pic32mx/4.8.3/../../../../pic32mx/lib\libpic32.a(vector43.o)
 .reginfo       0x00000000       0x18 c:/program files/microchip/xc32/v2.50/bin/bin/../../lib/gcc/pic32mx/4.8.3/../../../../pic32mx/lib\libpic32.a(vector43.o)
 .text          0x00000000        0x0 c:/program files/microchip/xc32/v2.50/bin/bin/../../lib/gcc/pic32mx/4.8.3/../../../../pic32mx/lib\libpic32.a(defaultinterrupt.o)
 .data          0x00000000        0x0 c:/program files/microchip/xc32/v2.50/bin/bin/../../lib/gcc/pic32mx/4.8.3/../../../../pic32mx/lib\libpic32.a(defaultinterrupt.o)
 .bss           0x00000000        0x0 c:/program files/microchip/xc32/v2.50/bin/bin/../../lib/gcc/pic32mx/4.8.3/../../../../pic32mx/lib\libpic32.a(defaultinterrupt.o)
 .reginfo       0x00000000       0x18 c:/program files/microchip/xc32/v2.50/bin/bin/../../lib/gcc/pic32mx/4.8.3/../../../../pic32mx/lib\libpic32.a(defaultinterrupt.o)

Memory Configuration

Name             Origin             Length             Attributes
kseg0_program_mem 0x9d000000         0x0000f000         xr
exception_mem    0x9d00f000         0x00001000
debug_exec_mem   0x9fc00490         0x00000760
kseg0_boot_mem   0x9fc00490         0x00000000
kseg1_boot_mem   0xbfc00000         0x00000490
config3          0xbfc00bf0         0x00000004
config2          0xbfc00bf4         0x00000004
config1          0xbfc00bf8         0x00000004
config0          0xbfc00bfc         0x00000004
kseg1_data_mem   0xa0000000         0x00004000         w !x
sfrs             0xbf800000         0x00100000
configsfrs       0xbfc00bf0         0x00000010
*default*        0x00000000         0xffffffff

Linker script and memory map

LOAD c:/program files/microchip/xc32/v2.50/bin/bin/../../lib/gcc/pic32mx/4.8.3/../../../../pic32mx/lib\debug-exception-return.o
LOAD build/default/production/_ext/1360937237/app.o
LOAD build/default/production/_ext/1360937237/main.o
LOAD build/default/production/_ext/1872847683/sys_int_pic32.o
LOAD build/default/production/_ext/639803181/sys_clk_pic32mx.o
LOAD build/default/production/_ext/340578644/sys_devcon.o
LOAD build/default/production/_ext/340578644/sys_devcon_pic32mx.o
LOAD build/default/production/_ext/822048611/sys_ports_static.o
LOAD build/default/production/_ext/1688732426/system_init.o
LOAD build/default/production/_ext/1688732426/system_interrupt.o
LOAD build/default/production/_ext/1688732426/system_exceptions.o
LOAD build/default/production/_ext/1688732426/system_tasks.o
LOAD ..\..\..\..\..\..\..\..\microchip\harmony\v2_06\bin\framework\peripheral\PIC32MX130F064B_peripherals.a
                0x00000001                __MPLAB_BUILD = 0x1
                0x00000000                _min_heap_size = 0x0
LOAD C:\Users\MIGSAN~1\AppData\Local\Temp\ccqKeKlV.o
LOAD C:\Users\MIGSAN~1\AppData\Local\Temp\cclT3o7d.o
LOAD C:\Users\MIGSAN~1\AppData\Local\Temp\ccowi2wX.o
LOAD c:/program files/microchip/xc32/v2.50/bin/bin/../../lib/gcc/pic32mx/4.8.3/../../../../pic32mx/lib\pic32_software_reset.o
                0x00000400                PROVIDE (_min_stack_size, 0x400)
START GROUP
LOAD c:/program files/microchip/xc32/v2.50/bin/bin/../../lib/gcc/pic32mx/4.8.3/../../../../pic32mx/lib/./proc/32MX130F064B\processor.o
END GROUP
START GROUP
LOAD libmchp_peripheral.a
END GROUP
START GROUP
LOAD libmchp_peripheral_32MX130F064B.a
END GROUP
                0x00000001                PROVIDE (_vector_spacing, 0x1)
                0x9d00f000                PROVIDE (_ebase_address, 0x9d00f000)
                0xbfc00000                _RESET_ADDR = 0xbfc00000
                0xbfc00380                _BEV_EXCPT_ADDR = 0xbfc00380
                0xbfc00480                _DBG_EXCPT_ADDR = 0xbfc00480
                0x9fc00490                _DBG_CODE_ADDR = 0x9fc00490
                0x00000760                _DBG_CODE_SIZE = 0x760
                0x9d00f180                _GEN_EXCPT_ADDR = (_ebase_address + 0x180)

.config_BFC00BF0
                0xbfc00bf0        0x4
 *(.config_BFC00BF0)
 .config_BFC00BF0
                0xbfc00bf0        0x4 build/default/production/_ext/1688732426/system_init.o

.config_BFC00BF4
                0xbfc00bf4        0x4
 *(.config_BFC00BF4)
 .config_BFC00BF4
                0xbfc00bf4        0x4 build/default/production/_ext/1688732426/system_init.o

.config_BFC00BF8
                0xbfc00bf8        0x4
 *(.config_BFC00BF8)
 .config_BFC00BF8
                0xbfc00bf8        0x4 build/default/production/_ext/1688732426/system_init.o

.config_BFC00BFC
                0xbfc00bfc        0x4
 *(.config_BFC00BFC)
 .config_BFC00BFC
                0xbfc00bfc        0x4 build/default/production/_ext/1688732426/system_init.o
                0xbfc02000                PROVIDE (_DBG_CODE_ADDR, 0xbfc02000)
                0x00000ff0                PROVIDE (_DBG_CODE_SIZE, 0xff0)

.reset          0xbfc00000      0x178
 *(.reset)
 .reset         0xbfc00000        0x8 C:\Users\MIGSAN~1\AppData\Local\Temp\ccqKeKlV.o
                0xbfc00000                _reset
 *(.reset.startup)
 .reset.startup
                0xbfc00008      0x170 C:\Users\MIGSAN~1\AppData\Local\Temp\ccqKeKlV.o
                0xbfc00008                _startup

.bev_excpt      0xbfc00380       0x10
 *(.bev_handler)
 .bev_handler   0xbfc00380       0x10 C:\Users\MIGSAN~1\AppData\Local\Temp\ccqKeKlV.o

.dbg_excpt      0xbfc00480        0x0
                0xbfc00480                . = (. + DEFINED (_DEBUGGER)?0x8:0x0)

.dbg_code       0x9fc00490        0x0
                0x9fc00490                . = (. + DEFINED (_DEBUGGER)?_DBG_CODE_SIZE:0x0)

.app_excpt      0x9d00f180       0x10
 *(.gen_handler)
 .gen_handler   0x9d00f180       0x10 C:\Users\MIGSAN~1\AppData\Local\Temp\ccqKeKlV.o

.vector_0       0x9d00f200        0x8
 *(.vector_0)
 .vector_0      0x9d00f200        0x8 c:/program files/microchip/xc32/v2.50/bin/bin/../../lib/gcc/pic32mx/4.8.3/../../../../pic32mx/lib\libpic32.a(vector0.o)
                0x9d00f200                __vector_dispatch_0
                0x00000001                ASSERT (((_vector_spacing == 0x0) || (SIZEOF (.vector_0) <= (_vector_spacing << 0x5))), function at exception vector 0 too large)

.vector_1       0x9d00f220        0x8
 *(.vector_1)
 .vector_1      0x9d00f220        0x8 c:/program files/microchip/xc32/v2.50/bin/bin/../../lib/gcc/pic32mx/4.8.3/../../../../pic32mx/lib\libpic32.a(vector1.o)
                0x9d00f220                __vector_dispatch_1
                0x00000001                ASSERT (((_vector_spacing == 0x0) || (SIZEOF (.vector_1) <= (_vector_spacing << 0x5))), function at exception vector 1 too large)

.vector_2       0x9d00f240        0x8
 *(.vector_2)
 .vector_2      0x9d00f240        0x8 c:/program files/microchip/xc32/v2.50/bin/bin/../../lib/gcc/pic32mx/4.8.3/../../../../pic32mx/lib\libpic32.a(vector2.o)
                0x9d00f240                __vector_dispatch_2
                0x00000001                ASSERT (((_vector_spacing == 0x0) || (SIZEOF (.vector_2) <= (_vector_spacing << 0x5))), function at exception vector 2 too large)

.vector_3       0x9d00f260        0x8
 *(.vector_3)
 .vector_3      0x9d00f260        0x8 c:/program files/microchip/xc32/v2.50/bin/bin/../../lib/gcc/pic32mx/4.8.3/../../../../pic32mx/lib\libpic32.a(vector3.o)
                0x9d00f260                __vector_dispatch_3
                0x00000001                ASSERT (((_vector_spacing == 0x0) || (SIZEOF (.vector_3) <= (_vector_spacing << 0x5))), function at exception vector 3 too large)

.vector_4       0x9d00f280        0x8
 *(.vector_4)
 .vector_4      0x9d00f280        0x8 c:/program files/microchip/xc32/v2.50/bin/bin/../../lib/gcc/pic32mx/4.8.3/../../../../pic32mx/lib\libpic32.a(vector4.o)
                0x9d00f280                __vector_dispatch_4
                0x00000001                ASSERT (((_vector_spacing == 0x0) || (SIZEOF (.vector_4) <= (_vector_spacing << 0x5))), function at exception vector 4 too large)

.vector_5       0x9d00f2a0        0x8
 *(.vector_5)
 .vector_5      0x9d00f2a0        0x8 c:/program files/microchip/xc32/v2.50/bin/bin/../../lib/gcc/pic32mx/4.8.3/../../../../pic32mx/lib\libpic32.a(vector5.o)
                0x9d00f2a0                __vector_dispatch_5
                0x00000001                ASSERT (((_vector_spacing == 0x0) || (SIZEOF (.vector_5) <= (_vector_spacing << 0x5))), function at exception vector 5 too large)

.vector_6       0x9d00f2c0        0x8
 *(.vector_6)
 .vector_6      0x9d00f2c0        0x8 c:/program files/microchip/xc32/v2.50/bin/bin/../../lib/gcc/pic32mx/4.8.3/../../../../pic32mx/lib\libpic32.a(vector6.o)
                0x9d00f2c0                __vector_dispatch_6
                0x00000001                ASSERT (((_vector_spacing == 0x0) || (SIZEOF (.vector_6) <= (_vector_spacing << 0x5))), function at exception vector 6 too large)

.vector_7       0x9d00f2e0        0x8
 *(.vector_7)
 .vector_7      0x9d00f2e0        0x8 c:/program files/microchip/xc32/v2.50/bin/bin/../../lib/gcc/pic32mx/4.8.3/../../../../pic32mx/lib\libpic32.a(vector7.o)
                0x9d00f2e0                __vector_dispatch_7
                0x00000001                ASSERT (((_vector_spacing == 0x0) || (SIZEOF (.vector_7) <= (_vector_spacing << 0x5))), function at exception vector 7 too large)

.vector_8       0x9d00f300        0x8
 *(.vector_8)
 .vector_8      0x9d00f300        0x8 c:/program files/microchip/xc32/v2.50/bin/bin/../../lib/gcc/pic32mx/4.8.3/../../../../pic32mx/lib\libpic32.a(vector8.o)
                0x9d00f300                __vector_dispatch_8
                0x00000001                ASSERT (((_vector_spacing == 0x0) || (SIZEOF (.vector_8) <= (_vector_spacing << 0x5))), function at exception vector 8 too large)

.vector_9       0x9d00f320        0x8
 *(.vector_9)
 .vector_9      0x9d00f320        0x8 c:/program files/microchip/xc32/v2.50/bin/bin/../../lib/gcc/pic32mx/4.8.3/../../../../pic32mx/lib\libpic32.a(vector9.o)
                0x9d00f320                __vector_dispatch_9
                0x00000001                ASSERT (((_vector_spacing == 0x0) || (SIZEOF (.vector_9) <= (_vector_spacing << 0x5))), function at exception vector 9 too large)

.vector_10      0x9d00f340        0x8
 *(.vector_10)
 .vector_10     0x9d00f340        0x8 c:/program files/microchip/xc32/v2.50/bin/bin/../../lib/gcc/pic32mx/4.8.3/../../../../pic32mx/lib\libpic32.a(vector10.o)
                0x9d00f340                __vector_dispatch_10
                0x00000001                ASSERT (((_vector_spacing == 0x0) || (SIZEOF (.vector_10) <= (_vector_spacing << 0x5))), function at exception vector 10 too large)

.vector_11      0x9d00f360        0x8
 *(.vector_11)
 .vector_11     0x9d00f360        0x8 c:/program files/microchip/xc32/v2.50/bin/bin/../../lib/gcc/pic32mx/4.8.3/../../../../pic32mx/lib\libpic32.a(vector11.o)
                0x9d00f360                __vector_dispatch_11
                0x00000001                ASSERT (((_vector_spacing == 0x0) || (SIZEOF (.vector_11) <= (_vector_spacing << 0x5))), function at exception vector 11 too large)

.vector_12      0x9d00f380        0x8
 *(.vector_12)
 .vector_12     0x9d00f380        0x8 c:/program files/microchip/xc32/v2.50/bin/bin/../../lib/gcc/pic32mx/4.8.3/../../../../pic32mx/lib\libpic32.a(vector12.o)
                0x9d00f380                __vector_dispatch_12
                0x00000001                ASSERT (((_vector_spacing == 0x0) || (SIZEOF (.vector_12) <= (_vector_spacing << 0x5))), function at exception vector 12 too large)

.vector_13      0x9d00f3a0        0x8
 *(.vector_13)
 .vector_13     0x9d00f3a0        0x8 c:/program files/microchip/xc32/v2.50/bin/bin/../../lib/gcc/pic32mx/4.8.3/../../../../pic32mx/lib\libpic32.a(vector13.o)
                0x9d00f3a0                __vector_dispatch_13
                0x00000001                ASSERT (((_vector_spacing == 0x0) || (SIZEOF (.vector_13) <= (_vector_spacing << 0x5))), function at exception vector 13 too large)

.vector_14      0x9d00f3c0        0x8
 *(.vector_14)
 .vector_14     0x9d00f3c0        0x8 c:/program files/microchip/xc32/v2.50/bin/bin/../../lib/gcc/pic32mx/4.8.3/../../../../pic32mx/lib\libpic32.a(vector14.o)
                0x9d00f3c0                __vector_dispatch_14
                0x00000001                ASSERT (((_vector_spacing == 0x0) || (SIZEOF (.vector_14) <= (_vector_spacing << 0x5))), function at exception vector 14 too large)

.vector_15      0x9d00f3e0        0x8
 *(.vector_15)
 .vector_15     0x9d00f3e0        0x8 c:/program files/microchip/xc32/v2.50/bin/bin/../../lib/gcc/pic32mx/4.8.3/../../../../pic32mx/lib\libpic32.a(vector15.o)
                0x9d00f3e0                __vector_dispatch_15
                0x00000001                ASSERT (((_vector_spacing == 0x0) || (SIZEOF (.vector_15) <= (_vector_spacing << 0x5))), function at exception vector 15 too large)

.vector_16      0x9d00f400        0x8
 *(.vector_16)
 .vector_16     0x9d00f400        0x8 c:/program files/microchip/xc32/v2.50/bin/bin/../../lib/gcc/pic32mx/4.8.3/../../../../pic32mx/lib\libpic32.a(vector16.o)
                0x9d00f400                __vector_dispatch_16
                0x00000001                ASSERT (((_vector_spacing == 0x0) || (SIZEOF (.vector_16) <= (_vector_spacing << 0x5))), function at exception vector 16 too large)

.vector_17      0x9d00f420        0x8
 *(.vector_17)
 .vector_17     0x9d00f420        0x8 c:/program files/microchip/xc32/v2.50/bin/bin/../../lib/gcc/pic32mx/4.8.3/../../../../pic32mx/lib\libpic32.a(vector17.o)
                0x9d00f420                __vector_dispatch_17
                0x00000001                ASSERT (((_vector_spacing == 0x0) || (SIZEOF (.vector_17) <= (_vector_spacing << 0x5))), function at exception vector 17 too large)

.vector_18      0x9d00f440        0x8
 *(.vector_18)
 .vector_18     0x9d00f440        0x8 c:/program files/microchip/xc32/v2.50/bin/bin/../../lib/gcc/pic32mx/4.8.3/../../../../pic32mx/lib\libpic32.a(vector18.o)
                0x9d00f440                __vector_dispatch_18
                0x00000001                ASSERT (((_vector_spacing == 0x0) || (SIZEOF (.vector_18) <= (_vector_spacing << 0x5))), function at exception vector 18 too large)

.vector_19      0x9d00f460        0x8
 *(.vector_19)
 .vector_19     0x9d00f460        0x8 c:/program files/microchip/xc32/v2.50/bin/bin/../../lib/gcc/pic32mx/4.8.3/../../../../pic32mx/lib\libpic32.a(vector19.o)
                0x9d00f460                __vector_dispatch_19
                0x00000001                ASSERT (((_vector_spacing == 0x0) || (SIZEOF (.vector_19) <= (_vector_spacing << 0x5))), function at exception vector 19 too large)

.vector_20      0x9d00f480        0x8
 *(.vector_20)
 .vector_20     0x9d00f480        0x8 c:/program files/microchip/xc32/v2.50/bin/bin/../../lib/gcc/pic32mx/4.8.3/../../../../pic32mx/lib\libpic32.a(vector20.o)
                0x9d00f480                __vector_dispatch_20
                0x00000001                ASSERT (((_vector_spacing == 0x0) || (SIZEOF (.vector_20) <= (_vector_spacing << 0x5))), function at exception vector 20 too large)

.vector_21      0x9d00f4a0        0x8
 *(.vector_21)
 .vector_21     0x9d00f4a0        0x8 c:/program files/microchip/xc32/v2.50/bin/bin/../../lib/gcc/pic32mx/4.8.3/../../../../pic32mx/lib\libpic32.a(vector21.o)
                0x9d00f4a0                __vector_dispatch_21
                0x00000001                ASSERT (((_vector_spacing == 0x0) || (SIZEOF (.vector_21) <= (_vector_spacing << 0x5))), function at exception vector 21 too large)

.vector_22      0x9d00f4c0        0x8
 *(.vector_22)
 .vector_22     0x9d00f4c0        0x8 c:/program files/microchip/xc32/v2.50/bin/bin/../../lib/gcc/pic32mx/4.8.3/../../../../pic32mx/lib\libpic32.a(vector22.o)
                0x9d00f4c0                __vector_dispatch_22
                0x00000001                ASSERT (((_vector_spacing == 0x0) || (SIZEOF (.vector_22) <= (_vector_spacing << 0x5))), function at exception vector 22 too large)

.vector_23      0x9d00f4e0        0x8
 *(.vector_23)
 .vector_23     0x9d00f4e0        0x8 c:/program files/microchip/xc32/v2.50/bin/bin/../../lib/gcc/pic32mx/4.8.3/../../../../pic32mx/lib\libpic32.a(vector23.o)
                0x9d00f4e0                __vector_dispatch_23
                0x00000001                ASSERT (((_vector_spacing == 0x0) || (SIZEOF (.vector_23) <= (_vector_spacing << 0x5))), function at exception vector 23 too large)

.vector_24      0x9d00f500        0x8
 *(.vector_24)
 .vector_24     0x9d00f500        0x8 c:/program files/microchip/xc32/v2.50/bin/bin/../../lib/gcc/pic32mx/4.8.3/../../../../pic32mx/lib\libpic32.a(vector24.o)
                0x9d00f500                __vector_dispatch_24
                0x00000001                ASSERT (((_vector_spacing == 0x0) || (SIZEOF (.vector_24) <= (_vector_spacing << 0x5))), function at exception vector 24 too large)

.vector_25      0x9d00f520        0x8
 *(.vector_25)
 .vector_25     0x9d00f520        0x8 c:/program files/microchip/xc32/v2.50/bin/bin/../../lib/gcc/pic32mx/4.8.3/../../../../pic32mx/lib\libpic32.a(vector25.o)
                0x9d00f520                __vector_dispatch_25
                0x00000001                ASSERT (((_vector_spacing == 0x0) || (SIZEOF (.vector_25) <= (_vector_spacing << 0x5))), function at exception vector 25 too large)

.vector_26      0x9d00f540        0x8
 *(.vector_26)
 .vector_26     0x9d00f540        0x8 c:/program files/microchip/xc32/v2.50/bin/bin/../../lib/gcc/pic32mx/4.8.3/../../../../pic32mx/lib\libpic32.a(vector26.o)
                0x9d00f540                __vector_dispatch_26
                0x00000001                ASSERT (((_vector_spacing == 0x0) || (SIZEOF (.vector_26) <= (_vector_spacing << 0x5))), function at exception vector 26 too large)

.vector_27      0x9d00f560        0x8
 *(.vector_27)
 .vector_27     0x9d00f560        0x8 c:/program files/microchip/xc32/v2.50/bin/bin/../../lib/gcc/pic32mx/4.8.3/../../../../pic32mx/lib\libpic32.a(vector27.o)
                0x9d00f560                __vector_dispatch_27
                0x00000001                ASSERT (((_vector_spacing == 0x0) || (SIZEOF (.vector_27) <= (_vector_spacing << 0x5))), function at exception vector 27 too large)

.vector_28      0x9d00f580        0x8
 *(.vector_28)
 .vector_28     0x9d00f580        0x8 c:/program files/microchip/xc32/v2.50/bin/bin/../../lib/gcc/pic32mx/4.8.3/../../../../pic32mx/lib\libpic32.a(vector28.o)
                0x9d00f580                __vector_dispatch_28
                0x00000001                ASSERT (((_vector_spacing == 0x0) || (SIZEOF (.vector_28) <= (_vector_spacing << 0x5))), function at exception vector 28 too large)

.vector_29      0x9d00f5a0        0x8
 *(.vector_29)
 .vector_29     0x9d00f5a0        0x8 c:/program files/microchip/xc32/v2.50/bin/bin/../../lib/gcc/pic32mx/4.8.3/../../../../pic32mx/lib\libpic32.a(vector29.o)
                0x9d00f5a0                __vector_dispatch_29
                0x00000001                ASSERT (((_vector_spacing == 0x0) || (SIZEOF (.vector_29) <= (_vector_spacing << 0x5))), function at exception vector 29 too large)

.vector_30      0x9d00f5c0        0x8
 *(.vector_30)
 .vector_30     0x9d00f5c0        0x8 c:/program files/microchip/xc32/v2.50/bin/bin/../../lib/gcc/pic32mx/4.8.3/../../../../pic32mx/lib\libpic32.a(vector30.o)
                0x9d00f5c0                __vector_dispatch_30
                0x00000001                ASSERT (((_vector_spacing == 0x0) || (SIZEOF (.vector_30) <= (_vector_spacing << 0x5))), function at exception vector 30 too large)

.vector_31      0x9d00f5e0        0x8
 *(.vector_31)
 .vector_31     0x9d00f5e0        0x8 c:/program files/microchip/xc32/v2.50/bin/bin/../../lib/gcc/pic32mx/4.8.3/../../../../pic32mx/lib\libpic32.a(vector31.o)
                0x9d00f5e0                __vector_dispatch_31
                0x00000001                ASSERT (((_vector_spacing == 0x0) || (SIZEOF (.vector_31) <= (_vector_spacing << 0x5))), function at exception vector 31 too large)

.vector_32      0x9d00f600        0x8
 *(.vector_32)
 .vector_32     0x9d00f600        0x8 c:/program files/microchip/xc32/v2.50/bin/bin/../../lib/gcc/pic32mx/4.8.3/../../../../pic32mx/lib\libpic32.a(vector32.o)
                0x9d00f600                __vector_dispatch_32
                0x00000001                ASSERT (((_vector_spacing == 0x0) || (SIZEOF (.vector_32) <= (_vector_spacing << 0x5))), function at exception vector 32 too large)

.vector_33      0x9d00f620        0x8
 *(.vector_33)
 .vector_33     0x9d00f620        0x8 c:/program files/microchip/xc32/v2.50/bin/bin/../../lib/gcc/pic32mx/4.8.3/../../../../pic32mx/lib\libpic32.a(vector33.o)
                0x9d00f620                __vector_dispatch_33
                0x00000001                ASSERT (((_vector_spacing == 0x0) || (SIZEOF (.vector_33) <= (_vector_spacing << 0x5))), function at exception vector 33 too large)

.vector_34      0x9d00f640        0x8
 *(.vector_34)
 .vector_34     0x9d00f640        0x8 c:/program files/microchip/xc32/v2.50/bin/bin/../../lib/gcc/pic32mx/4.8.3/../../../../pic32mx/lib\libpic32.a(vector34.o)
                0x9d00f640                __vector_dispatch_34
                0x00000001                ASSERT (((_vector_spacing == 0x0) || (SIZEOF (.vector_34) <= (_vector_spacing << 0x5))), function at exception vector 34 too large)

.vector_35      0x9d00f660        0x8
 *(.vector_35)
 .vector_35     0x9d00f660        0x8 c:/program files/microchip/xc32/v2.50/bin/bin/../../lib/gcc/pic32mx/4.8.3/../../../../pic32mx/lib\libpic32.a(vector35.o)
                0x9d00f660                __vector_dispatch_35
                0x00000001                ASSERT (((_vector_spacing == 0x0) || (SIZEOF (.vector_35) <= (_vector_spacing << 0x5))), function at exception vector 35 too large)

.vector_36      0x9d00f680        0x8
 *(.vector_36)
 .vector_36     0x9d00f680        0x8 c:/program files/microchip/xc32/v2.50/bin/bin/../../lib/gcc/pic32mx/4.8.3/../../../../pic32mx/lib\libpic32.a(vector36.o)
                0x9d00f680                __vector_dispatch_36
                0x00000001                ASSERT (((_vector_spacing == 0x0) || (SIZEOF (.vector_36) <= (_vector_spacing << 0x5))), function at exception vector 36 too large)

.vector_37      0x9d00f6a0        0x8
 *(.vector_37)
 .vector_37     0x9d00f6a0        0x8 c:/program files/microchip/xc32/v2.50/bin/bin/../../lib/gcc/pic32mx/4.8.3/../../../../pic32mx/lib\libpic32.a(vector37.o)
                0x9d00f6a0                __vector_dispatch_37
                0x00000001                ASSERT (((_vector_spacing == 0x0) || (SIZEOF (.vector_37) <= (_vector_spacing << 0x5))), function at exception vector 37 too large)

.vector_38      0x9d00f6c0        0x8
 *(.vector_38)
 .vector_38     0x9d00f6c0        0x8 c:/program files/microchip/xc32/v2.50/bin/bin/../../lib/gcc/pic32mx/4.8.3/../../../../pic32mx/lib\libpic32.a(vector38.o)
                0x9d00f6c0                __vector_dispatch_38
                0x00000001                ASSERT (((_vector_spacing == 0x0) || (SIZEOF (.vector_38) <= (_vector_spacing << 0x5))), function at exception vector 38 too large)

.vector_39      0x9d00f6e0        0x8
 *(.vector_39)
 .vector_39     0x9d00f6e0        0x8 c:/program files/microchip/xc32/v2.50/bin/bin/../../lib/gcc/pic32mx/4.8.3/../../../../pic32mx/lib\libpic32.a(vector39.o)
                0x9d00f6e0                __vector_dispatch_39
                0x00000001                ASSERT (((_vector_spacing == 0x0) || (SIZEOF (.vector_39) <= (_vector_spacing << 0x5))), function at exception vector 39 too large)

.vector_40      0x9d00f700        0x8
 *(.vector_40)
 .vector_40     0x9d00f700        0x8 c:/program files/microchip/xc32/v2.50/bin/bin/../../lib/gcc/pic32mx/4.8.3/../../../../pic32mx/lib\libpic32.a(vector40.o)
                0x9d00f700                __vector_dispatch_40
                0x00000001                ASSERT (((_vector_spacing == 0x0) || (SIZEOF (.vector_40) <= (_vector_spacing << 0x5))), function at exception vector 40 too large)

.vector_41      0x9d00f720        0x8
 *(.vector_41)
 .vector_41     0x9d00f720        0x8 c:/program files/microchip/xc32/v2.50/bin/bin/../../lib/gcc/pic32mx/4.8.3/../../../../pic32mx/lib\libpic32.a(vector41.o)
                0x9d00f720                __vector_dispatch_41
                0x00000001                ASSERT (((_vector_spacing == 0x0) || (SIZEOF (.vector_41) <= (_vector_spacing << 0x5))), function at exception vector 41 too large)

.vector_42      0x9d00f740        0x8
 *(.vector_42)
 .vector_42     0x9d00f740        0x8 c:/program files/microchip/xc32/v2.50/bin/bin/../../lib/gcc/pic32mx/4.8.3/../../../../pic32mx/lib\libpic32.a(vector42.o)
                0x9d00f740                __vector_dispatch_42
                0x00000001                ASSERT (((_vector_spacing == 0x0) || (SIZEOF (.vector_42) <= (_vector_spacing << 0x5))), function at exception vector 42 too large)

.vector_43      0x9d00f760        0x8
 *(.vector_43)
 .vector_43     0x9d00f760        0x8 c:/program files/microchip/xc32/v2.50/bin/bin/../../lib/gcc/pic32mx/4.8.3/../../../../pic32mx/lib\libpic32.a(vector43.o)
                0x9d00f760                __vector_dispatch_43
                0x00000001                ASSERT (((_vector_spacing == 0x0) || (SIZEOF (.vector_43) <= (_vector_spacing << 0x5))), function at exception vector 43 too large)

.vector_44      0x9d00f780        0x0
 *(.vector_44)
                0x00000001                ASSERT (((_vector_spacing == 0x0) || (SIZEOF (.vector_44) <= (_vector_spacing << 0x5))), function at exception vector 44 too large)

.vector_45      0x9d00f7a0        0x0
 *(.vector_45)
                0x00000001                ASSERT (((_vector_spacing == 0x0) || (SIZEOF (.vector_45) <= (_vector_spacing << 0x5))), function at exception vector 45 too large)

.vector_46      0x9d00f7c0        0x0
 *(.vector_46)
                0x00000001                ASSERT (((_vector_spacing == 0x0) || (SIZEOF (.vector_46) <= (_vector_spacing << 0x5))), function at exception vector 46 too large)

.vector_47      0x9d00f7e0        0x0
 *(.vector_47)
                0x00000001                ASSERT (((_vector_spacing == 0x0) || (SIZEOF (.vector_47) <= (_vector_spacing << 0x5))), function at exception vector 47 too large)

.vector_48      0x9d00f800        0x0
 *(.vector_48)
                0x00000001                ASSERT (((_vector_spacing == 0x0) || (SIZEOF (.vector_48) <= (_vector_spacing << 0x5))), function at exception vector 48 too large)

.vector_49      0x9d00f820        0x0
 *(.vector_49)
                0x00000001                ASSERT (((_vector_spacing == 0x0) || (SIZEOF (.vector_49) <= (_vector_spacing << 0x5))), function at exception vector 49 too large)

.vector_50      0x9d00f840        0x0
 *(.vector_50)
                0x00000001                ASSERT (((_vector_spacing == 0x0) || (SIZEOF (.vector_50) <= (_vector_spacing << 0x5))), function at exception vector 50 too large)

.vector_51      0x9d00f860        0x0
 *(.vector_51)
                0x00000001                ASSERT (((_vector_spacing == 0x0) || (SIZEOF (.vector_51) <= (_vector_spacing << 0x5))), function at exception vector 51 too large)

.vector_52      0x9d00f880        0x0
 *(.vector_52)
                0x00000001                ASSERT (((_vector_spacing == 0x0) || (SIZEOF (.vector_52) <= (_vector_spacing << 0x5))), function at exception vector 52 too large)

.vector_53      0x9d00f8a0        0x0
 *(.vector_53)
                0x00000001                ASSERT (((_vector_spacing == 0x0) || (SIZEOF (.vector_53) <= (_vector_spacing << 0x5))), function at exception vector 53 too large)

.vector_54      0x9d00f8c0        0x0
 *(.vector_54)
                0x00000001                ASSERT (((_vector_spacing == 0x0) || (SIZEOF (.vector_54) <= (_vector_spacing << 0x5))), function at exception vector 54 too large)

.vector_55      0x9d00f8e0        0x0
 *(.vector_55)
                0x00000001                ASSERT (((_vector_spacing == 0x0) || (SIZEOF (.vector_55) <= (_vector_spacing << 0x5))), function at exception vector 55 too large)

.vector_56      0x9d00f900        0x0
 *(.vector_56)
                0x00000001                ASSERT (((_vector_spacing == 0x0) || (SIZEOF (.vector_56) <= (_vector_spacing << 0x5))), function at exception vector 56 too large)

.vector_57      0x9d00f920        0x0
 *(.vector_57)
                0x00000001                ASSERT (((_vector_spacing == 0x0) || (SIZEOF (.vector_57) <= (_vector_spacing << 0x5))), function at exception vector 57 too large)

.vector_58      0x9d00f940        0x0
 *(.vector_58)
                0x00000001                ASSERT (((_vector_spacing == 0x0) || (SIZEOF (.vector_58) <= (_vector_spacing << 0x5))), function at exception vector 58 too large)

.vector_59      0x9d00f960        0x0
 *(.vector_59)
                0x00000001                ASSERT (((_vector_spacing == 0x0) || (SIZEOF (.vector_59) <= (_vector_spacing << 0x5))), function at exception vector 59 too large)

.vector_60      0x9d00f980        0x0
 *(.vector_60)
                0x00000001                ASSERT (((_vector_spacing == 0x0) || (SIZEOF (.vector_60) <= (_vector_spacing << 0x5))), function at exception vector 60 too large)

.vector_61      0x9d00f9a0        0x0
 *(.vector_61)
                0x00000001                ASSERT (((_vector_spacing == 0x0) || (SIZEOF (.vector_61) <= (_vector_spacing << 0x5))), function at exception vector 61 too large)

.vector_62      0x9d00f9c0        0x0
 *(.vector_62)
                0x00000001                ASSERT (((_vector_spacing == 0x0) || (SIZEOF (.vector_62) <= (_vector_spacing << 0x5))), function at exception vector 62 too large)

.vector_63      0x9d00f9e0        0x0
 *(.vector_63)
                0x00000001                ASSERT (((_vector_spacing == 0x0) || (SIZEOF (.vector_63) <= (_vector_spacing << 0x5))), function at exception vector 63 too large)

.startup
 *(.startup)

.text           0x9d000000        0x0
 *(.stub .gnu.linkonce.t.*)
 *(.text.*personality*)
 *(.mips16.fn.*)
 *(.mips16.call.*)
 *(.gnu.warning)
                0x9d000000                . = ALIGN (0x4)

.init           0x9d000000        0x0
 *crti.o(.init)
 *crtbegin.o(.init)
 *(EXCLUDE_FILE(*crtn.o *crtend?.o *crtend.o) .init)
 *crtend.o(.init)
 *crtn.o(.init)
                0x9d000000                . = ALIGN (0x4)

.fini           0x9d000000        0x0
 *(.fini)
                0x9d000000                . = ALIGN (0x4)

.preinit_array  0x9d000000        0x0
                0x9d000000                PROVIDE (__preinit_array_start, .)
 *(.preinit_array)
                0x9d000000                PROVIDE (__preinit_array_end, .)
                0x9d000000                . = ALIGN (0x4)

.init_array     0x9d000000        0x0
                0x9d000000                PROVIDE (__init_array_start, .)
 *(SORT(.init_array.*))
 *(.init_array)
                0x9d000000                PROVIDE (__init_array_end, .)
                0x9d000000                . = ALIGN (0x4)

.fini_array     0x9d000000        0x0
                0x9d000000                PROVIDE (__fini_array_start, .)
 *(SORT(.fini_array.*))
 *(.fini_array)
                0x9d000000                PROVIDE (__fini_array_end, .)
                0x9d000000                . = ALIGN (0x4)

.ctors          0x9d000000        0x0
 *crtbegin.o(.ctors)
 *crtbegin?.o(.ctors)
 *(EXCLUDE_FILE(*crtend?.o *crtend.o) .ctors)
 *(SORT(.ctors.*))
 *(.ctors)
                0x9d000000                . = ALIGN (0x4)

.dtors          0x9d000000        0x0
 *crtbegin.o(.dtors)
 *crtbegin?.o(.dtors)
 *(EXCLUDE_FILE(*crtend?.o *crtend.o) .dtors)
 *(SORT(.dtors.*))
 *(.dtors)
                0x9d000000                . = ALIGN (0x4)

.rodata         0x9d000000        0x0
 *(.gnu.linkonce.r.*)
 *(.rodata1)
                0x9d000000                . = ALIGN (0x4)

.sdata2         0x9fc00490        0x0
 *(.sdata2 .sdata2.* .gnu.linkonce.s2.*)
                0x9fc00490                . = ALIGN (0x4)

.sbss2          0x9fc00490        0x0
 *(.sbss2 .sbss2.* .gnu.linkonce.sb2.*)
                0x9fc00490                . = ALIGN (0x4)

.eh_frame_hdr
 *(.eh_frame_hdr)
                0x9fc00490                . = ALIGN (0x4)

.eh_frame
 *(.eh_frame)
                0x9fc00490                . = ALIGN (0x4)

.gcc_except_table
 *(.gcc_except_table .gcc_except_table.*)
                0x9fc00490                . = ALIGN (0x4)

.dbg_data       0xa0000000        0x0
                0xa0000000                . = (. + DEFINED (_DEBUGGER)?0x200:0x0)

.jcr            0xa0000000        0x0
 *(.jcr)
                0xa0000000                . = ALIGN (0x4)

.eh_frame
 *(.eh_frame)
                0xa0000000                . = ALIGN (0x4)

.gcc_except_table
 *(.gcc_except_table .gcc_except_table.*)
                0xa0000000                . = ALIGN (0x4)

.persist        0xa0000000        0x0
                0xa0000000                _persist_begin = .
 *(.persist .persist.*)
 *(.pbss .pbss.*)
                0xa0000000                . = ALIGN (0x4)
                0xa0000000                _persist_end = .

.data           0xa0000000        0x0
 *(.gnu.linkonce.d.*)
 *(.data1)
                0xa0000000                . = ALIGN (0x4)
                0xa0000000                . = .
                0xa0007ff0                _gp = (ALIGN (0x10) + 0x7ff0)

.got            0xa0000000        0x0
 *(.got.plt)
 *(.got)
                0xa0000000                . = ALIGN (0x4)

.sdata          0xa0000000        0x0
                0xa0000000                _sdata_begin = .
 *(.sdata .sdata.* .gnu.linkonce.s.*)
                0xa0000000                . = ALIGN (0x4)
                0xa0000000                _sdata_end = .

.lit8
 *(.lit8)

.lit4
 *(.lit4)
                0xa0000000                . = ALIGN (0x4)
                0xa0000000                _data_end = .
                0xa0000000                _bss_begin = .

.sbss           0xa0000000       0x18
                0xa0000000                _sbss_begin = .
 *(.dynsbss)
 *(.sbss .sbss.* .gnu.linkonce.sb.*)
 .sbss          0xa0000000        0xc build/default/production/_ext/1688732426/system_exceptions.o
 *(.scommon)
 .scommon       0xa000000c        0x4 build/default/production/_ext/1360937237/app.o
                0xa000000c                appData
 .scommon       0xa0000010        0x8 build/default/production/_ext/340578644/sys_devcon.o
                0xa0000010                sysDevconObj
 .scommon       0xa0000018        0x0 build/default/production/_ext/1688732426/system_init.o
                0xa0000018                sysObj
                0xa0000018                _sbss_end = .
                0xa0000018                . = ALIGN (0x4)

.bss            0xa0000018        0x0
 *(.dynbss)
 *(COMMON)
                0xa0000018                . = ALIGN ((. != 0x0)?0x4:0x1)
                0xa0000018                . = ALIGN (0x4)
                0xa0000018                _end = .
                0xa0000018                _bss_end = .
                0x00004000                _bmxdudba_address = 0x4000
                0x00004000                _bmxdupba_address = 0x4000

/DISCARD/
 *(.pdr)
 *(.rel.dyn)
 *(.note.GNU-stack)
 *(.note.GNU-stack)
 *(.gnu_debuglink)
 *(.gnu.lto_*)
 *(.discard)

.gptab.sdata
 *(.gptab.data)
 *(.gptab.sdata)

.gptab.sbss
 *(.gptab.bss)
 *(.gptab.sbss)

.mdebug.abi32   0xa0000018        0x0
 *(.mdebug.abi32)
 .mdebug.abi32  0xa0000018        0x0 build/default/production/_ext/1360937237/app.o
 .mdebug.abi32  0xa0000018        0x0 build/default/production/_ext/1360937237/main.o
 .mdebug.abi32  0xa0000018        0x0 build/default/production/_ext/1872847683/sys_int_pic32.o
 .mdebug.abi32  0xa0000018        0x0 build/default/production/_ext/639803181/sys_clk_pic32mx.o
 .mdebug.abi32  0xa0000018        0x0 build/default/production/_ext/340578644/sys_devcon.o
 .mdebug.abi32  0xa0000018        0x0 build/default/production/_ext/340578644/sys_devcon_pic32mx.o
 .mdebug.abi32  0xa0000018        0x0 build/default/production/_ext/822048611/sys_ports_static.o
 .mdebug.abi32  0xa0000018        0x0 build/default/production/_ext/1688732426/system_init.o
 .mdebug.abi32  0xa0000018        0x0 build/default/production/_ext/1688732426/system_interrupt.o
 .mdebug.abi32  0xa0000018        0x0 build/default/production/_ext/1688732426/system_exceptions.o
 .mdebug.abi32  0xa0000018        0x0 build/default/production/_ext/1688732426/system_tasks.o
 .mdebug.abi32  0xa0000018        0x0 ..\..\..\..\..\..\..\..\microchip\harmony\v2_06\bin\framework\peripheral\PIC32MX130F064B_peripherals.a(peripheral.o)
 .mdebug.abi32  0xa0000018        0x0 c:/program files/microchip/xc32/v2.50/bin/bin/../../lib/gcc/pic32mx/4.8.3/../../../../pic32mx/lib\libpic32.a(default-bootstrap-exception-handler.o)
 .mdebug.abi32  0xa0000018        0x0 c:/program files/microchip/xc32/v2.50/bin/bin/../../lib/gcc/pic32mx/4.8.3/../../../../pic32mx/lib\libpic32.a(default-on-reset.o)
 .mdebug.abi32  0xa0000018        0x0 c:/program files/microchip/xc32/v2.50/bin/bin/../../lib/gcc/pic32mx/4.8.3/../../../../pic32mx/lib\libpic32.a(default-on-bootstrap.o)
 .mdebug.abi32  0xa0000018        0x0 c:/program files/microchip/xc32/v2.50/bin/bin/../../lib/gcc/pic32mx/4.8.3/../../../../pic32mx/lib\libpic32.a(defaultinterrupt.o)

.mdebug.abiN32
 *(.mdebug.abiN32)

.mdebug.abi64
 *(.mdebug.abi64)

.mdebug.abiO64
 *(.mdebug.abiO64)

.mdebug.eabi32
 *(.mdebug.eabi32)

.mdebug.eabi64
 *(.mdebug.eabi64)

.gcc_compiled_long32
 *(.gcc_compiled_long32)

.gcc_compiled_long64
 *(.gcc_compiled_long64)

.stab
 *(.stab)

.stabstr
 *(.stabstr)

.stab.excl
 *(.stab.excl)

.stab.exclstr
 *(.stab.exclstr)

.stab.index
 *(.stab.index)

.stab.indexstr
 *(.stab.indexstr)

.comment        0x00000000       0x78
 *(.comment)
 .comment       0x00000000       0x3c build/default/production/_ext/1360937237/app.o
                                 0x3d (size before relaxing)
 .comment       0x00000000       0x3d build/default/production/_ext/1360937237/main.o
 .comment       0x00000000       0x3d build/default/production/_ext/1872847683/sys_int_pic32.o
 .comment       0x00000000       0x3d build/default/production/_ext/639803181/sys_clk_pic32mx.o
 .comment       0x00000000       0x3d build/default/production/_ext/340578644/sys_devcon.o
 .comment       0x00000000       0x3d build/default/production/_ext/340578644/sys_devcon_pic32mx.o
 .comment       0x00000000       0x3d build/default/production/_ext/822048611/sys_ports_static.o
 .comment       0x00000000       0x3d build/default/production/_ext/1688732426/system_init.o
 .comment       0x00000000       0x3d build/default/production/_ext/1688732426/system_interrupt.o
 .comment       0x00000000       0x3d build/default/production/_ext/1688732426/system_exceptions.o
 .comment       0x00000000       0x3d build/default/production/_ext/1688732426/system_tasks.o
 .comment       0x0000003c       0x3c ..\..\..\..\..\..\..\..\microchip\harmony\v2_06\bin\framework\peripheral\PIC32MX130F064B_peripherals.a(peripheral.o)
                                 0x3d (size before relaxing)
 .comment       0x00000000       0x3d c:/program files/microchip/xc32/v2.50/bin/bin/../../lib/gcc/pic32mx/4.8.3/../../../../pic32mx/lib\libpic32.a(default-bootstrap-exception-handler.o)
 .comment       0x00000000       0x3d c:/program files/microchip/xc32/v2.50/bin/bin/../../lib/gcc/pic32mx/4.8.3/../../../../pic32mx/lib\libpic32.a(default-on-reset.o)
 .comment       0x00000000       0x3d c:/program files/microchip/xc32/v2.50/bin/bin/../../lib/gcc/pic32mx/4.8.3/../../../../pic32mx/lib\libpic32.a(default-on-bootstrap.o)
 .comment       0x00000000       0x3d c:/program files/microchip/xc32/v2.50/bin/bin/../../lib/gcc/pic32mx/4.8.3/../../../../pic32mx/lib\libpic32.a(defaultinterrupt.o)

.debug
 *(.debug)

.line
 *(.line)

.debug_srcinfo
 *(.debug_srcinfo)

.debug_sfnames
 *(.debug_sfnames)

.debug_aranges  0x00000000      0x3b8
 *(.debug_aranges)
 .debug_aranges
                0x00000000       0x28 build/default/production/_ext/1360937237/app.o
 .debug_aranges
                0x00000028       0x20 build/default/production/_ext/1360937237/main.o
 .debug_aranges
                0x00000048       0x48 build/default/production/_ext/1872847683/sys_int_pic32.o
 .debug_aranges
                0x00000090       0x50 build/default/production/_ext/639803181/sys_clk_pic32mx.o
 .debug_aranges
                0x000000e0       0x78 build/default/production/_ext/340578644/sys_devcon.o
 .debug_aranges
                0x00000158       0x20 build/default/production/_ext/340578644/sys_devcon_pic32mx.o
 .debug_aranges
                0x00000178      0x148 build/default/production/_ext/822048611/sys_ports_static.o
 .debug_aranges
                0x000002c0       0x20 build/default/production/_ext/1688732426/system_init.o
 .debug_aranges
                0x000002e0       0x18 build/default/production/_ext/1688732426/system_interrupt.o
 .debug_aranges
                0x000002f8       0x20 build/default/production/_ext/1688732426/system_exceptions.o
 .debug_aranges
                0x00000318       0x20 build/default/production/_ext/1688732426/system_tasks.o
 .debug_aranges
                0x00000338       0x20 c:/program files/microchip/xc32/v2.50/bin/bin/../../lib/gcc/pic32mx/4.8.3/../../../../pic32mx/lib\libpic32.a(default-bootstrap-exception-handler.o)
 .debug_aranges
                0x00000358       0x20 c:/program files/microchip/xc32/v2.50/bin/bin/../../lib/gcc/pic32mx/4.8.3/../../../../pic32mx/lib\libpic32.a(default-on-reset.o)
 .debug_aranges
                0x00000378       0x20 c:/program files/microchip/xc32/v2.50/bin/bin/../../lib/gcc/pic32mx/4.8.3/../../../../pic32mx/lib\libpic32.a(default-on-bootstrap.o)
 .debug_aranges
                0x00000398       0x20 c:/program files/microchip/xc32/v2.50/bin/bin/../../lib/gcc/pic32mx/4.8.3/../../../../pic32mx/lib\libpic32.a(defaultinterrupt.o)

.debug_pubnames
 *(.debug_pubnames)

.debug_info     0x00000000     0x9c8c
 *(.debug_info .gnu.linkonce.wi.*)
 .debug_info    0x00000000      0xc09 build/default/production/_ext/1360937237/app.o
 .debug_info    0x00000c09      0x176 build/default/production/_ext/1360937237/main.o
 .debug_info    0x00000d7f      0xd32 build/default/production/_ext/1872847683/sys_int_pic32.o
 .debug_info    0x00001ab1     0x1232 build/default/production/_ext/639803181/sys_clk_pic32mx.o
 .debug_info    0x00002ce3     0x117b build/default/production/_ext/340578644/sys_devcon.o
 .debug_info    0x00003e5e      0xb5f build/default/production/_ext/340578644/sys_devcon_pic32mx.o
 .debug_info    0x000049bd     0x2097 build/default/production/_ext/822048611/sys_ports_static.o
 .debug_info    0x00006a54      0xc2c build/default/production/_ext/1688732426/system_init.o
 .debug_info    0x00007680      0xb3a build/default/production/_ext/1688732426/system_interrupt.o
 .debug_info    0x000081ba      0xbf9 build/default/production/_ext/1688732426/system_exceptions.o
 .debug_info    0x00008db3      0xb5c build/default/production/_ext/1688732426/system_tasks.o
 .debug_info    0x0000990f       0xf4 c:/program files/microchip/xc32/v2.50/bin/bin/../../lib/gcc/pic32mx/4.8.3/../../../../pic32mx/lib\libpic32.a(default-bootstrap-exception-handler.o)
 .debug_info    0x00009a03       0xcd c:/program files/microchip/xc32/v2.50/bin/bin/../../lib/gcc/pic32mx/4.8.3/../../../../pic32mx/lib\libpic32.a(default-on-reset.o)
 .debug_info    0x00009ad0       0xd5 c:/program files/microchip/xc32/v2.50/bin/bin/../../lib/gcc/pic32mx/4.8.3/../../../../pic32mx/lib\libpic32.a(default-on-bootstrap.o)
 .debug_info    0x00009ba5       0xe7 c:/program files/microchip/xc32/v2.50/bin/bin/../../lib/gcc/pic32mx/4.8.3/../../../../pic32mx/lib\libpic32.a(defaultinterrupt.o)

.debug_abbrev   0x00000000      0xd2c
 *(.debug_abbrev)
 .debug_abbrev  0x00000000      0x12a build/default/production/_ext/1360937237/app.o
 .debug_abbrev  0x0000012a       0x3b build/default/production/_ext/1360937237/main.o
 .debug_abbrev  0x00000165      0x173 build/default/production/_ext/1872847683/sys_int_pic32.o
 .debug_abbrev  0x000002d8      0x188 build/default/production/_ext/639803181/sys_clk_pic32mx.o
 .debug_abbrev  0x00000460      0x226 build/default/production/_ext/340578644/sys_devcon.o
 .debug_abbrev  0x00000686      0x120 build/default/production/_ext/340578644/sys_devcon_pic32mx.o
 .debug_abbrev  0x000007a6      0x1c5 build/default/production/_ext/822048611/sys_ports_static.o
 .debug_abbrev  0x0000096b       0xf6 build/default/production/_ext/1688732426/system_init.o
 .debug_abbrev  0x00000a61       0x97 build/default/production/_ext/1688732426/system_interrupt.o
 .debug_abbrev  0x00000af8       0xdf build/default/production/_ext/1688732426/system_exceptions.o
 .debug_abbrev  0x00000bd7       0xb5 build/default/production/_ext/1688732426/system_tasks.o
 .debug_abbrev  0x00000c8c       0x28 c:/program files/microchip/xc32/v2.50/bin/bin/../../lib/gcc/pic32mx/4.8.3/../../../../pic32mx/lib\libpic32.a(default-bootstrap-exception-handler.o)
 .debug_abbrev  0x00000cb4       0x28 c:/program files/microchip/xc32/v2.50/bin/bin/../../lib/gcc/pic32mx/4.8.3/../../../../pic32mx/lib\libpic32.a(default-on-reset.o)
 .debug_abbrev  0x00000cdc       0x28 c:/program files/microchip/xc32/v2.50/bin/bin/../../lib/gcc/pic32mx/4.8.3/../../../../pic32mx/lib\libpic32.a(default-on-bootstrap.o)
 .debug_abbrev  0x00000d04       0x28 c:/program files/microchip/xc32/v2.50/bin/bin/../../lib/gcc/pic32mx/4.8.3/../../../../pic32mx/lib\libpic32.a(defaultinterrupt.o)

.debug_line     0x00000000     0x1d0e
 *(.debug_line)
 .debug_line    0x00000000      0x171 build/default/production/_ext/1360937237/app.o
 .debug_line    0x00000171       0x92 build/default/production/_ext/1360937237/main.o
 .debug_line    0x00000203      0x228 build/default/production/_ext/1872847683/sys_int_pic32.o
 .debug_line    0x0000042b      0x2d4 build/default/production/_ext/639803181/sys_clk_pic32mx.o
 .debug_line    0x000006ff      0x4dc build/default/production/_ext/340578644/sys_devcon.o
 .debug_line    0x00000bdb      0x323 build/default/production/_ext/340578644/sys_devcon_pic32mx.o
 .debug_line    0x00000efe      0x623 build/default/production/_ext/822048611/sys_ports_static.o
 .debug_line    0x00001521      0x1ca build/default/production/_ext/1688732426/system_init.o
 .debug_line    0x000016eb       0xd6 build/default/production/_ext/1688732426/system_interrupt.o
 .debug_line    0x000017c1      0x170 build/default/production/_ext/1688732426/system_exceptions.o
 .debug_line    0x00001931      0x168 build/default/production/_ext/1688732426/system_tasks.o
 .debug_line    0x00001a99       0xa6 c:/program files/microchip/xc32/v2.50/bin/bin/../../lib/gcc/pic32mx/4.8.3/../../../../pic32mx/lib\libpic32.a(default-bootstrap-exception-handler.o)
 .debug_line    0x00001b3f       0x93 c:/program files/microchip/xc32/v2.50/bin/bin/../../lib/gcc/pic32mx/4.8.3/../../../../pic32mx/lib\libpic32.a(default-on-reset.o)
 .debug_line    0x00001bd2       0x97 c:/program files/microchip/xc32/v2.50/bin/bin/../../lib/gcc/pic32mx/4.8.3/../../../../pic32mx/lib\libpic32.a(default-on-bootstrap.o)
 .debug_line    0x00001c69       0xa5 c:/program files/microchip/xc32/v2.50/bin/bin/../../lib/gcc/pic32mx/4.8.3/../../../../pic32mx/lib\libpic32.a(defaultinterrupt.o)

.debug_frame    0x00000000      0xa80
 *(.debug_frame)
 .debug_frame   0x00000000       0x50 build/default/production/_ext/1360937237/app.o
 .debug_frame   0x00000050       0x2c build/default/production/_ext/1360937237/main.o
 .debug_frame   0x0000007c       0xe8 build/default/production/_ext/1872847683/sys_int_pic32.o
 .debug_frame   0x00000164      0x100 build/default/production/_ext/639803181/sys_clk_pic32mx.o
 .debug_frame   0x00000264      0x1a4 build/default/production/_ext/340578644/sys_devcon.o
 .debug_frame   0x00000408       0x34 build/default/production/_ext/340578644/sys_devcon_pic32mx.o
 .debug_frame   0x0000043c      0x524 build/default/production/_ext/822048611/sys_ports_static.o
 .debug_frame   0x00000960       0x34 build/default/production/_ext/1688732426/system_init.o
 .debug_frame   0x00000994       0x2c build/default/production/_ext/1688732426/system_exceptions.o
 .debug_frame   0x000009c0       0x34 build/default/production/_ext/1688732426/system_tasks.o
 .debug_frame   0x000009f4       0x2c c:/program files/microchip/xc32/v2.50/bin/bin/../../lib/gcc/pic32mx/4.8.3/../../../../pic32mx/lib\libpic32.a(default-bootstrap-exception-handler.o)
 .debug_frame   0x00000a20       0x20 c:/program files/microchip/xc32/v2.50/bin/bin/../../lib/gcc/pic32mx/4.8.3/../../../../pic32mx/lib\libpic32.a(default-on-reset.o)
 .debug_frame   0x00000a40       0x20 c:/program files/microchip/xc32/v2.50/bin/bin/../../lib/gcc/pic32mx/4.8.3/../../../../pic32mx/lib\libpic32.a(default-on-bootstrap.o)
 .debug_frame   0x00000a60       0x20 c:/program files/microchip/xc32/v2.50/bin/bin/../../lib/gcc/pic32mx/4.8.3/../../../../pic32mx/lib\libpic32.a(defaultinterrupt.o)

.debug_str      0x00000000       0x54
 *(.debug_str)
 .debug_str     0x00000000        0x0 build/default/production/_ext/1360937237/app.o
 .debug_str     0x00000000        0x0 build/default/production/_ext/1360937237/main.o
 .debug_str     0x00000000       0x10 build/default/production/_ext/1872847683/sys_int_pic32.o
 .debug_str     0x00000010        0x0 build/default/production/_ext/639803181/sys_clk_pic32mx.o
 .debug_str     0x00000010       0x10 build/default/production/_ext/340578644/sys_devcon.o
 .debug_str     0x00000020        0x0 build/default/production/_ext/340578644/sys_devcon_pic32mx.o
 .debug_str     0x00000020       0x34 build/default/production/_ext/822048611/sys_ports_static.o
 .debug_str     0x00000054        0x0 build/default/production/_ext/1688732426/system_init.o
 .debug_str     0x00000054        0x0 build/default/production/_ext/1688732426/system_interrupt.o
 .debug_str     0x00000054        0x0 build/default/production/_ext/1688732426/system_exceptions.o
 .debug_str     0x00000054        0x0 build/default/production/_ext/1688732426/system_tasks.o
 .debug_str     0x00000054        0x0 c:/program files/microchip/xc32/v2.50/bin/bin/../../lib/gcc/pic32mx/4.8.3/../../../../pic32mx/lib\libpic32.a(default-bootstrap-exception-handler.o)
 .debug_str     0x00000054        0x0 c:/program files/microchip/xc32/v2.50/bin/bin/../../lib/gcc/pic32mx/4.8.3/../../../../pic32mx/lib\libpic32.a(default-on-reset.o)
 .debug_str     0x00000054        0x0 c:/program files/microchip/xc32/v2.50/bin/bin/../../lib/gcc/pic32mx/4.8.3/../../../../pic32mx/lib\libpic32.a(default-on-bootstrap.o)
 .debug_str     0x00000054        0x0 c:/program files/microchip/xc32/v2.50/bin/bin/../../lib/gcc/pic32mx/4.8.3/../../../../pic32mx/lib\libpic32.a(defaultinterrupt.o)

.debug_loc      0x00000000       0x2c
 *(.debug_loc)
 .debug_loc     0x00000000       0x2c c:/program files/microchip/xc32/v2.50/bin/bin/../../lib/gcc/pic32mx/4.8.3/../../../../pic32mx/lib\libpic32.a(default-bootstrap-exception-handler.o)

.debug_macinfo
 *(.debug_macinfo)

.debug_weaknames
 *(.debug_weaknames)

.debug_funcnames
 *(.debug_funcnames)

.debug_typenames
 *(.debug_typenames)

.debug_varnames
 *(.debug_varnames)

.debug_pubtypes
 *(.debug_pubtypes)

.debug_ranges   0x00000000      0x2c0
 *(.debug_ranges)
 .debug_ranges  0x00000000       0x18 build/default/production/_ext/1360937237/app.o
 .debug_ranges  0x00000018       0x10 build/default/production/_ext/1360937237/main.o
 .debug_ranges  0x00000028       0x38 build/default/production/_ext/1872847683/sys_int_pic32.o
 .debug_ranges  0x00000060       0x40 build/default/production/_ext/639803181/sys_clk_pic32mx.o
 .debug_ranges  0x000000a0       0x68 build/default/production/_ext/340578644/sys_devcon.o
 .debug_ranges  0x00000108       0x10 build/default/production/_ext/340578644/sys_devcon_pic32mx.o
 .debug_ranges  0x00000118      0x138 build/default/production/_ext/822048611/sys_ports_static.o
 .debug_ranges  0x00000250       0x10 build/default/production/_ext/1688732426/system_init.o
 .debug_ranges  0x00000260       0x10 build/default/production/_ext/1688732426/system_exceptions.o
 .debug_ranges  0x00000270       0x10 build/default/production/_ext/1688732426/system_tasks.o
 .debug_ranges  0x00000280       0x10 c:/program files/microchip/xc32/v2.50/bin/bin/../../lib/gcc/pic32mx/4.8.3/../../../../pic32mx/lib\libpic32.a(default-bootstrap-exception-handler.o)
 .debug_ranges  0x00000290       0x10 c:/program files/microchip/xc32/v2.50/bin/bin/../../lib/gcc/pic32mx/4.8.3/../../../../pic32mx/lib\libpic32.a(default-on-reset.o)
 .debug_ranges  0x000002a0       0x10 c:/program files/microchip/xc32/v2.50/bin/bin/../../lib/gcc/pic32mx/4.8.3/../../../../pic32mx/lib\libpic32.a(default-on-bootstrap.o)
 .debug_ranges  0x000002b0       0x10 c:/program files/microchip/xc32/v2.50/bin/bin/../../lib/gcc/pic32mx/4.8.3/../../../../pic32mx/lib\libpic32.a(defaultinterrupt.o)

.gnu.attributes
                0x00000000       0x10
 *(.gnu.attributes)
 .gnu.attributes
                0x00000000       0x10 build/default/production/_ext/1360937237/app.o
 .gnu.attributes
                0x00000010       0x10 build/default/production/_ext/1360937237/main.o
 .gnu.attributes
                0x00000020       0x10 build/default/production/_ext/1872847683/sys_int_pic32.o
 .gnu.attributes
                0x00000030       0x10 build/default/production/_ext/639803181/sys_clk_pic32mx.o
 .gnu.attributes
                0x00000040       0x10 build/default/production/_ext/340578644/sys_devcon.o
 .gnu.attributes
                0x00000050       0x10 build/default/production/_ext/340578644/sys_devcon_pic32mx.o
 .gnu.attributes
                0x00000060       0x10 build/default/production/_ext/822048611/sys_ports_static.o
 .gnu.attributes
                0x00000070       0x10 build/default/production/_ext/1688732426/system_init.o
 .gnu.attributes
                0x00000080       0x10 build/default/production/_ext/1688732426/system_interrupt.o
 .gnu.attributes
                0x00000090       0x10 build/default/production/_ext/1688732426/system_exceptions.o
 .gnu.attributes
                0x000000a0       0x10 build/default/production/_ext/1688732426/system_tasks.o
 .gnu.attributes
                0x000000b0       0x10 ..\..\..\..\..\..\..\..\microchip\harmony\v2_06\bin\framework\peripheral\PIC32MX130F064B_peripherals.a(peripheral.o)
 .gnu.attributes
                0x000000c0       0x10 c:/program files/microchip/xc32/v2.50/bin/bin/../../lib/gcc/pic32mx/4.8.3/../../../../pic32mx/lib\libpic32.a(default-bootstrap-exception-handler.o)
 .gnu.attributes
                0x000000d0       0x10 c:/program files/microchip/xc32/v2.50/bin/bin/../../lib/gcc/pic32mx/4.8.3/../../../../pic32mx/lib\libpic32.a(default-on-reset.o)
 .gnu.attributes
                0x000000e0       0x10 c:/program files/microchip/xc32/v2.50/bin/bin/../../lib/gcc/pic32mx/4.8.3/../../../../pic32mx/lib\libpic32.a(default-on-bootstrap.o)
 .gnu.attributes
                0x000000f0       0x10 c:/program files/microchip/xc32/v2.50/bin/bin/../../lib/gcc/pic32mx/4.8.3/../../../../pic32mx/lib\libpic32.a(defaultinterrupt.o)
LOAD c:/program files/microchip/xc32/v2.50/bin/bin/../../lib/gcc/pic32mx/4.8.3\libgcc.a
START GROUP
LOAD c:/program files/microchip/xc32/v2.50/bin/bin/../../lib/gcc/pic32mx/4.8.3/../../../../pic32mx/lib\libpic32.a
LOAD c:/program files/microchip/xc32/v2.50/bin/bin/../../lib/gcc/pic32mx/4.8.3/../../../../pic32mx/lib\libdebug.a
LOAD c:/program files/microchip/xc32/v2.50/bin/bin/../../lib/gcc/pic32mx/4.8.3/../../../../pic32mx/lib\libpic32.a
LOAD c:/program files/microchip/xc32/v2.50/bin/bin/../../lib/gcc/pic32mx/4.8.3/../../../../pic32mx/lib\libc.a
LOAD c:/program files/microchip/xc32/v2.50/bin/bin/../../lib/gcc/pic32mx/4.8.3/../../../../pic32mx/lib\libc.a
LOAD c:/program files/microchip/xc32/v2.50/bin/bin/../../lib/gcc/pic32mx/4.8.3/../../../../pic32mx/lib\libm.a
LOAD c:/program files/microchip/xc32/v2.50/bin/bin/../../lib/gcc/pic32mx/4.8.3/../../../../pic32mx/lib\libe.a
LOAD c:/program files/microchip/xc32/v2.50/bin/bin/../../lib/gcc/pic32mx/4.8.3/../../../../pic32mx/lib\libdsp.a
LOAD c:/program files/microchip/xc32/v2.50/bin/bin/../../lib/gcc/pic32mx/4.8.3\libgcc.a
LOAD c:/program files/microchip/xc32/v2.50/bin/bin/../../lib/gcc/pic32mx/4.8.3/../../../../pic32mx/lib\libpic32.a
END GROUP
LOAD c:/program files/microchip/xc32/v2.50/bin/bin/../../lib/gcc/pic32mx/4.8.3\libgcc.a
OUTPUT(dist/default/production/2228_Recepteur.X.production.elf elf32-tradlittlemips)
LOAD stack
LOAD data_init

.reginfo        0x00000000       0x18
 .reginfo       0x00000000       0x18 c:/program files/microchip/xc32/v2.50/bin/bin/../../lib/gcc/pic32mx/4.8.3/../../../../pic32mx/lib\debug-exception-return.o

.stack          0xa0000080      0x400
 .stack         0xa0000080      0x400 stack

.data           0xa0000018       0x4c
 .data          0xa0000018       0x4c build/default/production/_ext/1688732426/system_exceptions.o

._debug_exception
                0xbfc00480       0x2c
 ._debug_exception
                0xbfc00480       0x2c c:/program files/microchip/xc32/v2.50/bin/bin/../../lib/gcc/pic32mx/4.8.3/../../../../pic32mx/lib\debug-exception-return.o
                0xbfc00480                __DbgExecReturn

.text.SYS_PORTS_Initialize
                0x9d000000      0x208
 .text.SYS_PORTS_Initialize
                0x9d000000      0x208 build/default/production/_ext/822048611/sys_ports_static.o
                0x9d000000                SYS_PORTS_Initialize

.rodata         0x9d000208       0xdc
 .rodata        0x9d000208       0xdc build/default/production/_ext/1688732426/system_exceptions.o

.text.general_exception
                0x9d0002e4       0xdc
 .text.general_exception
                0x9d0002e4       0xdc c:/program files/microchip/xc32/v2.50/bin/bin/../../lib/gcc/pic32mx/4.8.3/../../../../pic32mx/lib\libpic32.a(general-exception.o)
                0x9d0002e4                _general_exception_context

.text.SYS_DEVCON_PerformanceConfig
                0x9d0003c0       0x98
 .text.SYS_DEVCON_PerformanceConfig
                0x9d0003c0       0x98 build/default/production/_ext/340578644/sys_devcon_pic32mx.o
                0x9d0003c0                SYS_DEVCON_PerformanceConfig

.text.SYS_Initialize
                0x9d000458       0x84
 .text.SYS_Initialize
                0x9d000458       0x84 build/default/production/_ext/1688732426/system_init.o
                0x9d000458                SYS_Initialize

.text           0x9d0004dc       0x84
 .text          0x9d0004dc       0x84 c:/program files/microchip/xc32/v2.50/bin/bin/../../lib/gcc/pic32mx/4.8.3/../../../../pic32mx/lib\libpic32.a(pic32_data_init.o)
                0x9d0004dc                __pic32_data_init

.text.SYS_CLK_Initialize
                0x9d000560       0x80
 .text.SYS_CLK_Initialize
                0x9d000560       0x80 build/default/production/_ext/639803181/sys_clk_pic32mx.o
                0x9d000560                SYS_CLK_Initialize

.text.APP_Tasks
                0x9d0005e0       0x70
 .text.APP_Tasks
                0x9d0005e0       0x70 build/default/production/_ext/1360937237/app.o
                0x9d0005e0                APP_Tasks

.dinit          0x9d000650       0x70
 .dinit         0x9d000650       0x70 data_init

.text.SYS_DEVCON_SystemUnlock
                0x9d0006c0       0x68
 .text.SYS_DEVCON_SystemUnlock
                0x9d0006c0       0x68 build/default/production/_ext/340578644/sys_devcon.o
                0x9d0006c0                SYS_DEVCON_SystemUnlock

.text.SYS_DEVCON_SystemLock
                0x9d000728       0x68
 .text.SYS_DEVCON_SystemLock
                0x9d000728       0x68 build/default/production/_ext/340578644/sys_devcon.o
                0x9d000728                SYS_DEVCON_SystemLock

.text.PLIB_OSC_PBClockDivisorSet
                0x9d000790       0x60
 .text.PLIB_OSC_PBClockDivisorSet
                0x9d000790       0x60 ..\..\..\..\..\..\..\..\microchip\harmony\v2_06\bin\framework\peripheral\PIC32MX130F064B_peripherals.a(peripheral.o)
                0x9d000790                PLIB_OSC_PBClockDivisorSet

.text.main_entry
                0x9d0007f0       0x54
 .text.main_entry
                0x9d0007f0       0x54 C:\Users\MIGSAN~1\AppData\Local\Temp\ccqKeKlV.o
                0x9d000824                __crt0_exit

.text._general_exception_handler
                0x9d000844       0x4c
 .text._general_exception_handler
                0x9d000844       0x4c build/default/production/_ext/1688732426/system_exceptions.o
                0x9d000844                _general_exception_handler

.text._bootstrap_exception_handler
                0x9d000890       0x48
 .text._bootstrap_exception_handler
                0x9d000890       0x48 c:/program files/microchip/xc32/v2.50/bin/bin/../../lib/gcc/pic32mx/4.8.3/../../../../pic32mx/lib\libpic32.a(default-bootstrap-exception-handler.o)
                0x9d000890                _bootstrap_exception_handler

.vector_default
                0x9d0008d8       0x48
 .vector_default
                0x9d0008d8       0x48 c:/program files/microchip/xc32/v2.50/bin/bin/../../lib/gcc/pic32mx/4.8.3/../../../../pic32mx/lib\libpic32.a(defaultinterrupt.o)
                0x9d0008d8                _DefaultInterrupt

.text           0x9d000920       0x44
 .text          0x9d000920       0x44 c:/program files/microchip/xc32/v2.50/bin/bin/../../lib/gcc/pic32mx/4.8.3/../../../../pic32mx/lib\pic32_software_reset.o
                0x9d000920                __pic32_software_reset

.text.PLIB_PORTS_ChannelModeSelect
                0x9d000964       0x40
 .text.PLIB_PORTS_ChannelModeSelect
                0x9d000964       0x40 ..\..\..\..\..\..\..\..\microchip\harmony\v2_06\bin\framework\peripheral\PIC32MX130F064B_peripherals.a(peripheral.o)
                0x9d000964                PLIB_PORTS_ChannelModeSelect

.text.SYS_DEVCON_Initialize
                0x9d0009a4       0x3c
 .text.SYS_DEVCON_Initialize
                0x9d0009a4       0x3c build/default/production/_ext/340578644/sys_devcon.o
                0x9d0009a4                SYS_DEVCON_Initialize

.text.SYS_INT_Initialize
                0x9d0009e0       0x34
 .text.SYS_INT_Initialize
                0x9d0009e0       0x34 build/default/production/_ext/1872847683/sys_int_pic32.o
                0x9d0009e0                SYS_INT_Initialize

.text.SYS_Tasks
                0x9d000a14       0x30
 .text.SYS_Tasks
                0x9d000a14       0x30 build/default/production/_ext/1688732426/system_tasks.o
                0x9d000a14                SYS_Tasks

.text.main      0x9d000a44       0x2c
 .text.main     0x9d000a44       0x2c build/default/production/_ext/1360937237/main.o
                0x9d000a44                main

.text.PLIB_PORTS_RemapInput
                0x9d000a70       0x2c
 .text.PLIB_PORTS_RemapInput
                0x9d000a70       0x2c ..\..\..\..\..\..\..\..\microchip\harmony\v2_06\bin\framework\peripheral\PIC32MX130F064B_peripherals.a(peripheral.o)
                0x9d000a70                PLIB_PORTS_RemapInput

.text.PLIB_PORTS_RemapOutput
                0x9d000a9c       0x2c
 .text.PLIB_PORTS_RemapOutput
                0x9d000a9c       0x2c ..\..\..\..\..\..\..\..\microchip\harmony\v2_06\bin\framework\peripheral\PIC32MX130F064B_peripherals.a(peripheral.o)
                0x9d000a9c                PLIB_PORTS_RemapOutput

.text.SYS_CLK_SystemFrequencyGet
                0x9d000ac8       0x28
 .text.SYS_CLK_SystemFrequencyGet
                0x9d000ac8       0x28 build/default/production/_ext/639803181/sys_clk_pic32mx.o
                0x9d000ac8                SYS_CLK_SystemFrequencyGet

.text.PLIB_DEVCON_SystemUnlock
                0x9d000af0       0x28
 .text.PLIB_DEVCON_SystemUnlock
                0x9d000af0       0x28 ..\..\..\..\..\..\..\..\microchip\harmony\v2_06\bin\framework\peripheral\PIC32MX130F064B_peripherals.a(peripheral.o)
                0x9d000af0                PLIB_DEVCON_SystemUnlock

.text.APP_Initialize
                0x9d000b18       0x24
 .text.APP_Initialize
                0x9d000b18       0x24 build/default/production/_ext/1360937237/app.o
                0x9d000b18                APP_Initialize

.text.PLIB_INT_Enable
                0x9d000b3c       0x24
 .text.PLIB_INT_Enable
                0x9d000b3c       0x24 ..\..\..\..\..\..\..\..\microchip\harmony\v2_06\bin\framework\peripheral\PIC32MX130F064B_peripherals.a(peripheral.o)
                0x9d000b3c                PLIB_INT_Enable

.text.PLIB_PORTS_ChangeNoticePerPortTurnOn
                0x9d000b60       0x24
 .text.PLIB_PORTS_ChangeNoticePerPortTurnOn
                0x9d000b60       0x24 ..\..\..\..\..\..\..\..\microchip\harmony\v2_06\bin\framework\peripheral\PIC32MX130F064B_peripherals.a(peripheral.o)
                0x9d000b60                PLIB_PORTS_ChangeNoticePerPortTurnOn

.text.PLIB_PORTS_Write
                0x9d000b84       0x20
 .text.PLIB_PORTS_Write
                0x9d000b84       0x20 ..\..\..\..\..\..\..\..\microchip\harmony\v2_06\bin\framework\peripheral\PIC32MX130F064B_peripherals.a(peripheral.o)
                0x9d000b84                PLIB_PORTS_Write

.text.PLIB_PORTS_DirectionOutputSet
                0x9d000ba4       0x20
 .text.PLIB_PORTS_DirectionOutputSet
                0x9d000ba4       0x20 ..\..\..\..\..\..\..\..\microchip\harmony\v2_06\bin\framework\peripheral\PIC32MX130F064B_peripherals.a(peripheral.o)
                0x9d000ba4                PLIB_PORTS_DirectionOutputSet

.text.PLIB_PORTS_OpenDrainEnable
                0x9d000bc4       0x20
 .text.PLIB_PORTS_OpenDrainEnable
                0x9d000bc4       0x20 ..\..\..\..\..\..\..\..\microchip\harmony\v2_06\bin\framework\peripheral\PIC32MX130F064B_peripherals.a(peripheral.o)
                0x9d000bc4                PLIB_PORTS_OpenDrainEnable

.text.PLIB_PORTS_ChannelChangeNoticePullDownEnable
                0x9d000be4       0x20
 .text.PLIB_PORTS_ChannelChangeNoticePullDownEnable
                0x9d000be4       0x20 ..\..\..\..\..\..\..\..\microchip\harmony\v2_06\bin\framework\peripheral\PIC32MX130F064B_peripherals.a(peripheral.o)
                0x9d000be4                PLIB_PORTS_ChannelChangeNoticePullDownEnable

.text.PLIB_PORTS_ChannelChangeNoticePullUpEnable
                0x9d000c04       0x20
 .text.PLIB_PORTS_ChannelChangeNoticePullUpEnable
                0x9d000c04       0x20 ..\..\..\..\..\..\..\..\microchip\harmony\v2_06\bin\framework\peripheral\PIC32MX130F064B_peripherals.a(peripheral.o)
                0x9d000c04                PLIB_PORTS_ChannelChangeNoticePullUpEnable

.text.PLIB_PORTS_ChannelChangeNoticeEnable
                0x9d000c24       0x20
 .text.PLIB_PORTS_ChannelChangeNoticeEnable
                0x9d000c24       0x20 ..\..\..\..\..\..\..\..\microchip\harmony\v2_06\bin\framework\peripheral\PIC32MX130F064B_peripherals.a(peripheral.o)
                0x9d000c24                PLIB_PORTS_ChannelChangeNoticeEnable

.text.PLIB_INT_GetStateAndDisable
                0x9d000c44       0x1c
 .text.PLIB_INT_GetStateAndDisable
                0x9d000c44       0x1c ..\..\..\..\..\..\..\..\microchip\harmony\v2_06\bin\framework\peripheral\PIC32MX130F064B_peripherals.a(peripheral.o)
                0x9d000c44                PLIB_INT_GetStateAndDisable

.text.PLIB_DEVCON_SystemLock
                0x9d000c60       0x18
 .text.PLIB_DEVCON_SystemLock
                0x9d000c60       0x18 ..\..\..\..\..\..\..\..\microchip\harmony\v2_06\bin\framework\peripheral\PIC32MX130F064B_peripherals.a(peripheral.o)
                0x9d000c60                PLIB_DEVCON_SystemLock

.text.PLIB_OSC_FRCDivisorSelect
                0x9d000c78       0x18
 .text.PLIB_OSC_FRCDivisorSelect
                0x9d000c78       0x18 ..\..\..\..\..\..\..\..\microchip\harmony\v2_06\bin\framework\peripheral\PIC32MX130F064B_peripherals.a(peripheral.o)
                0x9d000c78                PLIB_OSC_FRCDivisorSelect

.text           0x9d000c90       0x18
 .text          0x9d000c90       0x18 c:/program files/microchip/xc32/v2.50/bin/bin/../../lib/gcc/pic32mx/4.8.3/../../../../pic32mx/lib\libpic32.a(default-nmi-handler.o)
                0x9d000c90                _nmi_handler

.text.PLIB_BMX_DataRamWaitStateSet
                0x9d000ca8       0x14
 .text.PLIB_BMX_DataRamWaitStateSet
                0x9d000ca8       0x14 ..\..\..\..\..\..\..\..\microchip\harmony\v2_06\bin\framework\peripheral\PIC32MX130F064B_peripherals.a(peripheral.o)
                0x9d000ca8                PLIB_BMX_DataRamWaitStateSet

.text.PLIB_INT_MultiVectorSelect
                0x9d000cbc       0x14
 .text.PLIB_INT_MultiVectorSelect
                0x9d000cbc       0x14 ..\..\..\..\..\..\..\..\microchip\harmony\v2_06\bin\framework\peripheral\PIC32MX130F064B_peripherals.a(peripheral.o)
                0x9d000cbc                PLIB_INT_MultiVectorSelect

.text.PLIB_OSC_ReferenceOutputDisable
                0x9d000cd0       0x14
 .text.PLIB_OSC_ReferenceOutputDisable
                0x9d000cd0       0x14 ..\..\..\..\..\..\..\..\microchip\harmony\v2_06\bin\framework\peripheral\PIC32MX130F064B_peripherals.a(peripheral.o)
                0x9d000cd0                PLIB_OSC_ReferenceOutputDisable

.text.PLIB_OSC_ReferenceOscDisable
                0x9d000ce4       0x14
 .text.PLIB_OSC_ReferenceOscDisable
                0x9d000ce4       0x14 ..\..\..\..\..\..\..\..\microchip\harmony\v2_06\bin\framework\peripheral\PIC32MX130F064B_peripherals.a(peripheral.o)
                0x9d000ce4                PLIB_OSC_ReferenceOscDisable

.text.PLIB_BMX_ExistsDataRamWaitState
                0x9d000cf8        0x8
 .text.PLIB_BMX_ExistsDataRamWaitState
                0x9d000cf8        0x8 ..\..\..\..\..\..\..\..\microchip\harmony\v2_06\bin\framework\peripheral\PIC32MX130F064B_peripherals.a(peripheral.o)
                0x9d000cf8                PLIB_BMX_ExistsDataRamWaitState

.text._on_reset
                0x9d000d00        0x8
 .text._on_reset
                0x9d000d00        0x8 c:/program files/microchip/xc32/v2.50/bin/bin/../../lib/gcc/pic32mx/4.8.3/../../../../pic32mx/lib\libpic32.a(default-on-reset.o)
                0x9d000d00                _on_reset

.text._on_bootstrap
                0x9d000d08        0x8
 .text._on_bootstrap
                0x9d000d08        0x8 c:/program files/microchip/xc32/v2.50/bin/bin/../../lib/gcc/pic32mx/4.8.3/../../../../pic32mx/lib\libpic32.a(default-on-bootstrap.o)
                0x9d000d08                _on_bootstrap
